MPLINK 4.22, Linker
Linker Map File - Created Fri Jan 12 08:11:35 2018

                                 Section Info
                  Section       Type    Address   Location Size(Bytes)
                ---------  ---------  ---------  ---------  ---------
               _entry_scn       code   0x000000    program   0x000006
               highVector       code   0x000008    program   0x000006
                lowVector       code   0x000018    program   0x000006
                   .cinit    romdata   0x00002a    program   0x000092
              .code_TCP.o       code   0x0000bc    program   0x003d4e
            .code_HTTP2.o       code   0x003e0a    program   0x00243a
          .code_oled_c2.o       code   0x006244    program   0x002226
   .code_HTTPGetDevInfo.o       code   0x00846a    program   0x001a6a
            .code_MPFS2.o       code   0x009ed4    program   0x000f12
        .code_HTTPPrint.o       code   0x00ade6    program   0x000ede
             .code_util.o       code   0x00bcc4    program   0x000dfe
          .code_Helpers.o       code   0x00cac2    program   0x000d78
         .code_vfprintf.o       code   0x00d83a    program   0x000c22
             .stringtable    romdata   0x00e45c    program   0x000bf7
       .idata_SNMPApp.o_i    romdata   0x00f053    program   0x000000
          .romdata_util.o    romdata   0x00f053    program   0x000000
          .romdata_SNMP.o    romdata   0x00f053    program   0x000000
   .idata_internalADC.o_i    romdata   0x00f053    program   0x000000
          .idata_putc.o_i    romdata   0x00f053    program   0x000000
          .romdata_putc.o    romdata   0x00f053    program   0x000000
           .idata_ISR.o_i    romdata   0x00f053    program   0x000001
        .romdata_devadc.o    romdata   0x00f053    program   0x000000
        .idata_devspi.o_i    romdata   0x00f053    program   0x000000
      .idata_SPIFlash.o_i    romdata   0x00f053    program   0x000000
     .romdata_SPIEEPROM.o    romdata   0x00f053    program   0x000000
         .romdata_MPFS2.o    romdata   0x00f053    program   0x000000
         .idata_MPFS2.o_i    romdata   0x00f053    program   0x000000
    .romdata__user_putc.o    romdata   0x00f053    program   0x000000
      .idata_vfprintf.o_i    romdata   0x00f053    program   0x000000
        .idata___init.o_i    romdata   0x00f053    program   0x000000
       .romdata_adcopen.o    romdata   0x00f053    program   0x000000
       .idata_fxm3232.o_i    romdata   0x00f053    program   0x000000
      .romdata_fxd3232u.o    romdata   0x00f053    program   0x000000
      .idata_fxd1616u.o_i    romdata   0x00f053    program   0x000000
      .romdata_fxd0808u.o    romdata   0x00f053    program   0x000000
      .idata_adcclose.o_i    romdata   0x00f053    program   0x000000
          .romdata_Main.o    romdata   0x00f053    program   0x000000
.romdata_HTTPGetDevInfo.o    romdata   0x00f053    program   0x000000
        .romdata_i2c_c1.o    romdata   0x00f053    program   0x000000
     .romdata_VOLDC_c1 .o    romdata   0x00f053    program   0x000000
.idata_UpConverter_c1.o_i    romdata   0x00f053    program   0x000000
.idata_MainControl_c1.o_i    romdata   0x00f053    program   0x000000
   .idata_SNMPSysInfo.o_i    romdata   0x00f053    program   0x000000
.romdata_SNMPLLiBUCStatus.o    romdata   0x00f053    program   0x000000
  .idata_SNMPLLiBUCOp.o_i    romdata   0x00f053    program   0x000000
.romdata_SNMPLLiBUCDevInfo.o    romdata   0x00f053    program   0x000000
        .idata_c018iz.o_i    romdata   0x00f053    program   0x000000
      .romdata_StackTsk.o    romdata   0x00f053    program   0x000000
           .romdata_UDP.o    romdata   0x00f053    program   0x000000
          .romdata_DHCP.o    romdata   0x00f053    program   0x000000
      .romdata_ETH97J60.o    romdata   0x00f053    program   0x000000
            .romdata_IP.o    romdata   0x00f053    program   0x000000
         .romdata_Delay.o    romdata   0x00f053    program   0x000000
       .romdata_Helpers.o    romdata   0x00f053    program   0x000000
          .idata_UART.o_i    romdata   0x00f053    program   0x000000
          .romdata_UART.o    romdata   0x00f053    program   0x000000
         .code_ETH97J60.o       code   0x00f054    program   0x000bb2
       .romdata_oled_c2.o    romdata   0x00fc06    program   0x000a64
                     PROG       code   0x01066a    program   0x000714
          .code_oled_c1.o       code   0x010d7e    program   0x0006e4
          .code_HTTPApp.o       code   0x011462    program   0x0006e2
   .code_UpConverter_c1.o       code   0x011b44    program   0x00063e
 .code_DownConverter_c1.o       code   0x012182    program   0x0005f4
              .code_ARP.o       code   0x012776    program   0x000494
                   STRING       code   0x012c0a    program   0x00046c
   .code_MainControl_c1.o       code   0x013076    program   0x0003f6
   .code_Initialization.o       code   0x01346c    program   0x000382
        .code_VOLDC_c1 .o       code   0x0137ee    program   0x00034e
             .code_Main.o       code   0x013b3c    program   0x000346
               .code_IP.o       code   0x013e82    program   0x00032e
        .code_SPIEEPROM.o       code   0x0141b0    program   0x0002fa
           .code_i2c_c1.o       code   0x0144aa    program   0x0002f6
      .code_internalADC.o       code   0x0147a0    program   0x000252
         .code_StackTsk.o       code   0x0149f2    program   0x0001e4
           .code_devadc.o       code   0x014bd6    program   0x0001de
              .code_ISR.o       code   0x014db4    program   0x0001b8
                   STDLIB       code   0x014f6c    program   0x000192
             .code_ICMP.o       code   0x0150fe    program   0x00014a
             .code_Tick.o       code   0x015248    program   0x000122
             .code_UART.o       code   0x01536a    program   0x0000e6
          .code_sprintf.o       code   0x015450    program   0x0000ac
               _cinit_scn       code   0x0154fc    program   0x00009e
           .code_devspi.o       code   0x01559a    program   0x000086
             .code_putc.o       code   0x015620    program   0x000084
         .romdata_HTTP2.o    romdata   0x0156a4    program   0x00007e
          .code_fxm3232.o       code   0x015722    program   0x000070
          .code_adcopen.o       code   0x015792    program   0x00006e
         .code_fxd3232u.o       code   0x015800    program   0x000048
         .code_fxd1616u.o       code   0x015848    program   0x00002c
                    CTYPE       code   0x015874    program   0x000024
           .romdata_TCP.o    romdata   0x015898    program   0x000024
             _startup_scn       code   0x0158bc    program   0x000020
              D1KTCYXCODE       code   0x0158dc    program   0x000020
   .code_UART2TCPBridge.o       code   0x0158fc    program   0x00001e
                    STDIO       code   0x01591a    program   0x00001c
         .code_fxd0808u.o       code   0x015936    program   0x00001c
              D10TCYXCODE       code   0x015952    program   0x000016
      .romdata_vfprintf.o    romdata   0x015968    program   0x000011
       .romdata_oled_c1.o    romdata   0x015979    program   0x000010
     .romdata_HTTPPrint.o    romdata   0x015989    program   0x000000
     .idata_HTTPPrint.o_i    romdata   0x015989    program   0x000000
           .idata_UDP.o_i    romdata   0x015989    program   0x000000
         .idata_HTTP2.o_i    romdata   0x015989    program   0x000000
      .romdata_adcclose.o    romdata   0x015989    program   0x000000
         .romdata_DHCPs.o    romdata   0x015989    program   0x000000
      .idata_fxd0808u.o_i    romdata   0x015989    program   0x000000
      .idata_StackTsk.o_i    romdata   0x015989    program   0x000000
      .romdata_fxd1616u.o    romdata   0x015989    program   0x000000
      .idata_fxd3232u.o_i    romdata   0x015989    program   0x000000
      .romdata_MPFSImg2.o    romdata   0x015989    program   0x000000
      .idata_MPFSImg2.o_i    romdata   0x015989    program   0x000000
       .romdata_fxm3232.o    romdata   0x015989    program   0x000000
       .idata_adcopen.o_i    romdata   0x015989    program   0x000000
        .romdata___init.o    romdata   0x015989    program   0x000000
       .idata_sprintf.o_i    romdata   0x015989    program   0x000000
       .romdata_sprintf.o    romdata   0x015989    program   0x000000
.idata_Initialization.o_i    romdata   0x015989    program   0x000000
    .idata__user_putc.o_i    romdata   0x015989    program   0x000000
        .romdata_c018iz.o    romdata   0x015989    program   0x000000
         .idata_DHCPs.o_i    romdata   0x015989    program   0x000000
   .romdata_SNMPSysInfo.o    romdata   0x015989    program   0x000000
      .idata_ETH97J60.o_i    romdata   0x015989    program   0x000000
.idata_SNMPLLiBUCStatus.o_i    romdata   0x015989    program   0x000000
  .romdata_SNMPLLiBUCOp.o    romdata   0x015989    program   0x000000
          .idata_ICMP.o_i    romdata   0x015989    program   0x000000
.idata_SNMPLLiBUCDevInfo.o_i    romdata   0x015989    program   0x000000
       .romdata_SNMPApp.o    romdata   0x015989    program   0x000000
          .romdata_ICMP.o    romdata   0x015989    program   0x000000
       .romdata_HTTPApp.o    romdata   0x015989    program   0x000000
         .idata_Delay.o_i    romdata   0x015989    program   0x000000
     .idata_SPIEEPROM.o_i    romdata   0x015989    program   0x000000
          .idata_SNMP.o_i    romdata   0x015989    program   0x000000
.romdata_UART2TCPBridge.o    romdata   0x015989    program   0x000000
   .romdata_internalADC.o    romdata   0x015989    program   0x000000
       .idata_Helpers.o_i    romdata   0x015989    program   0x000000
          .romdata_Tick.o    romdata   0x015989    program   0x000000
           .romdata_ISR.o    romdata   0x015989    program   0x000000
        .idata_devadc.o_i    romdata   0x015989    program   0x000000
        .romdata_devspi.o    romdata   0x015989    program   0x000000
      .romdata_SPIFlash.o    romdata   0x015989    program   0x000000
       .idata_oled_c1.o_i    romdata   0x015989    program   0x000000
        .idata_i2c_c1.o_i    romdata   0x015989    program   0x000000
           .idata_ARP.o_i    romdata   0x015989    program   0x000001
     .idata_VOLDC_c1 .o_i    romdata   0x015989    program   0x000000
          .idata_DHCP.o_i    romdata   0x015989    program   0x000000
.romdata_UpConverter_c1.o    romdata   0x015989    program   0x000000
           .romdata_ARP.o    romdata   0x015989    program   0x000000
.romdata_MainControl_c1.o    romdata   0x015989    program   0x000000
.romdata_DownConverter_c1.o    romdata   0x015989    program   0x000000
.idata_DownConverter_c1.o_i    romdata   0x015989    program   0x000000
                    .code       code   0x01598a    program   0x00000e
.romdata_Initialization.o    romdata   0x015998    program   0x000006
         .code_adcclose.o       code   0x01599e    program   0x000006
       .code__user_putc.o       code   0x0159a4    program   0x000002
           .code___init.o       code   0x0159a6    program   0x000002
              SEED_DATA_i    romdata   0x0159a8    program   0x000002
          .idata_util.o_i    romdata   0x0159aa    program   0x000004
       .idata_oled_c2.o_i    romdata   0x0159ae    program   0x0000c4
.idata_UART2TCPBridge.o_i    romdata   0x015a72    program   0x000008
          .idata_Tick.o_i    romdata   0x015a7a    program   0x000004
           .idata_TCP.o_i    romdata   0x015a7e    program   0x000002
          .idata_Main.o_i    romdata   0x015a80    program   0x000017
            .idata_IP.o_i    romdata   0x015a97    program   0x000002
.idata_HTTPGetDevInfo.o_i    romdata   0x015a99    program   0x000002
       .idata_HTTPApp.o_i    romdata   0x015a9b    program   0x000002
         .code_SPIFlash.o       code   0x015a9e    program   0x000000
              .code_UDP.o       code   0x015a9e    program   0x000000
             .code_DHCP.o       code   0x015a9e    program   0x000000
           .code_c018iz.o       code   0x015a9e    program   0x000000
.code_SNMPLLiBUCDevInfo.o       code   0x015a9e    program   0x000000
      .code_SNMPSysInfo.o       code   0x015a9e    program   0x000000
            .code_Delay.o       code   0x015a9e    program   0x000000
            .code_DHCPs.o       code   0x015a9e    program   0x000000
         .code_MPFSImg2.o       code   0x015a9e    program   0x000000
 .code_SNMPLLiBUCStatus.o       code   0x015a9e    program   0x000000
             .code_SNMP.o       code   0x015a9e    program   0x000000
          .code_SNMPApp.o       code   0x015a9e    program   0x000000
     .code_SNMPLLiBUCOp.o       code   0x015a9e    program   0x000000
     .config_1fff8_Main.o    romdata   0x01fff8    program   0x000001
     .config_1fffa_Main.o    romdata   0x01fffa    program   0x000001
     .config_1fffd_Main.o    romdata   0x01fffd    program   0x000001
                MATH_DATA      udata   0x000000       data   0x000014
                 .tmpdata      udata   0x000014       data   0x000011
                DELAYDAT1      udata   0x000025       data   0x000001
                     gpr8      udata   0x000060       data   0x000090
          .udata_i2c_c1.o      udata   0x0000f0       data   0x000010
         .idata_oled_c2.o      idata   0x000100       data   0x0000c4
       SYN_QUEUE_RAM_SECT      udata   0x0001c4       data   0x00003c
                    grp10      udata   0x000200       data   0x0000ac
  .udata_UART2TCPBridge.o      udata   0x0002ac       data   0x000052
                SEED_DATA      idata   0x0002fe       data   0x000002
                 TCB_uRAM      udata   0x000300       data   0x0000a8
            .udata_Main.o      udata   0x0003a8       data   0x000057
         .udata_oled_c1.o      udata   0x0003ff       data   0x000001
   HTTP_CONNECTION_STATES      udata   0x000400       data   0x000084
           .udata_MPFS2.o      udata   0x000484       data   0x00006f
         .udata_HTTPApp.o      udata   0x0004f3       data   0x00000d
  .udata_HTTPGetDevInfo.o      udata   0x000500       data   0x00003c
       .udata_SPIEEPROM.o      udata   0x00053c       data   0x000025
            .idata_Main.o      idata   0x000561       data   0x000017
             .udata_ARP.o      udata   0x000578       data   0x000014
        .udata_StackTsk.o      udata   0x00058c       data   0x00000b
                    grp17      udata   0x000597       data   0x00000a
          .udata_c018iz.o      udata   0x0005a1       data   0x00000a
  .idata_UART2TCPBridge.o      idata   0x0005ab       data   0x000008
        .udata_ETH97J60.o      udata   0x0005b3       data   0x000007
.udata_SNMPLLiBUCDevInfo.o      udata   0x0005ba       data   0x000005
  .udata_Initialization.o      udata   0x0005bf       data   0x000004
         .udata_Helpers.o      udata   0x0005c3       data   0x000004
            .idata_util.o      idata   0x0005c7       data   0x000004
            .idata_Tick.o      idata   0x0005cb       data   0x000004
            .udata_util.o      udata   0x0005cf       data   0x000003
              .idata_IP.o      idata   0x0005d2       data   0x000002
  .idata_HTTPGetDevInfo.o      idata   0x0005d4       data   0x000002
         .idata_HTTPApp.o      idata   0x0005d6       data   0x000002
              .udata_IP.o      udata   0x0005d8       data   0x000001
             .idata_ISR.o      idata   0x0005d9       data   0x000001
             .idata_ARP.o      idata   0x0005da       data   0x000001
     .idata_SNMPSysInfo.o      idata   0x0005db       data   0x000000
.udata_DownConverter_c1.o      udata   0x0005db       data   0x000000
.idata_DownConverter_c1.o      idata   0x0005db       data   0x000000
  .udata_MainControl_c1.o      udata   0x0005db       data   0x000000
  .idata_MainControl_c1.o      idata   0x0005db       data   0x000000
  .udata_UpConverter_c1.o      udata   0x0005db       data   0x000000
  .idata_UpConverter_c1.o      idata   0x0005db       data   0x000000
         .idata_oled_c1.o      idata   0x0005db       data   0x000000
       .udata_VOLDC_c1 .o      udata   0x0005db       data   0x000000
          .idata_i2c_c1.o      idata   0x0005db       data   0x000000
       .idata_VOLDC_c1 .o      idata   0x0005db       data   0x000000
      .idata__user_putc.o      idata   0x0005db       data   0x000000
      .udata__user_putc.o      udata   0x0005db       data   0x000000
            .idata_putc.o      idata   0x0005db       data   0x000000
            .udata_putc.o      udata   0x0005db       data   0x000000
        .idata_vfprintf.o      idata   0x0005db       data   0x000000
        .udata_vfprintf.o      udata   0x0005db       data   0x000000
         .idata_sprintf.o      idata   0x0005db       data   0x000000
         .udata_sprintf.o      udata   0x0005db       data   0x000000
          .idata___init.o      idata   0x0005db       data   0x000000
          .udata___init.o      udata   0x0005db       data   0x000000
         .idata_adcopen.o      idata   0x0005db       data   0x000000
         .udata_adcopen.o      udata   0x0005db       data   0x000000
         .idata_fxm3232.o      idata   0x0005db       data   0x000000
         .udata_fxm3232.o      udata   0x0005db       data   0x000000
        .idata_fxd3232u.o      idata   0x0005db       data   0x000000
        .udata_fxd3232u.o      udata   0x0005db       data   0x000000
        .idata_fxd1616u.o      idata   0x0005db       data   0x000000
        .udata_fxd1616u.o      udata   0x0005db       data   0x000000
        .idata_fxd0808u.o      idata   0x0005db       data   0x000000
        .udata_fxd0808u.o      udata   0x0005db       data   0x000000
        .idata_adcclose.o      idata   0x0005db       data   0x000000
        .udata_adcclose.o      udata   0x0005db       data   0x000000
       .idata_HTTPPrint.o      idata   0x0005db       data   0x000000
            .idata_ICMP.o      idata   0x0005db       data   0x000000
  .idata_Initialization.o      idata   0x0005db       data   0x000000
        .udata_MPFSImg2.o      udata   0x0005db       data   0x000000
        .idata_MPFSImg2.o      idata   0x0005db       data   0x000000
        .idata_StackTsk.o      idata   0x0005db       data   0x000000
             .udata_UDP.o      udata   0x0005db       data   0x000000
             .idata_UDP.o      idata   0x0005db       data   0x000000
        .idata_ETH97J60.o      idata   0x0005db       data   0x000000
           .udata_Delay.o      udata   0x0005db       data   0x000000
           .idata_Delay.o      idata   0x0005db       data   0x000000
         .idata_Helpers.o      idata   0x0005db       data   0x000000
            .udata_UART.o      udata   0x0005db       data   0x000000
            .idata_UART.o      idata   0x0005db       data   0x000000
            .udata_DHCP.o      udata   0x0005db       data   0x000000
            .idata_DHCP.o      idata   0x0005db       data   0x000000
           .udata_DHCPs.o      udata   0x0005db       data   0x000000
           .idata_DHCPs.o      idata   0x0005db       data   0x000000
           .udata_HTTP2.o      udata   0x0005db       data   0x000000
           .idata_HTTP2.o      idata   0x0005db       data   0x000000
            .udata_ICMP.o      udata   0x0005db       data   0x000000
           .idata_MPFS2.o      idata   0x0005db       data   0x000000
     .udata_SNMPSysInfo.o      udata   0x0005db       data   0x000000
.idata_SNMPLLiBUCStatus.o      idata   0x0005db       data   0x000000
.udata_SNMPLLiBUCStatus.o      udata   0x0005db       data   0x000000
    .idata_SNMPLLiBUCOp.o      idata   0x0005db       data   0x000000
    .udata_SNMPLLiBUCOp.o      udata   0x0005db       data   0x000000
.idata_SNMPLLiBUCDevInfo.o      idata   0x0005db       data   0x000000
         .idata_SNMPApp.o      idata   0x0005db       data   0x000000
         .udata_SNMPApp.o      udata   0x0005db       data   0x000000
            .idata_SNMP.o      idata   0x0005db       data   0x000000
            .udata_SNMP.o      udata   0x0005db       data   0x000000
     .idata_internalADC.o      idata   0x0005db       data   0x000000
     .udata_internalADC.o      udata   0x0005db       data   0x000000
             .udata_ISR.o      udata   0x0005db       data   0x000000
          .idata_devadc.o      idata   0x0005db       data   0x000000
          .udata_devadc.o      udata   0x0005db       data   0x000000
          .idata_devspi.o      idata   0x0005db       data   0x000000
          .udata_devspi.o      udata   0x0005db       data   0x000000
        .idata_SPIFlash.o      idata   0x0005db       data   0x000000
          .idata_c018iz.o      idata   0x0005db       data   0x000000
        .udata_SPIFlash.o      udata   0x0005db       data   0x000000
       .idata_SPIEEPROM.o      idata   0x0005db       data   0x000000
                   .stack      udata   0x000c00       data   0x000200
         .udata_oled_c2.o      udata   0x000e00       data   0x000047
                     grp5      udata   0x000e47       data   0x000033
            .udata_Tick.o      udata   0x000e7a       data   0x000006
              SFR_BANKED0      udata   0x000e80       data   0x000006
              SFR_BANKED1      udata   0x000e8a       data   0x000001
              SFR_BANKED2      udata   0x000e97       data   0x000003
              SFR_BANKED3      udata   0x000ea0       data   0x000001
              SFR_BANKED4      udata   0x000ea2       data   0x000003
              SFR_BANKED5      udata   0x000ea6       data   0x000002
              SFR_BANKED6      udata   0x000eaa       data   0x000002
              SFR_BANKED7      udata   0x000eb2       data   0x000001
              SFR_BANKED8      udata   0x000eb4       data   0x000001
              SFR_BANKED9      udata   0x000eb6       data   0x000004
             SFR_BANKED10      udata   0x000ec0       data   0x000012
             SFR_BANKED11      udata   0x000ed4       data   0x000002
             SFR_BANKED12      udata   0x000ed8       data   0x000002
             SFR_BANKED13      udata   0x000ee2       data   0x000016
             SFR_BANKED14      udata   0x000efb       data   0x000001
             SFR_BANKED15      udata   0x000efd       data   0x000002
             .udata_TCP.o      udata   0x000f00       data   0x00004f
       .udata_HTTPPrint.o      udata   0x000f4f       data   0x00000f
             .idata_TCP.o      idata   0x000f5e       data   0x000002
            SFR_UNBANKED0      udata   0x000f60       data   0x0000a0



                              Program Memory Usage 
                               Start         End      
                           ---------   ---------      
                            0x000000    0x000005      
                            0x000008    0x00000d      
                            0x000018    0x00001d      
                            0x00002a    0x015a9c      
                            0x01fff8    0x01fff8      
                            0x01fffa    0x01fffa      
                            0x01fffd    0x01fffd      
            88712 out of 131072 program addresses used, program memory utilization is 67%



                              Symbols - Sorted by Name
                     Name    Address   Location    Storage File                     
                ---------  ---------  ---------  --------- ---------                
                ADC_Value   0x0148b8    program     extern D:\git\70M\Drivers\MCU-Internal\internalADC.c
                  AD_init   0x0147a0    program     extern D:\git\70M\Drivers\MCU-Internal\internalADC.c
                  ARPInit   0x01283e    program     extern D:\git\70M\Microchip\TCPIP Stack\ARP.c
            ARPIsResolved   0x012a96    program     extern D:\git\70M\Microchip\TCPIP Stack\ARP.c
               ARPProcess   0x012856    program     extern D:\git\70M\Microchip\TCPIP Stack\ARP.c
                   ARPPut   0x012776    program     static D:\git\70M\Microchip\TCPIP Stack\ARP.c
               ARPResolve   0x0129ec    program     extern D:\git\70M\Microchip\TCPIP Stack\ARP.c
                ASC2toHEX   0x00c314    program     extern D:\git\70M\SysLib\util.c 
             Base64Decode   0x00cf96    program     extern D:\git\70M\Microchip\TCPIP Stack\Helpers.c
                BusyUSART   0x01536a    program     extern D:\git\70M\Microchip\TCPIP Stack\UART.c
               BusyUSART2   0x0153c2    program     extern D:\git\70M\Microchip\TCPIP Stack\UART.c
                    CGRAM   0x015979    program     extern D:\git\70M\Drivers\External-Peripherals\oled_c1.c
     CalcIPBufferChecksum   0x00f594    program     extern D:\git\70M\Microchip\TCPIP Stack\ETH97J60.c
           CalcIPChecksum   0x00d3ce    program     extern D:\git\70M\Microchip\TCPIP Stack\Helpers.c
                CheckBusy   0x010dbe    program     extern D:\git\70M\Drivers\External-Peripherals\oled_c1.c
                 CloseADC   0x01599e    program     extern C:\MCC18\src\pmc_common\ADC\adcclose.c
              CloseSocket   0x001f18    program     static D:\git\70M\Microchip\TCPIP Stack\TCP.c
               CloseUSART   0x015376    program     extern D:\git\70M\Microchip\TCPIP Stack\UART.c
              CloseUSART2   0x0153ce    program     extern D:\git\70M\Microchip\TCPIP Stack\UART.c
                    D10_1   0x015962    program     static C:\Program Files\mcc18\src\traditional\delays\d10tcyx.asm
                     D10x   0x01595a    program     static C:\Program Files\mcc18\src\traditional\delays\d10tcyx.asm
                   D1616S   0x010986    program     static C:\Program Files\mcc18\src\traditional\math\fxd1616s.asm
                D1616SNEG   0x010994    program     static C:\Program Files\mcc18\src\traditional\math\fxd1616s.asm
                 D1616SOK   0x010990    program     static C:\Program Files\mcc18\src\traditional\math\fxd1616s.asm
                  D1616SX   0x0109a6    program     static C:\Program Files\mcc18\src\traditional\math\fxd1616s.asm
                    D1K_1   0x0158e8    program     static C:\Program Files\mcc18\src\traditional\delays\d1ktcyx.asm
                     D1Kx   0x0158e6    program     static C:\Program Files\mcc18\src\traditional\delays\d1ktcyx.asm
                  DA1616S   0x010976    program     static C:\Program Files\mcc18\src\traditional\math\fxd1616s.asm
          DRI__vConfigSPI   0x013b4a    program     static D:\git\70M\Main\Main.c   
    DRI__vEnableGlobalInt   0x013b40    program     static D:\git\70M\Main\Main.c   
        DRI__vHitWatchDog   0x013b3c    program     static D:\git\70M\Main\Main.c   
            DRI_vLCDClear   0x010f52    program     extern D:\git\70M\Drivers\External-Peripherals\oled_c1.c
          DRI_vLCDDisplay   0x010f5e    program     extern D:\git\70M\Drivers\External-Peripherals\oled_c1.c
        DRI_vLCDEntryMode   0x010f5a    program     extern D:\git\70M\Drivers\External-Peripherals\oled_c1.c
       DRI_vLCDReturnhome   0x010f56    program     extern D:\git\70M\Drivers\External-Peripherals\oled_c1.c
          DRI_vPrintCGRAM   0x010efc    program     extern D:\git\70M\Drivers\External-Peripherals\oled_c1.c
             DataRdyUSART   0x015382    program     extern D:\git\70M\Microchip\TCPIP Stack\UART.c
            DataRdyUSART2   0x0153da    program     extern D:\git\70M\Microchip\TCPIP Stack\UART.c
              Delay10TCYx   0x015952    program     extern C:\Program Files\mcc18\src\traditional\delays\d10tcyx.asm
              Delay1KTCYx   0x0158dc    program     extern C:\Program Files\mcc18\src\traditional\delays\d1ktcyx.asm
                  DelayMS   0x00c3d4    program     extern D:\git\70M\SysLib\util.c 
       DisplayCompanyMenu   0x006244    program     extern D:\git\70M\Drivers\External-Peripherals\oled_c2.c
           DisplayIPValue   0x00c650    program     extern D:\git\70M\SysLib\util.c 
                  DoWrite   0x01433c    program     static D:\git\70M\Microchip\TCPIP Stack\SPIEEPROM.c
        DownCvt_vPrintALC   0x01221c    program     extern D:\git\70M\Devices\DownConverter_c1.c
       DownCvt_vPrintAttn   0x012202    program     extern D:\git\70M\Devices\DownConverter_c1.c
       DownCvt_vPrintFreq   0x012182    program     extern D:\git\70M\Devices\DownConverter_c1.c
         DownCvt_vPrintLo   0x0121d0    program     extern D:\git\70M\Devices\DownConverter_c1.c
       DownCvt_vPrintMute   0x012236    program     extern D:\git\70M\Devices\DownConverter_c1.c
      DownCvt_vPrintPower   0x01219c    program     extern D:\git\70M\Devices\DownConverter_c1.c
      DownCvt_vPrintStPwr   0x0121b6    program     extern D:\git\70M\Devices\DownConverter_c1.c
         DownCvt_vSendI2C   0x01227a    program     extern D:\git\70M\Devices\DownConverter_c1.c
          DownCvt_vSetALC   0x0125ee    program     extern D:\git\70M\Devices\DownConverter_c1.c
         DownCvt_vSetAttn   0x0123be    program     extern D:\git\70M\Devices\DownConverter_c1.c
         DownCvt_vSetFreq   0x01228c    program     extern D:\git\70M\Devices\DownConverter_c1.c
         DownCvt_vSetMute   0x012636    program     extern D:\git\70M\Devices\DownConverter_c1.c
        DownCvt_vSetPower   0x0124ae    program     extern D:\git\70M\Devices\DownConverter_c1.c
        DownCvt_vSetStPwr   0x0124b0    program     extern D:\git\70M\Devices\DownConverter_c1.c
                 FLO0832S   0x01066e    program     extern C:\Program Files\mcc18\src\traditional\math\cast08FP.asm
                 FLO0832U   0x01066a    program     extern C:\Program Files\mcc18\src\traditional\math\cast08FP.asm
                 FLO1632S   0x010690    program     extern C:\Program Files\mcc18\src\traditional\math\cast16FP.asm
                 FLO1632U   0x01068c    program     extern C:\Program Files\mcc18\src\traditional\math\cast16FP.asm
                    FPA32   0x0106b8    program     extern C:\Program Files\mcc18\src\traditional\math\addFP.asm
                    FPD32   0x0107e4    program     extern C:\Program Files\mcc18\src\traditional\math\divFP.asm
                    FPM32   0x01088a    program     extern C:\Program Files\mcc18\src\traditional\math\mulFP.asm
                    FPS32   0x0106b6    program     extern C:\Program Files\mcc18\src\traditional\math\addFP.asm
                 FXD0808U   0x015936    program     extern C:\Program Files\mcc18\src\traditional\math\fxd0808u.c
                 FXD1616S   0x010964    program     extern C:\Program Files\mcc18\src\traditional\math\fxd1616s.asm
                 FXD1616U   0x015848    program     extern C:\Program Files\mcc18\src\traditional\math\fxd1616u.c
                 FXD3232U   0x015800    program     extern C:\Program Files\mcc18\src\traditional\math\fxd3232u.c
                 FXM1616S   0x0109b0    program     extern C:\Program Files\mcc18\src\traditional\math\fxm1616s.asm
                 FXM1616U   0x010a0a    program     extern C:\Program Files\mcc18\src\traditional\math\fxm1616u.asm
                 FXM2424U   0x010a46    program     extern C:\Program Files\mcc18\src\traditional\math\fxm2424u.asm
                  FXM3232   0x015722    program     extern C:\Program Files\mcc18\src\traditional\math\fxm3232.c
       FindMatchingSocket   0x001bfe    program     static D:\git\70M\Microchip\TCPIP Stack\TCP.c
        FormatNetBIOSName   0x00d57a    program     extern D:\git\70M\Microchip\TCPIP Stack\Helpers.c
      GenerateRandomDWORD   0x00cac2    program     extern D:\git\70M\Microchip\TCPIP Stack\Helpers.c
   GetCurrentFromHexValue   0x014c7c    program     extern D:\git\70M\Drivers\External-Peripherals\devadc.c
           GetDWORDString   0x00afee    program     extern D:\git\70M\App\WebUI\HTTPPrint.c
                GetOneADC   0x01499c    program     extern D:\git\70M\Drivers\MCU-Internal\internalADC.c
             GetOneCHADC0   0x014bd6    program     extern D:\git\70M\Drivers\External-Peripherals\devadc.c
       GetOneCHADC012Bits   0x014c0c    program     extern D:\git\70M\Drivers\External-Peripherals\devadc.c
             GetOneCHADC1   0x014c2a    program     extern D:\git\70M\Drivers\External-Peripherals\devadc.c
       GetOneCHADC112Bits   0x014c60    program     extern D:\git\70M\Drivers\External-Peripherals\devadc.c
                 GetPower   0x00af06    program     extern D:\git\70M\App\WebUI\HTTPPrint.c
              GetTickCopy   0x015258    program     static D:\git\70M\Microchip\TCPIP Stack\Tick.c
            GetWORDString   0x00af60    program     extern D:\git\70M\App\WebUI\HTTPPrint.c
                HEXto2ASC   0x00c38c    program     extern D:\git\70M\SysLib\util.c 
            HTTPCheckAuth   0x0114a4    program     extern D:\git\70M\App\WebUI\HTTPApp.c
   HTTPExe_get_deviceinfo   0x009252    program     extern D:\git\70M\App\WebUI\HTTPGetDevInfo.c
           HTTPExecuteGet   0x0114ec    program     extern D:\git\70M\App\WebUI\HTTPApp.c
          HTTPExecutePost   0x0114f0    program     extern D:\git\70M\App\WebUI\HTTPApp.c
               HTTPGetArg   0x0054be    program     extern D:\git\70M\Microchip\TCPIP Stack\HTTP2.c
            HTTPGetROMArg   0x005504    program     extern D:\git\70M\Microchip\TCPIP Stack\HTTP2.c
  HTTPGet__boDeviceConfig   0x009228    program     static D:\git\70M\App\WebUI\HTTPGetDevInfo.c
    HTTPGet__boInfoConfig   0x00846a    program     static D:\git\70M\App\WebUI\HTTPGetDevInfo.c
 HTTPGet__boNetworkConfig   0x0084b0    program     static D:\git\70M\App\WebUI\HTTPGetDevInfo.c
      HTTPGet__boSetOnOff   0x00853e    program     static D:\git\70M\App\WebUI\HTTPGetDevInfo.c
   HTTPGet__u8ClearBUCIAm   0x0091c4    program     static D:\git\70M\App\WebUI\HTTPGetDevInfo.c
   HTTPGet__u8ClearLNBIAm   0x0091f6    program     static D:\git\70M\App\WebUI\HTTPGetDevInfo.c
     HTTPGet__u8SetBUCREF   0x0090fc    program     static D:\git\70M\App\WebUI\HTTPGetDevInfo.c
 HTTPGet__u8SetDownCvtALC   0x008e2c    program     static D:\git\70M\App\WebUI\HTTPGetDevInfo.c
HTTPGet__u8SetDownCvtAttn   0x0088e2    program     static D:\git\70M\App\WebUI\HTTPGetDevInfo.c
HTTPGet__u8SetDownCvtMute   0x008f84    program     static D:\git\70M\App\WebUI\HTTPGetDevInfo.c
HTTPGet__u8SetDownCvtPower   0x008bb2    program     static D:\git\70M\App\WebUI\HTTPGetDevInfo.c
HTTPGet__u8SetDownCvtRFFreq   0x0086d6    program     static D:\git\70M\App\WebUI\HTTPGetDevInfo.c
HTTPGet__u8SetDownCvtSetPower   0x008c84    program     static D:\git\70M\App\WebUI\HTTPGetDevInfo.c
     HTTPGet__u8SetLNBREF   0x009162    program     static D:\git\70M\App\WebUI\HTTPGetDevInfo.c
   HTTPGet__u8SetUpCvtALC   0x008d8c    program     static D:\git\70M\App\WebUI\HTTPGetDevInfo.c
  HTTPGet__u8SetUpCvtAttn   0x0087ec    program     static D:\git\70M\App\WebUI\HTTPGetDevInfo.c
  HTTPGet__u8SetUpCvtMute   0x008ece    program     static D:\git\70M\App\WebUI\HTTPGetDevInfo.c
 HTTPGet__u8SetUpCvtPower   0x0089d8    program     static D:\git\70M\App\WebUI\HTTPGetDevInfo.c
HTTPGet__u8SetUpCvtRFFreq   0x008586    program     static D:\git\70M\App\WebUI\HTTPGetDevInfo.c
HTTPGet__u8SetUpCvtSetPower   0x008aaa    program     static D:\git\70M\App\WebUI\HTTPGetDevInfo.c
   HTTPGet__u8SetVOL18VDC   0x00902e    program     static D:\git\70M\App\WebUI\HTTPGetDevInfo.c
   HTTPGet__u8SetVOL24VDC   0x009096    program     static D:\git\70M\App\WebUI\HTTPGetDevInfo.c
HTTPHeaderParseAuthorization   0x0051d0    program     static D:\git\70M\Microchip\TCPIP Stack\HTTP2.c
HTTPHeaderParseContentLength   0x0052fc    program     static D:\git\70M\Microchip\TCPIP Stack\HTTP2.c
    HTTPHeaderParseLookup   0x0051b4    program     static D:\git\70M\Microchip\TCPIP Stack\HTTP2.c
              HTTPIncFile   0x0059c2    program     extern D:\git\70M\Microchip\TCPIP Stack\HTTP2.c
                 HTTPInit   0x00459e    program     extern D:\git\70M\Microchip\TCPIP Stack\HTTP2.c
             HTTPLoadConn   0x004682    program     static D:\git\70M\Microchip\TCPIP Stack\HTTP2.c
           HTTPMPFSUpload   0x005792    program     static D:\git\70M\Microchip\TCPIP Stack\HTTP2.c
            HTTPNeedsAuth   0x011462    program     extern D:\git\70M\App\WebUI\HTTPApp.c
           HTTPPostConfig   0x011606    program     static D:\git\70M\App\WebUI\HTTPApp.c
              HTTPPostlut   0x01156e    program     static D:\git\70M\App\WebUI\HTTPApp.c
                HTTPPrint   0x003e0a    program     extern D:\git\70M\Microchip\Include\TCPIP Stack\HTTPPrint.h
              HTTPPrintIP   0x00ae26    program     extern D:\git\70M\App\WebUI\HTTPPrint.c
               HTTPPrint_   0x00458c    program     extern D:\git\70M\Microchip\Include\TCPIP Stack\HTTPPrint.h
        HTTPPrint_18Vctrl   0x00b3ec    program     extern D:\git\70M\App\WebUI\HTTPPrint.c
        HTTPPrint_24Vctrl   0x00b3de    program     extern D:\git\70M\App\WebUI\HTTPPrint.c
           HTTPPrint_ALCa   0x00b32c    program     extern D:\git\70M\App\WebUI\HTTPPrint.c
   HTTPPrint_ALCaSelected   0x00b420    program     extern D:\git\70M\App\WebUI\HTTPPrint.c
           HTTPPrint_ALCb   0x00b3b2    program     extern D:\git\70M\App\WebUI\HTTPPrint.c
   HTTPPrint_ALCbSelected   0x00b450    program     extern D:\git\70M\App\WebUI\HTTPPrint.c
     HTTPPrint_BUCCurrent   0x00b51a    program     extern D:\git\70M\App\WebUI\HTTPPrint.c
        HTTPPrint_BUCIAlm   0x00b6d6    program     extern D:\git\70M\App\WebUI\HTTPPrint.c
         HTTPPrint_BUCREF   0x00b4e0    program     extern D:\git\70M\App\WebUI\HTTPPrint.c
 HTTPPrint_BUCREFSelected   0x00b4c8    program     extern D:\git\70M\App\WebUI\HTTPPrint.c
   HTTPPrint_ClearBUCIAlm   0x00b712    program     extern D:\git\70M\App\WebUI\HTTPPrint.c
   HTTPPrint_ClearLNBIAlm   0x00b718    program     extern D:\git\70M\App\WebUI\HTTPPrint.c
  HTTPPrint_DC18VSelected   0x00b480    program     extern D:\git\70M\App\WebUI\HTTPPrint.c
  HTTPPrint_DC24VSelected   0x00b498    program     extern D:\git\70M\App\WebUI\HTTPPrint.c
    HTTPPrint_DeviceModel   0x00ade6    program     extern D:\git\70M\App\WebUI\HTTPPrint.c
   HTTPPrint_DeviceSerial   0x00adf2    program     extern D:\git\70M\App\WebUI\HTTPPrint.c
    HTTPPrint_Devicefwver   0x00aee6    program     extern D:\git\70M\App\WebUI\HTTPPrint.c
         HTTPPrint_EXTREF   0x00b4fc    program     extern D:\git\70M\App\WebUI\HTTPPrint.c
     HTTPPrint_LNBCurrent   0x00b544    program     extern D:\git\70M\App\WebUI\HTTPPrint.c
        HTTPPrint_LNBIAlm   0x00b6f4    program     extern D:\git\70M\App\WebUI\HTTPPrint.c
         HTTPPrint_LNBREF   0x00b4ee    program     extern D:\git\70M\App\WebUI\HTTPPrint.c
 HTTPPrint_LNBREFSelected   0x00b4b0    program     extern D:\git\70M\App\WebUI\HTTPPrint.c
            HTTPPrint_MIP   0x00ae82    program     extern D:\git\70M\App\WebUI\HTTPPrint.c
          HTTPPrint_Mutea   0x00b33a    program     extern D:\git\70M\App\WebUI\HTTPPrint.c
  HTTPPrint_MuteaSelected   0x00b438    program     extern D:\git\70M\App\WebUI\HTTPPrint.c
          HTTPPrint_Muteb   0x00b3c0    program     extern D:\git\70M\App\WebUI\HTTPPrint.c
  HTTPPrint_MutebSelected   0x00b468    program     extern D:\git\70M\App\WebUI\HTTPPrint.c
HTTPPrint_config_dhcpchecked   0x00b3fa    program     extern D:\git\70M\App\WebUI\HTTPPrint.c
      HTTPPrint_config_gw   0x00aed2    program     extern D:\git\70M\App\WebUI\HTTPPrint.c
      HTTPPrint_config_ip   0x00aeb6    program     extern D:\git\70M\App\WebUI\HTTPPrint.c
     HTTPPrint_config_mac   0x00b81a    program     extern D:\git\70M\App\WebUI\HTTPPrint.c
  HTTPPrint_config_subnet   0x00aebe    program     extern D:\git\70M\App\WebUI\HTTPPrint.c
HTTPPrint_converteraalarm   0x00b6aa    program     extern D:\git\70M\App\WebUI\HTTPPrint.c
HTTPPrint_converteraatten   0x00b25a    program     extern D:\git\70M\App\WebUI\HTTPPrint.c
   HTTPPrint_converteralo   0x00b2cc    program     extern D:\git\70M\App\WebUI\HTTPPrint.c
HTTPPrint_converterarffreq   0x00b1ea    program     extern D:\git\70M\App\WebUI\HTTPPrint.c
HTTPPrint_converterbalarm   0x00b6c0    program     extern D:\git\70M\App\WebUI\HTTPPrint.c
HTTPPrint_converterbatten   0x00b292    program     extern D:\git\70M\App\WebUI\HTTPPrint.c
   HTTPPrint_converterblo   0x00b358    program     extern D:\git\70M\App\WebUI\HTTPPrint.c
HTTPPrint_converterbrffreq   0x00b222    program     extern D:\git\70M\App\WebUI\HTTPPrint.c
    HTTPPrint_dhcp_status   0x00adfe    program     extern D:\git\70M\App\WebUI\HTTPPrint.c
            HTTPPrint_led   0x00b71e    program     extern D:\git\70M\App\WebUI\HTTPPrint.c
            HTTPPrint_maf   0x00b7e6    program     extern D:\git\70M\App\WebUI\HTTPPrint.c
            HTTPPrint_mas   0x00b800    program     extern D:\git\70M\App\WebUI\HTTPPrint.c
            HTTPPrint_ned   0x00b782    program     extern D:\git\70M\App\WebUI\HTTPPrint.c
   HTTPPrint_outputpowera   0x00b2ec    program     extern D:\git\70M\App\WebUI\HTTPPrint.c
   HTTPPrint_outputpowerb   0x00b376    program     extern D:\git\70M\App\WebUI\HTTPPrint.c
      HTTPPrint_rdi2cdata   0x00b56e    program     extern D:\git\70M\App\WebUI\HTTPPrint.c
      HTTPPrint_read_comm   0x00b876    program     extern D:\git\70M\App\WebUI\HTTPPrint.c
        HTTPPrint_setpass   0x00b60e    program     extern D:\git\70M\App\WebUI\HTTPPrint.c
   HTTPPrint_setpasscolor   0x00b5ce    program     extern D:\git\70M\App\WebUI\HTTPPrint.c
      HTTPPrint_setpowera   0x00b30c    program     extern D:\git\70M\App\WebUI\HTTPPrint.c
      HTTPPrint_setpowerb   0x00b394    program     extern D:\git\70M\App\WebUI\HTTPPrint.c
      HTTPPrint_static_ip   0x00ae96    program     extern D:\git\70M\App\WebUI\HTTPPrint.c
         HTTPPrint_swmode   0x00b2ca    program     extern D:\git\70M\App\WebUI\HTTPPrint.c
      HTTPPrint_wri2cdata   0x00b59e    program     extern D:\git\70M\App\WebUI\HTTPPrint.c
     HTTPPrint_write_comm   0x00b87a    program     extern D:\git\70M\App\WebUI\HTTPPrint.c
              HTTPProcess   0x0046ca    program     static D:\git\70M\Microchip\TCPIP Stack\HTTP2.c
         HTTPReadPostName   0x005566    program     extern D:\git\70M\Microchip\TCPIP Stack\HTTP2.c
        HTTPReadPostValue   0x005596    program     extern D:\git\70M\Microchip\TCPIP Stack\HTTP2.c
               HTTPReadTo   0x005606    program     static D:\git\70M\Microchip\TCPIP Stack\HTTP2.c
       HTTPRequestHeaders   0x015719    program     static D:\git\70M\Microchip\TCPIP Stack\HTTP2.c
      HTTPResponseHeaders   0x0156ef    program     static D:\git\70M\Microchip\TCPIP Stack\HTTP2.c
             HTTPSendFile   0x00503c    program     static D:\git\70M\Microchip\TCPIP Stack\HTTP2.c
               HTTPServer   0x004600    program     extern D:\git\70M\Microchip\TCPIP Stack\HTTP2.c
            HTTPURLDecode   0x005384    program     extern D:\git\70M\Microchip\TCPIP Stack\HTTP2.c
                HTTP_CRLF   0x0156a4    program     static D:\git\70M\Microchip\TCPIP Stack\HTTP2.c
   HTTP_vClearWebPassword   0x013c70    program     static D:\git\70M\Main\Main.c   
             HandleTCPSeg   0x001f96    program     static D:\git\70M\Microchip\TCPIP Stack\TCP.c
                  Hex2Int   0x00c404    program     extern D:\git\70M\SysLib\util.c 
                  HighISR   0x014e9e    program     extern D:\git\70M\Drivers\MCU-Internal\ISR.c
               HighVector   0x000008    program     extern D:\git\70M\Drivers\MCU-Internal\ISR.c
                 I2C_Read   0x0144d6    program     extern D:\git\70M\Drivers\MCU-Internal\i2c_c1.c
                 I2C_Send   0x0144aa    program     extern D:\git\70M\Drivers\MCU-Internal\i2c_c1.c
              ICMPProcess   0x0150fe    program     extern D:\git\70M\Microchip\TCPIP Stack\ICMP.c
                  INT3216   0x010ad8    program     extern C:\Program Files\mcc18\src\traditional\math\castFP16.asm
                  INT3232   0x010b36    program     extern C:\Program Files\mcc18\src\traditional\math\castFP32.asm
              IPGetHeader   0x013e82    program     extern D:\git\70M\Microchip\TCPIP Stack\IP.c
              IPPutHeader   0x013fbe    program     extern D:\git\70M\Microchip\TCPIP Stack\IP.c
            IPSetRxBuffer   0x0140c4    program     extern D:\git\70M\Microchip\TCPIP Stack\IP.c
            InitAppConfig   0x0135ac    program     extern D:\git\70M\Bootstrap\Initialization.c
                 InitData   0x01346c    program     extern D:\git\70M\Bootstrap\Initialization.c
            InitalizeMenu   0x006288    program     extern D:\git\70M\Drivers\External-Peripherals\oled_c2.c
              Initial_LCD   0x010f88    program     extern D:\git\70M\Drivers\External-Peripherals\oled_c1.c
          InitializeBoard   0x013564    program     extern D:\git\70M\Bootstrap\Initialization.c
                  Int2Hex   0x00c446    program     extern D:\git\70M\SysLib\util.c 
            KeyProcessing   0x006a6a    program     extern D:\git\70M\Drivers\External-Peripherals\oled_c2.c
LCDSub_vLeftMoveCursorAttn   0x006736    program     extern D:\git\70M\Drivers\External-Peripherals\oled_c2.c
LCDSub_vLeftMoveCursorFreq   0x00671c    program     extern D:\git\70M\Drivers\External-Peripherals\oled_c2.c
 LCDSub_vLeftMoveCursorIP   0x00676a    program     extern D:\git\70M\Drivers\External-Peripherals\oled_c2.c
LCDSub_vLeftMoveCursorPower   0x006750    program     extern D:\git\70M\Drivers\External-Peripherals\oled_c2.c
LCDSub_vRightMoveCursorAttn   0x00685e    program     extern D:\git\70M\Drivers\External-Peripherals\oled_c2.c
LCDSub_vRightMoveCursorFreq   0x006842    program     extern D:\git\70M\Drivers\External-Peripherals\oled_c2.c
LCDSub_vRightMoveCursorIP   0x006894    program     extern D:\git\70M\Drivers\External-Peripherals\oled_c2.c
LCDSub_vRightMoveCursorPower   0x006878    program     extern D:\git\70M\Drivers\External-Peripherals\oled_c2.c
           LCDWriteString   0x010ec4    program     extern D:\git\70M\Drivers\External-Peripherals\oled_c1.c
LCD__u8CancelKeyExitEditMode   0x006a46    program     static D:\git\70M\Drivers\External-Peripherals\oled_c2.c
  LCD__u8CancelKeyProcess   0x006a5a    program     static D:\git\70M\Drivers\External-Peripherals\oled_c2.c
LCD__u8CancelKeyToParentMenu   0x006a56    program     static D:\git\70M\Drivers\External-Peripherals\oled_c2.c
       LCD__u8DownKeyEdit   0x00660e    program     static D:\git\70M\Drivers\External-Peripherals\oled_c2.c
    LCD__u8DownKeyProcess   0x00670e    program     static D:\git\70M\Drivers\External-Peripherals\oled_c2.c
LCD__u8DownkeyToChildMenu   0x00670a    program     static D:\git\70M\Drivers\External-Peripherals\oled_c2.c
   LCD__u8EnterKeyProcess   0x006a26    program     static D:\git\70M\Drivers\External-Peripherals\oled_c2.c
  LCD__u8EnterKeySetValue   0x00696c    program     static D:\git\70M\Drivers\External-Peripherals\oled_c2.c
LCD__u8EnterKeyToChildMenu   0x006a04    program     static D:\git\70M\Drivers\External-Peripherals\oled_c2.c
LCD__u8EnterKeyToEditMode   0x006a08    program     static D:\git\70M\Drivers\External-Peripherals\oled_c2.c
          LCD__u8GetOnOff   0x0063b6    program     extern D:\git\70M\Drivers\External-Peripherals\oled_c2.c
 LCD__u8LeftKeyMoveCursor   0x00678a    program     static D:\git\70M\Drivers\External-Peripherals\oled_c2.c
    LCD__u8LeftKeyProcess   0x006834    program     static D:\git\70M\Drivers\External-Peripherals\oled_c2.c
 LCD__u8LeftKeyToLeftMenu   0x00682a    program     static D:\git\70M\Drivers\External-Peripherals\oled_c2.c
LCD__u8RightKeyMoveCursor   0x0068b4    program     static D:\git\70M\Drivers\External-Peripherals\oled_c2.c
   LCD__u8RightKeyProcess   0x00695e    program     static D:\git\70M\Drivers\External-Peripherals\oled_c2.c
LCD__u8RightKeyToRightMenu   0x006954    program     static D:\git\70M\Drivers\External-Peripherals\oled_c2.c
       LCD__u8ToChildMenu   0x0064ea    program     static D:\git\70M\Drivers\External-Peripherals\oled_c2.c
      LCD__u8ToParentMenu   0x0064e0    program     static D:\git\70M\Drivers\External-Peripherals\oled_c2.c
      LCD__u8UpKeyProcess   0x006600    program     static D:\git\70M\Drivers\External-Peripherals\oled_c2.c
    LCD__u8UpdateToModule   0x0063ca    program     extern D:\git\70M\Drivers\External-Peripherals\oled_c2.c
         LCD__u8UpkeyEdit   0x0064f4    program     extern D:\git\70M\Drivers\External-Peripherals\oled_c2.c
 LCD__u8UpkeyToParentMenu   0x0065fc    program     static D:\git\70M\Drivers\External-Peripherals\oled_c2.c
LCD_u8UpdateDisplayContent   0x006438    program     extern D:\git\70M\Drivers\External-Peripherals\oled_c2.c
                   LowISR   0x014db4    program     extern D:\git\70M\Drivers\MCU-Internal\ISR.c
                LowVector   0x000018    program     extern D:\git\70M\Drivers\MCU-Internal\ISR.c
        MACCalcRxChecksum   0x00f548    program     extern D:\git\70M\Microchip\TCPIP Stack\ETH97J60.c
             MACDiscardRx   0x00f1a6    program     extern D:\git\70M\Microchip\TCPIP Stack\ETH97J60.c
                 MACFlush   0x00f4dc    program     extern D:\git\70M\Microchip\TCPIP Stack\ETH97J60.c
                   MACGet   0x00f85e    program     extern D:\git\70M\Microchip\TCPIP Stack\ETH97J60.c
              MACGetArray   0x00f862    program     extern D:\git\70M\Microchip\TCPIP Stack\ETH97J60.c
         MACGetFreeRxSize   0x00f206    program     extern D:\git\70M\Microchip\TCPIP Stack\ETH97J60.c
             MACGetHeader   0x00f2ce    program     extern D:\git\70M\Microchip\TCPIP Stack\ETH97J60.c
                  MACInit   0x00f054    program     extern D:\git\70M\Microchip\TCPIP Stack\ETH97J60.c
              MACIsLinked   0x00f16a    program     extern D:\git\70M\Microchip\TCPIP Stack\ETH97J60.c
         MACIsMemCopyDone   0x00f852    program     extern D:\git\70M\Microchip\TCPIP Stack\ETH97J60.c
             MACIsTxReady   0x00f17e    program     extern D:\git\70M\Microchip\TCPIP Stack\ETH97J60.c
          MACMemCopyAsync   0x00f704    program     extern D:\git\70M\Microchip\TCPIP Stack\ETH97J60.c
             MACPowerDown   0x00fa42    program     extern D:\git\70M\Microchip\TCPIP Stack\ETH97J60.c
               MACPowerUp   0x00fa54    program     extern D:\git\70M\Microchip\TCPIP Stack\ETH97J60.c
                   MACPut   0x00f8bc    program     extern D:\git\70M\Microchip\TCPIP Stack\ETH97J60.c
              MACPutArray   0x00f8e2    program     extern D:\git\70M\Microchip\TCPIP Stack\ETH97J60.c
             MACPutHeader   0x00f478    program     extern D:\git\70M\Microchip\TCPIP Stack\ETH97J60.c
           MACPutROMArray   0x00f932    program     extern D:\git\70M\Microchip\TCPIP Stack\ETH97J60.c
            MACSetReadPtr   0x00f530    program     extern D:\git\70M\Microchip\TCPIP Stack\ETH97J60.c
        MACSetReadPtrInRx   0x00f504    program     extern D:\git\70M\Microchip\TCPIP Stack\ETH97J60.c
           MACSetWritePtr   0x00f51c    program     extern D:\git\70M\Microchip\TCPIP Stack\ETH97J60.c
                MPFSClose   0x00a21a    program     extern D:\git\70M\Microchip\TCPIP Stack\MPFS2.c
               MPFSFormat   0x00a4c6    program     extern D:\git\70M\Microchip\TCPIP Stack\MPFS2.c
                  MPFSGet   0x00a232    program     extern D:\git\70M\Microchip\TCPIP Stack\MPFS2.c
             MPFSGetArray   0x00a2d8    program     extern D:\git\70M\Microchip\TCPIP Stack\MPFS2.c
          MPFSGetBytesRem   0x00a738    program     extern D:\git\70M\Microchip\TCPIP Stack\MPFS2.c
           MPFSGetEndAddr   0x00a79e    program     extern D:\git\70M\Microchip\TCPIP Stack\MPFS2.c
          MPFSGetFilename   0x00a7ec    program     extern D:\git\70M\Microchip\TCPIP Stack\MPFS2.c
             MPFSGetFlags   0x00a6da    program     extern D:\git\70M\Microchip\TCPIP Stack\MPFS2.c
                MPFSGetID   0x00a8a4    program     extern D:\git\70M\Microchip\TCPIP Stack\MPFS2.c
              MPFSGetLong   0x00a368    program     extern D:\git\70M\Microchip\TCPIP Stack\MPFS2.c
         MPFSGetMicrotime   0x00a6a8    program     extern D:\git\70M\Microchip\TCPIP Stack\MPFS2.c
          MPFSGetPosition   0x00a872    program     extern D:\git\70M\Microchip\TCPIP Stack\MPFS2.c
              MPFSGetSize   0x00a706    program     extern D:\git\70M\Microchip\TCPIP Stack\MPFS2.c
         MPFSGetStartAddr   0x00a762    program     extern D:\git\70M\Microchip\TCPIP Stack\MPFS2.c
         MPFSGetTimestamp   0x00a676    program     extern D:\git\70M\Microchip\TCPIP Stack\MPFS2.c
                 MPFSInit   0x009ed4    program     extern D:\git\70M\Microchip\TCPIP Stack\MPFS2.c
                 MPFSOpen   0x009f0a    program     extern D:\git\70M\Microchip\TCPIP Stack\MPFS2.c
               MPFSOpenID   0x00a19c    program     extern D:\git\70M\Microchip\TCPIP Stack\MPFS2.c
              MPFSOpenROM   0x00a058    program     extern D:\git\70M\Microchip\TCPIP Stack\MPFS2.c
             MPFSPutArray   0x00a548    program     extern D:\git\70M\Microchip\TCPIP Stack\MPFS2.c
               MPFSPutEnd   0x00a5ce    program     extern D:\git\70M\Microchip\TCPIP Stack\MPFS2.c
                 MPFSSeek   0x00a3a8    program     extern D:\git\70M\Microchip\TCPIP Stack\MPFS2.c
            Main_vLEDInit   0x01335c    program     extern D:\git\70M\Devices\MainControl_c1.c
              Main_vLEDLO   0x013320    program     extern D:\git\70M\Devices\MainControl_c1.c
              Main_vLEDRX   0x013348    program     extern D:\git\70M\Devices\MainControl_c1.c
              Main_vLEDTX   0x013334    program     extern D:\git\70M\Devices\MainControl_c1.c
    Main_vPrintDeviceInfo   0x013186    program     extern D:\git\70M\Devices\MainControl_c1.c
 Main_vPrintDownConverter   0x0130dc    program     extern D:\git\70M\Devices\MainControl_c1.c
            Main_vPrintIP   0x013276    program     extern D:\git\70M\Devices\MainControl_c1.c
       Main_vPrintModelNo   0x013290    program     extern D:\git\70M\Devices\MainControl_c1.c
      Main_vPrintSerialNo   0x0132a0    program     extern D:\git\70M\Devices\MainControl_c1.c
   Main_vPrintUpConverter   0x013076    program     extern D:\git\70M\Devices\MainControl_c1.c
       Main_vPrintVolCtrl   0x013142    program     extern D:\git\70M\Devices\MainControl_c1.c
              Main_vSetIP   0x0132ba    program     extern D:\git\70M\Devices\MainControl_c1.c
    OLED_vEnableInterrupt   0x010da8    program     extern D:\git\70M\Drivers\External-Peripherals\oled_c1.c
              OLED_vSetIO   0x010d90    program     extern D:\git\70M\Drivers\External-Peripherals\oled_c1.c
           OLED_vSetKepad   0x010d7e    program     extern D:\git\70M\Drivers\External-Peripherals\oled_c1.c
                  OpenADC   0x015792    program     extern C:\MCC18\src\pmc_common\ADC\adcopen.c
            PrintBlinkLCD   0x01127e    program     extern D:\git\70M\Drivers\External-Peripherals\oled_c1.c
       PrintBlinkMenuText   0x011136    program     extern D:\git\70M\Drivers\External-Peripherals\oled_c1.c
          PrintCompanyLCD   0x010fa8    program     extern D:\git\70M\Drivers\External-Peripherals\oled_c1.c
        PrintEditPosition   0x01120c    program     extern D:\git\70M\Drivers\External-Peripherals\oled_c1.c
        PrintLCDWholePage   0x010ff4    program     extern D:\git\70M\Drivers\External-Peripherals\oled_c1.c
            PrintNewValue   0x0111e2    program     extern D:\git\70M\Drivers\External-Peripherals\oled_c1.c
     ROMStringToIPAddress   0x00ceb4    program     extern D:\git\70M\Microchip\TCPIP Stack\Helpers.c
                 ReadData   0x010e5c    program     extern D:\git\70M\Drivers\External-Peripherals\oled_c1.c
               ReadPHYReg   0x00f994    program     extern D:\git\70M\Microchip\TCPIP Stack\ETH97J60.c
                ReadUSART   0x015394    program     extern D:\git\70M\Microchip\TCPIP Stack\UART.c
               ReadUSART2   0x0153be    program     extern D:\git\70M\Microchip\TCPIP Stack\UART.c
            ReadWriteSPI2   0x0155b2    program     extern D:\git\70M\Drivers\MCU-Internal\devspi.c
                 Read_ADC   0x0147d2    program     extern D:\git\70M\Drivers\MCU-Internal\internalADC.c
                  SPIInit   0x01559a    program     extern D:\git\70M\Drivers\MCU-Internal\devspi.c
          SYS__u8InitData   0x013cc6    program     static D:\git\70M\Main\Main.c   
SYS__u8UpdateDownConverter   0x007158    program     static D:\git\70M\Drivers\External-Peripherals\oled_c2.c
          SYS__u8UpdateLO   0x007dac    program     static D:\git\70M\Drivers\External-Peripherals\oled_c2.c
 SYS__u8UpdateUpConverter   0x006aa0    program     static D:\git\70M\Drivers\External-Peripherals\oled_c2.c
         SYS__u8UpdateVOL   0x00779c    program     static D:\git\70M\Drivers\External-Peripherals\oled_c2.c
       SYS__vLcdBlinkTask   0x013ba4    program     static D:\git\70M\Main\Main.c   
      SYS__vLcdKeyPadTask   0x013c0a    program     static D:\git\70M\Main\Main.c   
         SYS__vStatusTask   0x013b5a    program     static D:\git\70M\Main\Main.c   
            SaveAppConfig   0x00c5de    program     extern D:\git\70M\SysLib\util.c 
              SaveSetting   0x00c602    program     extern D:\git\70M\SysLib\util.c 
                  SendTCP   0x001698    program     static D:\git\70M\Microchip\TCPIP Stack\TCP.c
     SerializedMACAddress   0x015998    program     static D:\git\70M\Bootstrap\Initialization.c
          SetDefaultValue   0x013664    program     extern D:\git\70M\Bootstrap\Initialization.c
                   SetI2C   0x014638    program     extern D:\git\70M\Drivers\MCU-Internal\i2c_c1.c
        StackApplications   0x014bae    program     extern D:\git\70M\Microchip\TCPIP Stack\StackTsk.c
                StackInit   0x0149f2    program     extern D:\git\70M\Microchip\TCPIP Stack\StackTsk.c
                StackTask   0x014a22    program     extern D:\git\70M\Microchip\TCPIP Stack\StackTsk.c
        StringToIPAddress   0x00cde4    program     extern D:\git\70M\Microchip\TCPIP Stack\Helpers.c
            SwapARPPacket   0x012b38    program     extern D:\git\70M\Microchip\TCPIP Stack\ARP.c
             SwapIPHeader   0x0140f2    program     static D:\git\70M\Microchip\TCPIP Stack\IP.c
            SwapTCPHeader   0x001e9c    program     static D:\git\70M\Microchip\TCPIP Stack\TCP.c
                  SyncTCB   0x000126    program     static D:\git\70M\Microchip\TCPIP Stack\TCP.c
              SyncTCBStub   0x0000bc    program     static D:\git\70M\Microchip\TCPIP Stack\TCP.c
                  TAGTB32   0x010ba4    program     extern C:\Program Files\mcc18\src\traditional\math\gtFP.asm
                  TALTB32   0x010bb6    program     extern C:\Program Files\mcc18\src\traditional\math\ltFP.asm
        TCPAdjustFIFOSize   0x002a2c    program     extern D:\git\70M\Microchip\TCPIP Stack\TCP.c
                 TCPClose   0x000530    program     extern D:\git\70M\Microchip\TCPIP Stack\TCP.c
               TCPDiscard   0x0008d6    program     extern D:\git\70M\Microchip\TCPIP Stack\TCP.c
            TCPDisconnect   0x0004b4    program     extern D:\git\70M\Microchip\TCPIP Stack\TCP.c
           TCPFindArrayEx   0x000c66    program     extern D:\git\70M\Microchip\TCPIP Stack\TCP.c
                TCPFindEx   0x001134    program     extern D:\git\70M\Microchip\TCPIP Stack\TCP.c
        TCPFindROMArrayEx   0x000ee4    program     extern D:\git\70M\Microchip\TCPIP Stack\TCP.c
                 TCPFlush   0x00057e    program     extern D:\git\70M\Microchip\TCPIP Stack\TCP.c
                   TCPGet   0x00093e    program     extern D:\git\70M\Microchip\TCPIP Stack\TCP.c
              TCPGetArray   0x0009aa    program     extern D:\git\70M\Microchip\TCPIP Stack\TCP.c
         TCPGetRemoteInfo   0x000544    program     extern D:\git\70M\Microchip\TCPIP Stack\TCP.c
         TCPGetRxFIFOFree   0x000ae2    program     extern D:\git\70M\Microchip\TCPIP Stack\TCP.c
         TCPGetTxFIFOFull   0x0008ae    program     extern D:\git\70M\Microchip\TCPIP Stack\TCP.c
                  TCPInit   0x0001a4    program     extern D:\git\70M\Microchip\TCPIP Stack\TCP.c
           TCPIsConnected   0x00049e    program     extern D:\git\70M\Microchip\TCPIP Stack\TCP.c
            TCPIsGetReady   0x0008f8    program     extern D:\git\70M\Microchip\TCPIP Stack\TCP.c
            TCPIsPutReady   0x00059a    program     extern D:\git\70M\Microchip\TCPIP Stack\TCP.c
                  TCPOpen   0x000354    program     extern D:\git\70M\Microchip\TCPIP Stack\TCP.c
                  TCPPeek   0x000c3a    program     extern D:\git\70M\Microchip\TCPIP Stack\TCP.c
             TCPPeekArray   0x000b0a    program     extern D:\git\70M\Microchip\TCPIP Stack\TCP.c
               TCPProcess   0x00153e    program     extern D:\git\70M\Microchip\TCPIP Stack\TCP.c
                   TCPPut   0x000600    program     extern D:\git\70M\Microchip\TCPIP Stack\TCP.c
              TCPPutArray   0x00068e    program     extern D:\git\70M\Microchip\TCPIP Stack\TCP.c
           TCPPutROMArray   0x000732    program     extern D:\git\70M\Microchip\TCPIP Stack\TCP.c
          TCPPutROMString   0x000844    program     extern D:\git\70M\Microchip\TCPIP Stack\TCP.c
             TCPPutString   0x0007e4    program     extern D:\git\70M\Microchip\TCPIP Stack\TCP.c
               TCPRAMCopy   0x002be6    program     static D:\git\70M\Microchip\TCPIP Stack\TCP.c
            TCPRAMCopyROM   0x002c74    program     static D:\git\70M\Microchip\TCPIP Stack\TCP.c
     TCPSocketInitializer   0x015898    program     extern D:\git\70M\Port\TCPIPConfig.h
                  TCPTick   0x00116a    program     extern D:\git\70M\Microchip\TCPIP Stack\TCP.c
              TCPWasReset   0x000488    program     extern D:\git\70M\Microchip\TCPIP Stack\TCP.c
               TSIGN1616A   0x0109fc    program     static C:\Program Files\mcc18\src\traditional\math\fxm1616s.asm
TickConvertToMilliseconds   0x0152da    program     extern D:\git\70M\Microchip\TCPIP Stack\Tick.c
                  TickGet   0x01527e    program     extern D:\git\70M\Microchip\TCPIP Stack\Tick.c
            TickGetDiv256   0x015292    program     extern D:\git\70M\Microchip\TCPIP Stack\Tick.c
            TickGetDiv64K   0x0152b6    program     extern D:\git\70M\Microchip\TCPIP Stack\Tick.c
                 TickInit   0x015248    program     extern D:\git\70M\Microchip\TCPIP Stack\Tick.c
               TickUpdate   0x015310    program     extern D:\git\70M\Microchip\TCPIP Stack\Tick.c
                 UART2ISR   0x0158fc    program     extern D:\git\70M\Microchip\TCPIP Stack\UART2TCPBridge.c
          UpCvt_vPrintALC   0x011bde    program     extern D:\git\70M\Devices\UpConverter_c1.c
         UpCvt_vPrintAttn   0x011bc4    program     extern D:\git\70M\Devices\UpConverter_c1.c
         UpCvt_vPrintFreq   0x011b44    program     extern D:\git\70M\Devices\UpConverter_c1.c
           UpCvt_vPrintLo   0x011b92    program     extern D:\git\70M\Devices\UpConverter_c1.c
         UpCvt_vPrintMute   0x011bf8    program     extern D:\git\70M\Devices\UpConverter_c1.c
        UpCvt_vPrintPower   0x011b5e    program     extern D:\git\70M\Devices\UpConverter_c1.c
        UpCvt_vPrintStPwr   0x011b78    program     extern D:\git\70M\Devices\UpConverter_c1.c
           UpCvt_vSendI2C   0x011c3c    program     extern D:\git\70M\Devices\UpConverter_c1.c
            UpCvt_vSetALC   0x011ff4    program     extern D:\git\70M\Devices\UpConverter_c1.c
           UpCvt_vSetAttn   0x011dc4    program     extern D:\git\70M\Devices\UpConverter_c1.c
           UpCvt_vSetFreq   0x011c4c    program     extern D:\git\70M\Devices\UpConverter_c1.c
           UpCvt_vSetMute   0x012038    program     extern D:\git\70M\Devices\UpConverter_c1.c
          UpCvt_vSetPower   0x011eb4    program     extern D:\git\70M\Devices\UpConverter_c1.c
          UpCvt_vSetStPwr   0x011eb6    program     extern D:\git\70M\Devices\UpConverter_c1.c
             UpdateStatus   0x007df0    program     extern D:\git\70M\Drivers\External-Peripherals\oled_c2.c
         Util_u16ByteSwap   0x00bcc4    program     extern D:\git\70M\SysLib\util.c 
        Util_u16DWORDSwap   0x00bd50    program     extern D:\git\70M\SysLib\util.c 
      Util_u8Float2String   0x00c09c    program     extern D:\git\70M\SysLib\util.c 
      Util_u8String2DWORD   0x00c004    program     extern D:\git\70M\SysLib\util.c 
      Util_u8String2Float   0x00c156    program     extern D:\git\70M\SysLib\util.c 
     Util_u8String2NFloat   0x00c228    program     extern D:\git\70M\SysLib\util.c 
      Util_u8String2int16   0x00bf38    program     extern D:\git\70M\SysLib\util.c 
     VOLCTRL_vClearBUCAlm   0x013a06    program     extern D:\git\70M\Devices\VOLDC_c1 .c
     VOLCTRL_vClearLNBAlm   0x013a26    program     extern D:\git\70M\Devices\VOLDC_c1 .c
        VOLCTRL_vPrint18V   0x0137ee    program     extern D:\git\70M\Devices\VOLDC_c1 .c
        VOLCTRL_vPrint24V   0x01380a    program     extern D:\git\70M\Devices\VOLDC_c1 .c
     VOLCTRL_vPrintBUCAlm   0x013900    program     extern D:\git\70M\Devices\VOLDC_c1 .c
       VOLCTRL_vPrintBUCI   0x013898    program     extern D:\git\70M\Devices\VOLDC_c1 .c
     VOLCTRL_vPrintBUCREF   0x013842    program     extern D:\git\70M\Devices\VOLDC_c1 .c
     VOLCTRL_vPrintEXTREF   0x01385e    program     extern D:\git\70M\Devices\VOLDC_c1 .c
     VOLCTRL_vPrintLNBAlm   0x01391c    program     extern D:\git\70M\Devices\VOLDC_c1 .c
       VOLCTRL_vPrintLNBI   0x0138cc    program     extern D:\git\70M\Devices\VOLDC_c1 .c
     VOLCTRL_vPrintLNBREF   0x013826    program     extern D:\git\70M\Devices\VOLDC_c1 .c
         VOLCTRL_vSendI2C   0x013938    program     extern D:\git\70M\Devices\VOLDC_c1 .c
          VOLCTRL_vSet18V   0x01394e    program     extern D:\git\70M\Devices\VOLDC_c1 .c
          VOLCTRL_vSet24V   0x01397c    program     extern D:\git\70M\Devices\VOLDC_c1 .c
       VOLCTRL_vSetBUCREF   0x0139d8    program     extern D:\git\70M\Devices\VOLDC_c1 .c
       VOLCTRL_vSetLNBREF   0x0139aa    program     extern D:\git\70M\Devices\VOLDC_c1 .c
                WriteData   0x010e2a    program     extern D:\git\70M\Drivers\External-Peripherals\oled_c1.c
                 WriteIns   0x010dfc    program     extern D:\git\70M\Drivers\External-Peripherals\oled_c1.c
              WritePHYReg   0x00f9f2    program     extern D:\git\70M\Microchip\TCPIP Stack\ETH97J60.c
              WriteString   0x010e94    program     extern D:\git\70M\Drivers\External-Peripherals\oled_c1.c
               WriteUSART   0x015398    program     extern D:\git\70M\Microchip\TCPIP Stack\UART.c
              WriteUSART2   0x0153ec    program     extern D:\git\70M\Microchip\TCPIP Stack\UART.c
             XEEBeginRead   0x0141c6    program     extern D:\git\70M\Microchip\TCPIP Stack\SPIEEPROM.c
            XEEBeginWrite   0x0142be    program     extern D:\git\70M\Microchip\TCPIP Stack\SPIEEPROM.c
               XEEEndRead   0x014228    program     extern D:\git\70M\Microchip\TCPIP Stack\SPIEEPROM.c
              XEEEndWrite   0x014332    program     extern D:\git\70M\Microchip\TCPIP Stack\SPIEEPROM.c
                  XEEInit   0x0141b0    program     extern D:\git\70M\Microchip\TCPIP Stack\SPIEEPROM.c
                XEEIsBusy   0x0143e4    program     extern D:\git\70M\Microchip\TCPIP Stack\SPIEEPROM.c
                  XEERead   0x0141d2    program     extern D:\git\70M\Microchip\TCPIP Stack\SPIEEPROM.c
             XEEReadArray   0x01422a    program     extern D:\git\70M\Microchip\TCPIP Stack\SPIEEPROM.c
                 XEEWrite   0x0142ca    program     extern D:\git\70M\Microchip\TCPIP Stack\SPIEEPROM.c
            XEEWriteArray   0x0142f8    program     extern D:\git\70M\Microchip\TCPIP Stack\SPIEEPROM.c
                  _14jEnd   0x01508a    program     static C:\Program Files\mcc18\src\traditional\stdclib\atol.asm
              _2jContinue   0x012d40    program     static C:\Program Files\mcc18\src\traditional\stdclib\memset.asm
              _2jContinue   0x012c22    program     static C:\Program Files\mcc18\src\traditional\stdclib\memchr.asm
                   _2jEnd   0x012f2c    program     static C:\Program Files\mcc18\src\traditional\stdclib\slenpgm.asm
              _3jContinue   0x013032    program     static C:\Program Files\mcc18\src\traditional\stdclib\sncpyp2r.asm
              _3jContinue   0x012c70    program     static C:\Program Files\mcc18\src\traditional\stdclib\mcmpp2r.asm
              _3jContinue   0x012d0c    program     static C:\Program Files\mcc18\src\traditional\stdclib\mcpyp2r.asm
                   _3jEnd   0x012d4a    program     static C:\Program Files\mcc18\src\traditional\stdclib\memset.asm
                   _3jEnd   0x012c2c    program     static C:\Program Files\mcc18\src\traditional\stdclib\memchr.asm
              _4jContinue   0x012fd8    program     static C:\Program Files\mcc18\src\traditional\stdclib\strncpy.asm
              _4jContinue   0x012cb8    program     static C:\Program Files\mcc18\src\traditional\stdclib\memcpy.asm
              _4jContinue   0x012f7c    program     static C:\Program Files\mcc18\src\traditional\stdclib\strncat.asm
                   _4jEnd   0x012d16    program     static C:\Program Files\mcc18\src\traditional\stdclib\mcpyp2r.asm
                   _4jEnd   0x01303c    program     static C:\Program Files\mcc18\src\traditional\stdclib\sncpyp2r.asm
                   _4jEnd   0x012c7a    program     static C:\Program Files\mcc18\src\traditional\stdclib\mcmpp2r.asm
                   _5jEnd   0x012cc2    program     static C:\Program Files\mcc18\src\traditional\stdclib\memcpy.asm
                   _5jEnd   0x012f86    program     static C:\Program Files\mcc18\src\traditional\stdclib\strncat.asm
                   _5jEnd   0x012fe2    program     static C:\Program Files\mcc18\src\traditional\stdclib\strncpy.asm
        _D10TCYXCODE_000A   0x01595c    program     static C:\Program Files\mcc18\src\traditional\delays\d10tcyx.asm
        _D10TCYXCODE_000C   0x01595e    program     static C:\Program Files\mcc18\src\traditional\delays\d10tcyx.asm
        _D10TCYXCODE_000E   0x015960    program     static C:\Program Files\mcc18\src\traditional\delays\d10tcyx.asm
        _D1KTCYXCODE_0010   0x0158ec    program     static C:\Program Files\mcc18\src\traditional\delays\d1ktcyx.asm
        _D1KTCYXCODE_0016   0x0158f2    program     static C:\Program Files\mcc18\src\traditional\delays\d1ktcyx.asm
           _LoadFATRecord   0x00a5ea    program     static D:\git\70M\Microchip\TCPIP Stack\MPFS2.c
                _Validate   0x00a8b6    program     static D:\git\70M\Microchip\TCPIP Stack\MPFS2.c
              __FpCompare   0x010bc8    program     extern C:\Program Files\mcc18\src\traditional\math\compFP.asm
                 __FpExit   0x010c7e    program     extern C:\Program Files\mcc18\src\traditional\math\packFP.asm
                 __FpPack   0x010caa    program     extern C:\Program Files\mcc18\src\traditional\math\packFP.asm
            __FpReturnNaN   0x010c72    program     extern C:\Program Files\mcc18\src\traditional\math\packFP.asm
         __FpReturnNegInf   0x010c84    program     extern C:\Program Files\mcc18\src\traditional\math\packFP.asm
        __FpReturnNegZero   0x010c9c    program     extern C:\Program Files\mcc18\src\traditional\math\packFP.asm
         __FpReturnPosInf   0x010c8a    program     extern C:\Program Files\mcc18\src\traditional\math\packFP.asm
        __FpReturnPosZero   0x010ca4    program     extern C:\Program Files\mcc18\src\traditional\math\packFP.asm
        __FpReturnSignInf   0x010c80    program     extern C:\Program Files\mcc18\src\traditional\math\packFP.asm
       __FpReturnSignZero   0x010c98    program     extern C:\Program Files\mcc18\src\traditional\math\packFP.asm
              __FpReturnW   0x010d02    program     extern C:\Program Files\mcc18\src\traditional\math\packFP.asm
              __FpUnPackA   0x010d22    program     extern C:\Program Files\mcc18\src\traditional\math\UnpackFP.asm
              __FpUnPackB   0x010d52    program     extern C:\Program Files\mcc18\src\traditional\math\UnpackFP.asm
           ___do_lbl00002   0x015276    program     static                          
           ___do_lbl00003   0x01527a    program     static                          
           ___do_lbl00004   0x010de8    program     static                          
           ___do_lbl00004   0x015258    program     static                          
           ___do_lbl00005   0x010dec    program     static                          
           ___do_lbl00006   0x010dd8    program     static                          
          ___for_lbl00046   0x0110b2    program     static                          
          ___for_lbl00047   0x0110b6    program     static                          
          ___for_lbl00050   0x011016    program     static                          
          ___for_lbl00051   0x0110fc    program     static                          
          ___for_lbl00052   0x011100    program     static                          
          ___for_lbl00055   0x0110c2    program     static                          
          ___for_lbl00122   0x00d53a    program     static                          
          ___for_lbl00123   0x00d540    program     static                          
          ___for_lbl00124   0x00d51c    program     static                          
          ___for_lbl00125   0x00d554    program     static                          
          ___for_lbl00126   0x00d558    program     static                          
          ___for_lbl00127   0x00d540    program     static                          
           ___if_lbl00005   0x00ccc4    program     static                          
           ___if_lbl00006   0x00cce2    program     static                          
           ___if_lbl00007   0x00cd7c    program     static                          
           ___if_lbl00008   0x00cd82    program     static                          
           ___if_lbl00020   0x00f2f4    program     static                          
           ___if_lbl00021   0x00f300    program     static                          
           ___if_lbl00027   0x00f3d4    program     static                          
           ___if_lbl00030   0x00f454    program     static                          
           ___if_lbl00049   0x0110b2    program     static                          
           ___if_lbl00054   0x0110fc    program     static                          
           ___if_lbl00056   0x011124    program     static                          
       ___return_lbl00000   0x015790    program     static                          
       ___return_lbl00000   0x000004    program     static                          
       ___return_lbl00000   0x015872    program     static                          
       ___return_lbl00000   0x015846    program     static                          
       ___return_lbl00000   0x00f15c    program     static                          
       ___return_lbl00000   0x013b3e    program     static                          
       ___return_lbl00000   0x015950    program     static                          
       ___return_lbl00000   0x00cdcc    program     static                          
       ___return_lbl00001   0x0148ac    program     static                          
       ___return_lbl00001   0x01527c    program     static                          
       ___return_lbl00001   0x0158da    program     static                          
       ___return_lbl00002   0x015598    program     static                          
       ___return_lbl00003   0x010dee    program     static                          
       ___return_lbl00004   0x014984    program     static                          
       ___return_lbl00007   0x010e1e    program     static                          
       ___return_lbl00008   0x010e50    program     static                          
       ___return_lbl00009   0x010e86    program     static                          
       ___return_lbl00019   0x00f45c    program     static                          
       ___return_lbl00019   0x00001c    program     static                          
       ___return_lbl00020   0x00000c    program     static                          
       ___return_lbl00045   0x011124    program     static                          
       ___return_lbl00079   0x00f8d6    program     static                          
       ___return_lbl00080   0x00f926    program     static                          
       ___return_lbl00083   0x00f988    program     static                          
       ___return_lbl00086   0x00f9e2    program     static                          
       ___return_lbl00089   0x00fa34    program     static                          
       ___return_lbl00121   0x00d56a    program     static                          
        ___while_lbl00001   0x00cb52    program     static                          
        ___while_lbl00001   0x00f06e    program     static                          
        ___while_lbl00002   0x00cd84    program     static                          
        ___while_lbl00002   0x00f074    program     static                          
        ___while_lbl00002   0x014890    program     static                          
        ___while_lbl00003   0x014898    program     static                          
        ___while_lbl00003   0x00cb5a    program     static                          
        ___while_lbl00004   0x00cb5e    program     static                          
        ___while_lbl00081   0x00f8f2    program     static                          
        ___while_lbl00082   0x00f926    program     static                          
        ___while_lbl00084   0x00f942    program     static                          
        ___while_lbl00085   0x00f988    program     static                          
        ___while_lbl00087   0x00f9b8    program     static                          
        ___while_lbl00088   0x00f9be    program     static                          
        ___while_lbl00090   0x00fa2e    program     static                          
        ___while_lbl00091   0x00fa34    program     static                          
               __config_0   0x01fff8    program     static D:\git\70M\Main\Main.c   
               __config_1   0x01fffa    program     static D:\git\70M\Main\Main.c   
               __config_2   0x01fffd    program     static D:\git\70M\Main\Main.c   
                   __init   0x0159a6    program     extern C:\Program Files\mcc18\src\traditional\stdclib\__init.c
                   __pa_0   0x002d54    program     static D:\git\70M\Microchip\TCPIP Stack\TCP.c
                   __pa_0   0x015324    program     static D:\git\70M\Microchip\TCPIP Stack\Tick.c
                   __pa_0   0x007e1a    program     static D:\git\70M\Drivers\External-Peripherals\oled_c2.c
                   __pa_0   0x009758    program     static D:\git\70M\App\WebUI\HTTPGetDevInfo.c
                   __pa_0   0x015412    program     static D:\git\70M\Microchip\TCPIP Stack\UART.c
                   __pa_0   0x00e17a    program     static C:\Program Files\mcc18\src\traditional\stdclib\vfprintf.c
                   __pa_0   0x013364    program     static D:\git\70M\Devices\MainControl_c1.c
                   __pa_0   0x00a92e    program     static D:\git\70M\Microchip\TCPIP Stack\MPFS2.c
                   __pa_0   0x0126b8    program     static D:\git\70M\Devices\DownConverter_c1.c
                   __pa_0   0x011a1e    program     static D:\git\70M\App\WebUI\HTTPApp.c
                   __pa_0   0x015220    program     static D:\git\70M\Microchip\TCPIP Stack\ICMP.c
                   __pa_0   0x00fa62    program     static D:\git\70M\Microchip\TCPIP Stack\ETH97J60.c
                   __pa_0   0x0136e6    program     static D:\git\70M\Bootstrap\Initialization.c
                   __pa_0   0x014422    program     static D:\git\70M\Microchip\TCPIP Stack\SPIEEPROM.c
                   __pa_0   0x00b87e    program     static D:\git\70M\App\WebUI\HTTPPrint.c
                   __pa_0   0x0120c4    program     static D:\git\70M\Devices\UpConverter_c1.c
                   __pa_0   0x014110    program     static D:\git\70M\Microchip\TCPIP Stack\IP.c
                   __pa_0   0x014cee    program     static D:\git\70M\Drivers\External-Peripherals\devadc.c
                   __pa_0   0x014eee    program     static D:\git\70M\Drivers\MCU-Internal\ISR.c
                   __pa_0   0x0112d8    program     static D:\git\70M\Drivers\External-Peripherals\oled_c1.c
                   __pa_0   0x005ad4    program     static D:\git\70M\Microchip\TCPIP Stack\HTTP2.c
                   __pa_0   0x00d602    program     static D:\git\70M\Microchip\TCPIP Stack\Helpers.c
                   __pa_0   0x0146d6    program     static D:\git\70M\Drivers\MCU-Internal\i2c_c1.c
                   __pa_0   0x014bb2    program     static D:\git\70M\Microchip\TCPIP Stack\StackTsk.c
                   __pa_0   0x013a46    program     static D:\git\70M\Devices\VOLDC_c1 .c
                   __pa_0   0x00c6d4    program     static D:\git\70M\SysLib\util.c 
                   __pa_0   0x012b60    program     static D:\git\70M\Microchip\TCPIP Stack\ARP.c
                   __pa_1   0x007e44    program     static D:\git\70M\Drivers\External-Peripherals\oled_c2.c
                   __pa_1   0x013370    program     static D:\git\70M\Devices\MainControl_c1.c
                   __pa_1   0x015424    program     static D:\git\70M\Microchip\TCPIP Stack\UART.c
                   __pa_1   0x0112e4    program     static D:\git\70M\Drivers\External-Peripherals\oled_c1.c
                   __pa_1   0x00a934    program     static D:\git\70M\Microchip\TCPIP Stack\MPFS2.c
                   __pa_1   0x015332    program     static D:\git\70M\Microchip\TCPIP Stack\Tick.c
                   __pa_1   0x00e182    program     static C:\Program Files\mcc18\src\traditional\stdclib\vfprintf.c
                   __pa_1   0x0126c4    program     static D:\git\70M\Devices\DownConverter_c1.c
                   __pa_1   0x014bc0    program     static D:\git\70M\Microchip\TCPIP Stack\StackTsk.c
                   __pa_1   0x011a2e    program     static D:\git\70M\App\WebUI\HTTPApp.c
                   __pa_1   0x015230    program     static D:\git\70M\Microchip\TCPIP Stack\ICMP.c
                   __pa_1   0x005ade    program     static D:\git\70M\Microchip\TCPIP Stack\HTTP2.c
                   __pa_1   0x0146de    program     static D:\git\70M\Drivers\MCU-Internal\i2c_c1.c
                   __pa_1   0x013a5c    program     static D:\git\70M\Devices\VOLDC_c1 .c
                   __pa_1   0x014434    program     static D:\git\70M\Microchip\TCPIP Stack\SPIEEPROM.c
                   __pa_1   0x00c6de    program     static D:\git\70M\SysLib\util.c 
                   __pa_1   0x0120d0    program     static D:\git\70M\Devices\UpConverter_c1.c
                   __pa_1   0x014d34    program     static D:\git\70M\Drivers\External-Peripherals\devadc.c
                   __pa_1   0x014f18    program     static D:\git\70M\Drivers\MCU-Internal\ISR.c
                   __pa_1   0x014132    program     static D:\git\70M\Microchip\TCPIP Stack\IP.c
                   __pa_1   0x012b6e    program     static D:\git\70M\Microchip\TCPIP Stack\ARP.c
                   __pa_1   0x013706    program     static D:\git\70M\Bootstrap\Initialization.c
                   __pa_1   0x00fa74    program     static D:\git\70M\Microchip\TCPIP Stack\ETH97J60.c
                   __pa_1   0x00d614    program     static D:\git\70M\Microchip\TCPIP Stack\Helpers.c
                   __pa_1   0x00976e    program     static D:\git\70M\App\WebUI\HTTPGetDevInfo.c
                   __pa_1   0x002d7c    program     static D:\git\70M\Microchip\TCPIP Stack\TCP.c
                   __pa_1   0x00b89c    program     static D:\git\70M\App\WebUI\HTTPPrint.c
                  __pa_10   0x00b91c    program     static D:\git\70M\App\WebUI\HTTPPrint.c
                  __pa_10   0x00985e    program     static D:\git\70M\App\WebUI\HTTPGetDevInfo.c
                  __pa_10   0x012744    program     static D:\git\70M\Devices\DownConverter_c1.c
                  __pa_10   0x00d6ea    program     static D:\git\70M\Microchip\TCPIP Stack\Helpers.c
                  __pa_10   0x002e9e    program     static D:\git\70M\Microchip\TCPIP Stack\TCP.c
                  __pa_10   0x011aa6    program     static D:\git\70M\App\WebUI\HTTPApp.c
                  __pa_10   0x0137e2    program     static D:\git\70M\Bootstrap\Initialization.c
                  __pa_10   0x0141a6    program     static D:\git\70M\Microchip\TCPIP Stack\IP.c
                  __pa_10   0x012150    program     static D:\git\70M\Devices\UpConverter_c1.c
                  __pa_10   0x00c794    program     static D:\git\70M\SysLib\util.c 
                  __pa_10   0x013ab4    program     static D:\git\70M\Devices\VOLDC_c1 .c
                  __pa_10   0x00a9da    program     static D:\git\70M\Microchip\TCPIP Stack\MPFS2.c
                  __pa_10   0x012bf8    program     static D:\git\70M\Microchip\TCPIP Stack\ARP.c
                  __pa_10   0x00faf4    program     static D:\git\70M\Microchip\TCPIP Stack\ETH97J60.c
                  __pa_10   0x014772    program     static D:\git\70M\Drivers\MCU-Internal\i2c_c1.c
                  __pa_10   0x005bc4    program     static D:\git\70M\Microchip\TCPIP Stack\HTTP2.c
                  __pa_10   0x0113d2    program     static D:\git\70M\Drivers\External-Peripherals\oled_c1.c
                  __pa_10   0x00e236    program     static C:\Program Files\mcc18\src\traditional\stdclib\vfprintf.c
                  __pa_10   0x007fea    program     static D:\git\70M\Drivers\External-Peripherals\oled_c2.c
                  __pa_10   0x0133da    program     static D:\git\70M\Devices\MainControl_c1.c
                 __pa_100   0x00602e    program     static D:\git\70M\Microchip\TCPIP Stack\HTTP2.c
                 __pa_100   0x003494    program     static D:\git\70M\Microchip\TCPIP Stack\TCP.c
                 __pa_100   0x009de2    program     static D:\git\70M\App\WebUI\HTTPGetDevInfo.c
                 __pa_101   0x009df0    program     static D:\git\70M\App\WebUI\HTTPGetDevInfo.c
                 __pa_101   0x006038    program     static D:\git\70M\Microchip\TCPIP Stack\HTTP2.c
                 __pa_101   0x0034ac    program     static D:\git\70M\Microchip\TCPIP Stack\TCP.c
                 __pa_102   0x006040    program     static D:\git\70M\Microchip\TCPIP Stack\HTTP2.c
                 __pa_102   0x009dfe    program     static D:\git\70M\App\WebUI\HTTPGetDevInfo.c
                 __pa_102   0x0034b8    program     static D:\git\70M\Microchip\TCPIP Stack\TCP.c
                 __pa_103   0x0034c4    program     static D:\git\70M\Microchip\TCPIP Stack\TCP.c
                 __pa_103   0x009e0c    program     static D:\git\70M\App\WebUI\HTTPGetDevInfo.c
                 __pa_103   0x00604e    program     static D:\git\70M\Microchip\TCPIP Stack\HTTP2.c
                 __pa_104   0x0034d0    program     static D:\git\70M\Microchip\TCPIP Stack\TCP.c
                 __pa_104   0x009e1a    program     static D:\git\70M\App\WebUI\HTTPGetDevInfo.c
                 __pa_104   0x00605c    program     static D:\git\70M\Microchip\TCPIP Stack\HTTP2.c
                 __pa_105   0x009e22    program     static D:\git\70M\App\WebUI\HTTPGetDevInfo.c
                 __pa_105   0x006064    program     static D:\git\70M\Microchip\TCPIP Stack\HTTP2.c
                 __pa_105   0x0034e6    program     static D:\git\70M\Microchip\TCPIP Stack\TCP.c
                 __pa_106   0x006072    program     static D:\git\70M\Microchip\TCPIP Stack\HTTP2.c
                 __pa_106   0x0034f6    program     static D:\git\70M\Microchip\TCPIP Stack\TCP.c
                 __pa_106   0x009e28    program     static D:\git\70M\App\WebUI\HTTPGetDevInfo.c
                 __pa_107   0x00350c    program     static D:\git\70M\Microchip\TCPIP Stack\TCP.c
                 __pa_107   0x009e2e    program     static D:\git\70M\App\WebUI\HTTPGetDevInfo.c
                 __pa_107   0x00607c    program     static D:\git\70M\Microchip\TCPIP Stack\HTTP2.c
                 __pa_108   0x003522    program     static D:\git\70M\Microchip\TCPIP Stack\TCP.c
                 __pa_108   0x009e34    program     static D:\git\70M\App\WebUI\HTTPGetDevInfo.c
                 __pa_108   0x006088    program     static D:\git\70M\Microchip\TCPIP Stack\HTTP2.c
                 __pa_109   0x003530    program     static D:\git\70M\Microchip\TCPIP Stack\TCP.c
                 __pa_109   0x009e40    program     static D:\git\70M\App\WebUI\HTTPGetDevInfo.c
                 __pa_109   0x006098    program     static D:\git\70M\Microchip\TCPIP Stack\HTTP2.c
                  __pa_11   0x012c00    program     static D:\git\70M\Microchip\TCPIP Stack\ARP.c
                  __pa_11   0x00a9f0    program     static D:\git\70M\Microchip\TCPIP Stack\MPFS2.c
                  __pa_11   0x013abc    program     static D:\git\70M\Devices\VOLDC_c1 .c
                  __pa_11   0x01274c    program     static D:\git\70M\Devices\DownConverter_c1.c
                  __pa_11   0x00b928    program     static D:\git\70M\App\WebUI\HTTPPrint.c
                  __pa_11   0x0113ee    program     static D:\git\70M\Drivers\External-Peripherals\oled_c1.c
                  __pa_11   0x00fb04    program     static D:\git\70M\Microchip\TCPIP Stack\ETH97J60.c
                  __pa_11   0x009866    program     static D:\git\70M\App\WebUI\HTTPGetDevInfo.c
                  __pa_11   0x00c7a6    program     static D:\git\70M\SysLib\util.c 
                  __pa_11   0x00800c    program     static D:\git\70M\Drivers\External-Peripherals\oled_c2.c
                  __pa_11   0x0133e0    program     static D:\git\70M\Devices\MainControl_c1.c
                  __pa_11   0x005bca    program     static D:\git\70M\Microchip\TCPIP Stack\HTTP2.c
                  __pa_11   0x00e244    program     static C:\Program Files\mcc18\src\traditional\stdclib\vfprintf.c
                  __pa_11   0x00d704    program     static D:\git\70M\Microchip\TCPIP Stack\Helpers.c
                  __pa_11   0x014782    program     static D:\git\70M\Drivers\MCU-Internal\i2c_c1.c
                  __pa_11   0x002eca    program     static D:\git\70M\Microchip\TCPIP Stack\TCP.c
                  __pa_11   0x012158    program     static D:\git\70M\Devices\UpConverter_c1.c
                  __pa_11   0x011ab4    program     static D:\git\70M\App\WebUI\HTTPApp.c
                 __pa_110   0x0060a0    program     static D:\git\70M\Microchip\TCPIP Stack\HTTP2.c
                 __pa_110   0x00353e    program     static D:\git\70M\Microchip\TCPIP Stack\TCP.c
                 __pa_110   0x009e46    program     static D:\git\70M\App\WebUI\HTTPGetDevInfo.c
                 __pa_111   0x0060aa    program     static D:\git\70M\Microchip\TCPIP Stack\HTTP2.c
                 __pa_111   0x009e4c    program     static D:\git\70M\App\WebUI\HTTPGetDevInfo.c
                 __pa_111   0x003546    program     static D:\git\70M\Microchip\TCPIP Stack\TCP.c
                 __pa_112   0x009e54    program     static D:\git\70M\App\WebUI\HTTPGetDevInfo.c
                 __pa_112   0x0060b2    program     static D:\git\70M\Microchip\TCPIP Stack\HTTP2.c
                 __pa_112   0x003554    program     static D:\git\70M\Microchip\TCPIP Stack\TCP.c
                 __pa_113   0x009e5c    program     static D:\git\70M\App\WebUI\HTTPGetDevInfo.c
                 __pa_113   0x0060c0    program     static D:\git\70M\Microchip\TCPIP Stack\HTTP2.c
                 __pa_113   0x00355c    program     static D:\git\70M\Microchip\TCPIP Stack\TCP.c
                 __pa_114   0x009e6a    program     static D:\git\70M\App\WebUI\HTTPGetDevInfo.c
                 __pa_114   0x00356a    program     static D:\git\70M\Microchip\TCPIP Stack\TCP.c
                 __pa_114   0x0060c6    program     static D:\git\70M\Microchip\TCPIP Stack\HTTP2.c
                 __pa_115   0x009e78    program     static D:\git\70M\App\WebUI\HTTPGetDevInfo.c
                 __pa_115   0x003578    program     static D:\git\70M\Microchip\TCPIP Stack\TCP.c
                 __pa_115   0x0060cc    program     static D:\git\70M\Microchip\TCPIP Stack\HTTP2.c
                 __pa_116   0x003586    program     static D:\git\70M\Microchip\TCPIP Stack\TCP.c
                 __pa_116   0x0060d8    program     static D:\git\70M\Microchip\TCPIP Stack\HTTP2.c
                 __pa_116   0x009e86    program     static D:\git\70M\App\WebUI\HTTPGetDevInfo.c
                 __pa_117   0x009e90    program     static D:\git\70M\App\WebUI\HTTPGetDevInfo.c
                 __pa_117   0x0060e4    program     static D:\git\70M\Microchip\TCPIP Stack\HTTP2.c
                 __pa_117   0x003590    program     static D:\git\70M\Microchip\TCPIP Stack\TCP.c
                 __pa_118   0x0060f2    program     static D:\git\70M\Microchip\TCPIP Stack\HTTP2.c
                 __pa_118   0x009e98    program     static D:\git\70M\App\WebUI\HTTPGetDevInfo.c
                 __pa_118   0x00359a    program     static D:\git\70M\Microchip\TCPIP Stack\TCP.c
                 __pa_119   0x006100    program     static D:\git\70M\Microchip\TCPIP Stack\HTTP2.c
                 __pa_119   0x0035a4    program     static D:\git\70M\Microchip\TCPIP Stack\TCP.c
                 __pa_119   0x009ea0    program     static D:\git\70M\App\WebUI\HTTPGetDevInfo.c
                  __pa_12   0x014790    program     static D:\git\70M\Drivers\MCU-Internal\i2c_c1.c
                  __pa_12   0x005bd4    program     static D:\git\70M\Microchip\TCPIP Stack\HTTP2.c
                  __pa_12   0x0133e6    program     static D:\git\70M\Devices\MainControl_c1.c
                  __pa_12   0x008018    program     static D:\git\70M\Drivers\External-Peripherals\oled_c2.c
                  __pa_12   0x00fb10    program     static D:\git\70M\Microchip\TCPIP Stack\ETH97J60.c
                  __pa_12   0x00b93a    program     static D:\git\70M\App\WebUI\HTTPPrint.c
                  __pa_12   0x0113fe    program     static D:\git\70M\Drivers\External-Peripherals\oled_c1.c
                  __pa_12   0x00c7b2    program     static D:\git\70M\SysLib\util.c 
                  __pa_12   0x00a9fa    program     static D:\git\70M\Microchip\TCPIP Stack\MPFS2.c
                  __pa_12   0x013ac6    program     static D:\git\70M\Devices\VOLDC_c1 .c
                  __pa_12   0x01275a    program     static D:\git\70M\Devices\DownConverter_c1.c
                  __pa_12   0x009882    program     static D:\git\70M\App\WebUI\HTTPGetDevInfo.c
                  __pa_12   0x00e25a    program     static C:\Program Files\mcc18\src\traditional\stdclib\vfprintf.c
                  __pa_12   0x00d714    program     static D:\git\70M\Microchip\TCPIP Stack\Helpers.c
                  __pa_12   0x002ed2    program     static D:\git\70M\Microchip\TCPIP Stack\TCP.c
                  __pa_12   0x011aba    program     static D:\git\70M\App\WebUI\HTTPApp.c
                  __pa_12   0x012166    program     static D:\git\70M\Devices\UpConverter_c1.c
                 __pa_120   0x006108    program     static D:\git\70M\Microchip\TCPIP Stack\HTTP2.c
                 __pa_120   0x009eb4    program     static D:\git\70M\App\WebUI\HTTPGetDevInfo.c
                 __pa_120   0x0035ae    program     static D:\git\70M\Microchip\TCPIP Stack\TCP.c
                 __pa_121   0x00610e    program     static D:\git\70M\Microchip\TCPIP Stack\HTTP2.c
                 __pa_121   0x009ebe    program     static D:\git\70M\App\WebUI\HTTPGetDevInfo.c
                 __pa_121   0x0035b8    program     static D:\git\70M\Microchip\TCPIP Stack\TCP.c
                 __pa_122   0x009ecc    program     static D:\git\70M\App\WebUI\HTTPGetDevInfo.c
                 __pa_122   0x006118    program     static D:\git\70M\Microchip\TCPIP Stack\HTTP2.c
                 __pa_122   0x0035c0    program     static D:\git\70M\Microchip\TCPIP Stack\TCP.c
                 __pa_123   0x006122    program     static D:\git\70M\Microchip\TCPIP Stack\HTTP2.c
                 __pa_123   0x0035d4    program     static D:\git\70M\Microchip\TCPIP Stack\TCP.c
                 __pa_124   0x00612c    program     static D:\git\70M\Microchip\TCPIP Stack\HTTP2.c
                 __pa_124   0x0035e8    program     static D:\git\70M\Microchip\TCPIP Stack\TCP.c
                 __pa_125   0x0035fc    program     static D:\git\70M\Microchip\TCPIP Stack\TCP.c
                 __pa_125   0x006134    program     static D:\git\70M\Microchip\TCPIP Stack\HTTP2.c
                 __pa_126   0x00613c    program     static D:\git\70M\Microchip\TCPIP Stack\HTTP2.c
                 __pa_126   0x003604    program     static D:\git\70M\Microchip\TCPIP Stack\TCP.c
                 __pa_127   0x006144    program     static D:\git\70M\Microchip\TCPIP Stack\HTTP2.c
                 __pa_127   0x00360e    program     static D:\git\70M\Microchip\TCPIP Stack\TCP.c
                 __pa_128   0x00614a    program     static D:\git\70M\Microchip\TCPIP Stack\HTTP2.c
                 __pa_128   0x003620    program     static D:\git\70M\Microchip\TCPIP Stack\TCP.c
                 __pa_129   0x006164    program     static D:\git\70M\Microchip\TCPIP Stack\HTTP2.c
                 __pa_129   0x003632    program     static D:\git\70M\Microchip\TCPIP Stack\TCP.c
                  __pa_13   0x01276c    program     static D:\git\70M\Devices\DownConverter_c1.c
                  __pa_13   0x0098a2    program     static D:\git\70M\App\WebUI\HTTPGetDevInfo.c
                  __pa_13   0x00d724    program     static D:\git\70M\Microchip\TCPIP Stack\Helpers.c
                  __pa_13   0x00e274    program     static C:\Program Files\mcc18\src\traditional\stdclib\vfprintf.c
                  __pa_13   0x011ac8    program     static D:\git\70M\App\WebUI\HTTPApp.c
                  __pa_13   0x002eda    program     static D:\git\70M\Microchip\TCPIP Stack\TCP.c
                  __pa_13   0x012178    program     static D:\git\70M\Devices\UpConverter_c1.c
                  __pa_13   0x00802a    program     static D:\git\70M\Drivers\External-Peripherals\oled_c2.c
                  __pa_13   0x00b94c    program     static D:\git\70M\App\WebUI\HTTPPrint.c
                  __pa_13   0x00c7c0    program     static D:\git\70M\SysLib\util.c 
                  __pa_13   0x01479a    program     static D:\git\70M\Drivers\MCU-Internal\i2c_c1.c
                  __pa_13   0x013ad8    program     static D:\git\70M\Devices\VOLDC_c1 .c
                  __pa_13   0x00aa04    program     static D:\git\70M\Microchip\TCPIP Stack\MPFS2.c
                  __pa_13   0x011402    program     static D:\git\70M\Drivers\External-Peripherals\oled_c1.c
                  __pa_13   0x00fb1e    program     static D:\git\70M\Microchip\TCPIP Stack\ETH97J60.c
                  __pa_13   0x005bfa    program     static D:\git\70M\Microchip\TCPIP Stack\HTTP2.c
                  __pa_13   0x0133f0    program     static D:\git\70M\Devices\MainControl_c1.c
                 __pa_130   0x00616c    program     static D:\git\70M\Microchip\TCPIP Stack\HTTP2.c
                 __pa_130   0x003644    program     static D:\git\70M\Microchip\TCPIP Stack\TCP.c
                 __pa_131   0x006172    program     static D:\git\70M\Microchip\TCPIP Stack\HTTP2.c
                 __pa_131   0x003656    program     static D:\git\70M\Microchip\TCPIP Stack\TCP.c
                 __pa_132   0x006178    program     static D:\git\70M\Microchip\TCPIP Stack\HTTP2.c
                 __pa_132   0x003668    program     static D:\git\70M\Microchip\TCPIP Stack\TCP.c
                 __pa_133   0x006188    program     static D:\git\70M\Microchip\TCPIP Stack\HTTP2.c
                 __pa_133   0x00367a    program     static D:\git\70M\Microchip\TCPIP Stack\TCP.c
                 __pa_134   0x006192    program     static D:\git\70M\Microchip\TCPIP Stack\HTTP2.c
                 __pa_134   0x00368c    program     static D:\git\70M\Microchip\TCPIP Stack\TCP.c
                 __pa_135   0x00369e    program     static D:\git\70M\Microchip\TCPIP Stack\TCP.c
                 __pa_135   0x0061a2    program     static D:\git\70M\Microchip\TCPIP Stack\HTTP2.c
                 __pa_136   0x0036b0    program     static D:\git\70M\Microchip\TCPIP Stack\TCP.c
                 __pa_136   0x0061ae    program     static D:\git\70M\Microchip\TCPIP Stack\HTTP2.c
                 __pa_137   0x0036b8    program     static D:\git\70M\Microchip\TCPIP Stack\TCP.c
                 __pa_137   0x0061b8    program     static D:\git\70M\Microchip\TCPIP Stack\HTTP2.c
                 __pa_138   0x0036c6    program     static D:\git\70M\Microchip\TCPIP Stack\TCP.c
                 __pa_138   0x0061c8    program     static D:\git\70M\Microchip\TCPIP Stack\HTTP2.c
                 __pa_139   0x0061d2    program     static D:\git\70M\Microchip\TCPIP Stack\HTTP2.c
                 __pa_139   0x0036d2    program     static D:\git\70M\Microchip\TCPIP Stack\TCP.c
                  __pa_14   0x0133fe    program     static D:\git\70M\Devices\MainControl_c1.c
                  __pa_14   0x00fb2c    program     static D:\git\70M\Microchip\TCPIP Stack\ETH97J60.c
                  __pa_14   0x002ee6    program     static D:\git\70M\Microchip\TCPIP Stack\TCP.c
                  __pa_14   0x00c7da    program     static D:\git\70M\SysLib\util.c 
                  __pa_14   0x011ad0    program     static D:\git\70M\App\WebUI\HTTPApp.c
                  __pa_14   0x00e28c    program     static C:\Program Files\mcc18\src\traditional\stdclib\vfprintf.c
                  __pa_14   0x00b956    program     static D:\git\70M\App\WebUI\HTTPPrint.c
                  __pa_14   0x00aa18    program     static D:\git\70M\Microchip\TCPIP Stack\MPFS2.c
                  __pa_14   0x0098be    program     static D:\git\70M\App\WebUI\HTTPGetDevInfo.c
                  __pa_14   0x00d73c    program     static D:\git\70M\Microchip\TCPIP Stack\Helpers.c
                  __pa_14   0x011408    program     static D:\git\70M\Drivers\External-Peripherals\oled_c1.c
                  __pa_14   0x008038    program     static D:\git\70M\Drivers\External-Peripherals\oled_c2.c
                  __pa_14   0x005c02    program     static D:\git\70M\Microchip\TCPIP Stack\HTTP2.c
                  __pa_14   0x013af0    program     static D:\git\70M\Devices\VOLDC_c1 .c
                 __pa_140   0x0036de    program     static D:\git\70M\Microchip\TCPIP Stack\TCP.c
                 __pa_140   0x0061de    program     static D:\git\70M\Microchip\TCPIP Stack\HTTP2.c
                 __pa_141   0x0061e8    program     static D:\git\70M\Microchip\TCPIP Stack\HTTP2.c
                 __pa_141   0x0036e8    program     static D:\git\70M\Microchip\TCPIP Stack\TCP.c
                 __pa_142   0x0061f6    program     static D:\git\70M\Microchip\TCPIP Stack\HTTP2.c
                 __pa_142   0x0036f2    program     static D:\git\70M\Microchip\TCPIP Stack\TCP.c
                 __pa_143   0x006204    program     static D:\git\70M\Microchip\TCPIP Stack\HTTP2.c
                 __pa_143   0x0036fc    program     static D:\git\70M\Microchip\TCPIP Stack\TCP.c
                 __pa_144   0x006210    program     static D:\git\70M\Microchip\TCPIP Stack\HTTP2.c
                 __pa_144   0x00370c    program     static D:\git\70M\Microchip\TCPIP Stack\TCP.c
                 __pa_145   0x00371c    program     static D:\git\70M\Microchip\TCPIP Stack\TCP.c
                 __pa_145   0x006218    program     static D:\git\70M\Microchip\TCPIP Stack\HTTP2.c
                 __pa_146   0x00372c    program     static D:\git\70M\Microchip\TCPIP Stack\TCP.c
                 __pa_146   0x00621e    program     static D:\git\70M\Microchip\TCPIP Stack\HTTP2.c
                 __pa_147   0x00373c    program     static D:\git\70M\Microchip\TCPIP Stack\TCP.c
                 __pa_147   0x006224    program     static D:\git\70M\Microchip\TCPIP Stack\HTTP2.c
                 __pa_148   0x00622c    program     static D:\git\70M\Microchip\TCPIP Stack\HTTP2.c
                 __pa_148   0x00374c    program     static D:\git\70M\Microchip\TCPIP Stack\TCP.c
                 __pa_149   0x006234    program     static D:\git\70M\Microchip\TCPIP Stack\HTTP2.c
                 __pa_149   0x003752    program     static D:\git\70M\Microchip\TCPIP Stack\TCP.c
                  __pa_15   0x00e29c    program     static C:\Program Files\mcc18\src\traditional\stdclib\vfprintf.c
                  __pa_15   0x008046    program     static D:\git\70M\Drivers\External-Peripherals\oled_c2.c
                  __pa_15   0x011ad8    program     static D:\git\70M\App\WebUI\HTTPApp.c
                  __pa_15   0x013b04    program     static D:\git\70M\Devices\VOLDC_c1 .c
                  __pa_15   0x00c7f4    program     static D:\git\70M\SysLib\util.c 
                  __pa_15   0x00d752    program     static D:\git\70M\Microchip\TCPIP Stack\Helpers.c
                  __pa_15   0x00fb3a    program     static D:\git\70M\Microchip\TCPIP Stack\ETH97J60.c
                  __pa_15   0x005c0a    program     static D:\git\70M\Microchip\TCPIP Stack\HTTP2.c
                  __pa_15   0x00aa2a    program     static D:\git\70M\Microchip\TCPIP Stack\MPFS2.c
                  __pa_15   0x00b95e    program     static D:\git\70M\App\WebUI\HTTPPrint.c
                  __pa_15   0x0098c6    program     static D:\git\70M\App\WebUI\HTTPGetDevInfo.c
                  __pa_15   0x002ef0    program     static D:\git\70M\Microchip\TCPIP Stack\TCP.c
                  __pa_15   0x011410    program     static D:\git\70M\Drivers\External-Peripherals\oled_c1.c
                  __pa_15   0x013404    program     static D:\git\70M\Devices\MainControl_c1.c
                 __pa_150   0x00623e    program     static D:\git\70M\Microchip\TCPIP Stack\HTTP2.c
                 __pa_150   0x003760    program     static D:\git\70M\Microchip\TCPIP Stack\TCP.c
                 __pa_151   0x00376e    program     static D:\git\70M\Microchip\TCPIP Stack\TCP.c
                 __pa_152   0x00377c    program     static D:\git\70M\Microchip\TCPIP Stack\TCP.c
                 __pa_153   0x00378a    program     static D:\git\70M\Microchip\TCPIP Stack\TCP.c
                 __pa_154   0x003798    program     static D:\git\70M\Microchip\TCPIP Stack\TCP.c
                 __pa_155   0x0037a6    program     static D:\git\70M\Microchip\TCPIP Stack\TCP.c
                 __pa_156   0x0037b4    program     static D:\git\70M\Microchip\TCPIP Stack\TCP.c
                 __pa_157   0x0037c2    program     static D:\git\70M\Microchip\TCPIP Stack\TCP.c
                 __pa_158   0x0037d0    program     static D:\git\70M\Microchip\TCPIP Stack\TCP.c
                 __pa_159   0x0037de    program     static D:\git\70M\Microchip\TCPIP Stack\TCP.c
                  __pa_16   0x0098dc    program     static D:\git\70M\App\WebUI\HTTPGetDevInfo.c
                  __pa_16   0x01340e    program     static D:\git\70M\Devices\MainControl_c1.c
                  __pa_16   0x00b974    program     static D:\git\70M\App\WebUI\HTTPPrint.c
                  __pa_16   0x00e2b2    program     static C:\Program Files\mcc18\src\traditional\stdclib\vfprintf.c
                  __pa_16   0x00c7fe    program     static D:\git\70M\SysLib\util.c 
                  __pa_16   0x00fb48    program     static D:\git\70M\Microchip\TCPIP Stack\ETH97J60.c
                  __pa_16   0x002efa    program     static D:\git\70M\Microchip\TCPIP Stack\TCP.c
                  __pa_16   0x00d75c    program     static D:\git\70M\Microchip\TCPIP Stack\Helpers.c
                  __pa_16   0x013b0e    program     static D:\git\70M\Devices\VOLDC_c1 .c
                  __pa_16   0x00aa50    program     static D:\git\70M\Microchip\TCPIP Stack\MPFS2.c
                  __pa_16   0x011ae0    program     static D:\git\70M\App\WebUI\HTTPApp.c
                  __pa_16   0x01141a    program     static D:\git\70M\Drivers\External-Peripherals\oled_c1.c
                  __pa_16   0x008054    program     static D:\git\70M\Drivers\External-Peripherals\oled_c2.c
                  __pa_16   0x005c18    program     static D:\git\70M\Microchip\TCPIP Stack\HTTP2.c
                 __pa_160   0x0037ec    program     static D:\git\70M\Microchip\TCPIP Stack\TCP.c
                 __pa_161   0x0037fa    program     static D:\git\70M\Microchip\TCPIP Stack\TCP.c
                 __pa_162   0x003808    program     static D:\git\70M\Microchip\TCPIP Stack\TCP.c
                 __pa_163   0x003816    program     static D:\git\70M\Microchip\TCPIP Stack\TCP.c
                 __pa_164   0x003824    program     static D:\git\70M\Microchip\TCPIP Stack\TCP.c
                 __pa_165   0x00382e    program     static D:\git\70M\Microchip\TCPIP Stack\TCP.c
                 __pa_166   0x003838    program     static D:\git\70M\Microchip\TCPIP Stack\TCP.c
                 __pa_167   0x003842    program     static D:\git\70M\Microchip\TCPIP Stack\TCP.c
                 __pa_168   0x00384c    program     static D:\git\70M\Microchip\TCPIP Stack\TCP.c
                 __pa_169   0x003856    program     static D:\git\70M\Microchip\TCPIP Stack\TCP.c
                  __pa_17   0x00d76e    program     static D:\git\70M\Microchip\TCPIP Stack\Helpers.c
                  __pa_17   0x00aa6a    program     static D:\git\70M\Microchip\TCPIP Stack\MPFS2.c
                  __pa_17   0x00c814    program     static D:\git\70M\SysLib\util.c 
                  __pa_17   0x00e2c4    program     static C:\Program Files\mcc18\src\traditional\stdclib\vfprintf.c
                  __pa_17   0x005c22    program     static D:\git\70M\Microchip\TCPIP Stack\HTTP2.c
                  __pa_17   0x013b18    program     static D:\git\70M\Devices\VOLDC_c1 .c
                  __pa_17   0x00fb56    program     static D:\git\70M\Microchip\TCPIP Stack\ETH97J60.c
                  __pa_17   0x011aee    program     static D:\git\70M\App\WebUI\HTTPApp.c
                  __pa_17   0x002f06    program     static D:\git\70M\Microchip\TCPIP Stack\TCP.c
                  __pa_17   0x01142a    program     static D:\git\70M\Drivers\External-Peripherals\oled_c1.c
                  __pa_17   0x00b98c    program     static D:\git\70M\App\WebUI\HTTPPrint.c
                  __pa_17   0x009912    program     static D:\git\70M\App\WebUI\HTTPGetDevInfo.c
                  __pa_17   0x013416    program     static D:\git\70M\Devices\MainControl_c1.c
                  __pa_17   0x00806a    program     static D:\git\70M\Drivers\External-Peripherals\oled_c2.c
                 __pa_170   0x003860    program     static D:\git\70M\Microchip\TCPIP Stack\TCP.c
                 __pa_171   0x00386a    program     static D:\git\70M\Microchip\TCPIP Stack\TCP.c
                 __pa_172   0x003874    program     static D:\git\70M\Microchip\TCPIP Stack\TCP.c
                 __pa_173   0x00387c    program     static D:\git\70M\Microchip\TCPIP Stack\TCP.c
                 __pa_174   0x003886    program     static D:\git\70M\Microchip\TCPIP Stack\TCP.c
                 __pa_175   0x003894    program     static D:\git\70M\Microchip\TCPIP Stack\TCP.c
                 __pa_176   0x0038bc    program     static D:\git\70M\Microchip\TCPIP Stack\TCP.c
                 __pa_177   0x0038ca    program     static D:\git\70M\Microchip\TCPIP Stack\TCP.c
                 __pa_178   0x0038d2    program     static D:\git\70M\Microchip\TCPIP Stack\TCP.c
                 __pa_179   0x0038dc    program     static D:\git\70M\Microchip\TCPIP Stack\TCP.c
                  __pa_18   0x00aa7e    program     static D:\git\70M\Microchip\TCPIP Stack\MPFS2.c
                  __pa_18   0x00d77e    program     static D:\git\70M\Microchip\TCPIP Stack\Helpers.c
                  __pa_18   0x013b20    program     static D:\git\70M\Devices\VOLDC_c1 .c
                  __pa_18   0x011af8    program     static D:\git\70M\App\WebUI\HTTPApp.c
                  __pa_18   0x011432    program     static D:\git\70M\Drivers\External-Peripherals\oled_c1.c
                  __pa_18   0x00e2d6    program     static C:\Program Files\mcc18\src\traditional\stdclib\vfprintf.c
                  __pa_18   0x00b992    program     static D:\git\70M\App\WebUI\HTTPPrint.c
                  __pa_18   0x00992a    program     static D:\git\70M\App\WebUI\HTTPGetDevInfo.c
                  __pa_18   0x002f14    program     static D:\git\70M\Microchip\TCPIP Stack\TCP.c
                  __pa_18   0x005c32    program     static D:\git\70M\Microchip\TCPIP Stack\HTTP2.c
                  __pa_18   0x00fb5e    program     static D:\git\70M\Microchip\TCPIP Stack\ETH97J60.c
                  __pa_18   0x013428    program     static D:\git\70M\Devices\MainControl_c1.c
                  __pa_18   0x008076    program     static D:\git\70M\Drivers\External-Peripherals\oled_c2.c
                  __pa_18   0x00c828    program     static D:\git\70M\SysLib\util.c 
                 __pa_180   0x0038ea    program     static D:\git\70M\Microchip\TCPIP Stack\TCP.c
                 __pa_181   0x0038f4    program     static D:\git\70M\Microchip\TCPIP Stack\TCP.c
                 __pa_182   0x003902    program     static D:\git\70M\Microchip\TCPIP Stack\TCP.c
                 __pa_183   0x00390e    program     static D:\git\70M\Microchip\TCPIP Stack\TCP.c
                 __pa_184   0x003918    program     static D:\git\70M\Microchip\TCPIP Stack\TCP.c
                 __pa_185   0x003928    program     static D:\git\70M\Microchip\TCPIP Stack\TCP.c
                 __pa_186   0x003932    program     static D:\git\70M\Microchip\TCPIP Stack\TCP.c
                 __pa_187   0x003950    program     static D:\git\70M\Microchip\TCPIP Stack\TCP.c
                 __pa_188   0x003966    program     static D:\git\70M\Microchip\TCPIP Stack\TCP.c
                 __pa_189   0x00397c    program     static D:\git\70M\Microchip\TCPIP Stack\TCP.c
                  __pa_19   0x00e2e0    program     static C:\Program Files\mcc18\src\traditional\stdclib\vfprintf.c
                  __pa_19   0x00b9a2    program     static D:\git\70M\App\WebUI\HTTPPrint.c
                  __pa_19   0x00993e    program     static D:\git\70M\App\WebUI\HTTPGetDevInfo.c
                  __pa_19   0x005c40    program     static D:\git\70M\Microchip\TCPIP Stack\HTTP2.c
                  __pa_19   0x00fb68    program     static D:\git\70M\Microchip\TCPIP Stack\ETH97J60.c
                  __pa_19   0x011b02    program     static D:\git\70M\App\WebUI\HTTPApp.c
                  __pa_19   0x01343a    program     static D:\git\70M\Devices\MainControl_c1.c
                  __pa_19   0x00808c    program     static D:\git\70M\Drivers\External-Peripherals\oled_c2.c
                  __pa_19   0x00aa88    program     static D:\git\70M\Microchip\TCPIP Stack\MPFS2.c
                  __pa_19   0x013b30    program     static D:\git\70M\Devices\VOLDC_c1 .c
                  __pa_19   0x00c83c    program     static D:\git\70M\SysLib\util.c 
                  __pa_19   0x002f1e    program     static D:\git\70M\Microchip\TCPIP Stack\TCP.c
                  __pa_19   0x011442    program     static D:\git\70M\Drivers\External-Peripherals\oled_c1.c
                  __pa_19   0x00d78e    program     static D:\git\70M\Microchip\TCPIP Stack\Helpers.c
                 __pa_190   0x003998    program     static D:\git\70M\Microchip\TCPIP Stack\TCP.c
                 __pa_191   0x0039b4    program     static D:\git\70M\Microchip\TCPIP Stack\TCP.c
                 __pa_192   0x0039c0    program     static D:\git\70M\Microchip\TCPIP Stack\TCP.c
                 __pa_193   0x0039ce    program     static D:\git\70M\Microchip\TCPIP Stack\TCP.c
                 __pa_194   0x0039d8    program     static D:\git\70M\Microchip\TCPIP Stack\TCP.c
                 __pa_195   0x0039e2    program     static D:\git\70M\Microchip\TCPIP Stack\TCP.c
                 __pa_196   0x0039ea    program     static D:\git\70M\Microchip\TCPIP Stack\TCP.c
                 __pa_197   0x0039f4    program     static D:\git\70M\Microchip\TCPIP Stack\TCP.c
                 __pa_198   0x0039fe    program     static D:\git\70M\Microchip\TCPIP Stack\TCP.c
                 __pa_199   0x003a08    program     static D:\git\70M\Microchip\TCPIP Stack\TCP.c
                   __pa_2   0x00c6e4    program     static D:\git\70M\SysLib\util.c 
                   __pa_2   0x012b7a    program     static D:\git\70M\Microchip\TCPIP Stack\ARP.c
                   __pa_2   0x015430    program     static D:\git\70M\Microchip\TCPIP Stack\UART.c
                   __pa_2   0x007e7a    program     static D:\git\70M\Drivers\External-Peripherals\oled_c2.c
                   __pa_2   0x014f42    program     static D:\git\70M\Drivers\MCU-Internal\ISR.c
                   __pa_2   0x01534c    program     static D:\git\70M\Microchip\TCPIP Stack\Tick.c
                   __pa_2   0x014d3c    program     static D:\git\70M\Drivers\External-Peripherals\devadc.c
                   __pa_2   0x01523e    program     static D:\git\70M\Microchip\TCPIP Stack\ICMP.c
                   __pa_2   0x00fa80    program     static D:\git\70M\Microchip\TCPIP Stack\ETH97J60.c
                   __pa_2   0x00b8a4    program     static D:\git\70M\App\WebUI\HTTPPrint.c
                   __pa_2   0x014bcc    program     static D:\git\70M\Microchip\TCPIP Stack\StackTsk.c
                   __pa_2   0x014440    program     static D:\git\70M\Microchip\TCPIP Stack\SPIEEPROM.c
                   __pa_2   0x002d8a    program     static D:\git\70M\Microchip\TCPIP Stack\TCP.c
                   __pa_2   0x01375e    program     static D:\git\70M\Bootstrap\Initialization.c
                   __pa_2   0x013a66    program     static D:\git\70M\Devices\VOLDC_c1 .c
                   __pa_2   0x00d630    program     static D:\git\70M\Microchip\TCPIP Stack\Helpers.c
                   __pa_2   0x01337c    program     static D:\git\70M\Devices\MainControl_c1.c
                   __pa_2   0x005b30    program     static D:\git\70M\Microchip\TCPIP Stack\HTTP2.c
                   __pa_2   0x01413e    program     static D:\git\70M\Microchip\TCPIP Stack\IP.c
                   __pa_2   0x0112fe    program     static D:\git\70M\Drivers\External-Peripherals\oled_c1.c
                   __pa_2   0x00a93a    program     static D:\git\70M\Microchip\TCPIP Stack\MPFS2.c
                   __pa_2   0x00e18c    program     static C:\Program Files\mcc18\src\traditional\stdclib\vfprintf.c
                   __pa_2   0x009788    program     static D:\git\70M\App\WebUI\HTTPGetDevInfo.c
                   __pa_2   0x0126d6    program     static D:\git\70M\Devices\DownConverter_c1.c
                   __pa_2   0x0146f0    program     static D:\git\70M\Drivers\MCU-Internal\i2c_c1.c
                   __pa_2   0x011a3a    program     static D:\git\70M\App\WebUI\HTTPApp.c
                   __pa_2   0x0120e2    program     static D:\git\70M\Devices\UpConverter_c1.c
                  __pa_20   0x011b0c    program     static D:\git\70M\App\WebUI\HTTPApp.c
                  __pa_20   0x01344a    program     static D:\git\70M\Devices\MainControl_c1.c
                  __pa_20   0x00d79e    program     static D:\git\70M\Microchip\TCPIP Stack\Helpers.c
                  __pa_20   0x00c844    program     static D:\git\70M\SysLib\util.c 
                  __pa_20   0x00b9a8    program     static D:\git\70M\App\WebUI\HTTPPrint.c
                  __pa_20   0x00aa96    program     static D:\git\70M\Microchip\TCPIP Stack\MPFS2.c
                  __pa_20   0x00fb72    program     static D:\git\70M\Microchip\TCPIP Stack\ETH97J60.c
                  __pa_20   0x01144e    program     static D:\git\70M\Drivers\External-Peripherals\oled_c1.c
                  __pa_20   0x005c46    program     static D:\git\70M\Microchip\TCPIP Stack\HTTP2.c
                  __pa_20   0x0080a2    program     static D:\git\70M\Drivers\External-Peripherals\oled_c2.c
                  __pa_20   0x002f3a    program     static D:\git\70M\Microchip\TCPIP Stack\TCP.c
                  __pa_20   0x009952    program     static D:\git\70M\App\WebUI\HTTPGetDevInfo.c
                  __pa_20   0x00e2f0    program     static C:\Program Files\mcc18\src\traditional\stdclib\vfprintf.c
                 __pa_200   0x003a12    program     static D:\git\70M\Microchip\TCPIP Stack\TCP.c
                 __pa_201   0x003a28    program     static D:\git\70M\Microchip\TCPIP Stack\TCP.c
                 __pa_202   0x003a34    program     static D:\git\70M\Microchip\TCPIP Stack\TCP.c
                 __pa_203   0x003a40    program     static D:\git\70M\Microchip\TCPIP Stack\TCP.c
                 __pa_204   0x003a46    program     static D:\git\70M\Microchip\TCPIP Stack\TCP.c
                 __pa_205   0x003a52    program     static D:\git\70M\Microchip\TCPIP Stack\TCP.c
                 __pa_206   0x003a66    program     static D:\git\70M\Microchip\TCPIP Stack\TCP.c
                 __pa_207   0x003a7a    program     static D:\git\70M\Microchip\TCPIP Stack\TCP.c
                 __pa_208   0x003a88    program     static D:\git\70M\Microchip\TCPIP Stack\TCP.c
                 __pa_209   0x003a92    program     static D:\git\70M\Microchip\TCPIP Stack\TCP.c
                  __pa_21   0x013458    program     static D:\git\70M\Devices\MainControl_c1.c
                  __pa_21   0x00b9b6    program     static D:\git\70M\App\WebUI\HTTPPrint.c
                  __pa_21   0x009962    program     static D:\git\70M\App\WebUI\HTTPGetDevInfo.c
                  __pa_21   0x0080ae    program     static D:\git\70M\Drivers\External-Peripherals\oled_c2.c
                  __pa_21   0x00fb8a    program     static D:\git\70M\Microchip\TCPIP Stack\ETH97J60.c
                  __pa_21   0x005c50    program     static D:\git\70M\Microchip\TCPIP Stack\HTTP2.c
                  __pa_21   0x00e300    program     static C:\Program Files\mcc18\src\traditional\stdclib\vfprintf.c
                  __pa_21   0x00d7a6    program     static D:\git\70M\Microchip\TCPIP Stack\Helpers.c
                  __pa_21   0x011b1c    program     static D:\git\70M\App\WebUI\HTTPApp.c
                  __pa_21   0x002f46    program     static D:\git\70M\Microchip\TCPIP Stack\TCP.c
                  __pa_21   0x011456    program     static D:\git\70M\Drivers\External-Peripherals\oled_c1.c
                  __pa_21   0x00aab8    program     static D:\git\70M\Microchip\TCPIP Stack\MPFS2.c
                  __pa_21   0x00c856    program     static D:\git\70M\SysLib\util.c 
                 __pa_210   0x003a9a    program     static D:\git\70M\Microchip\TCPIP Stack\TCP.c
                 __pa_211   0x003aa4    program     static D:\git\70M\Microchip\TCPIP Stack\TCP.c
                 __pa_212   0x003aae    program     static D:\git\70M\Microchip\TCPIP Stack\TCP.c
                 __pa_213   0x003ab6    program     static D:\git\70M\Microchip\TCPIP Stack\TCP.c
                 __pa_214   0x003ac4    program     static D:\git\70M\Microchip\TCPIP Stack\TCP.c
                 __pa_215   0x003ace    program     static D:\git\70M\Microchip\TCPIP Stack\TCP.c
                 __pa_216   0x003ada    program     static D:\git\70M\Microchip\TCPIP Stack\TCP.c
                 __pa_217   0x003aec    program     static D:\git\70M\Microchip\TCPIP Stack\TCP.c
                 __pa_218   0x003af2    program     static D:\git\70M\Microchip\TCPIP Stack\TCP.c
                 __pa_219   0x003afa    program     static D:\git\70M\Microchip\TCPIP Stack\TCP.c
                  __pa_22   0x00b9c2    program     static D:\git\70M\App\WebUI\HTTPPrint.c
                  __pa_22   0x011b28    program     static D:\git\70M\App\WebUI\HTTPApp.c
                  __pa_22   0x00c864    program     static D:\git\70M\SysLib\util.c 
                  __pa_22   0x00e310    program     static C:\Program Files\mcc18\src\traditional\stdclib\vfprintf.c
                  __pa_22   0x00d7b4    program     static D:\git\70M\Microchip\TCPIP Stack\Helpers.c
                  __pa_22   0x013466    program     static D:\git\70M\Devices\MainControl_c1.c
                  __pa_22   0x0080bc    program     static D:\git\70M\Drivers\External-Peripherals\oled_c2.c
                  __pa_22   0x00aad8    program     static D:\git\70M\Microchip\TCPIP Stack\MPFS2.c
                  __pa_22   0x009972    program     static D:\git\70M\App\WebUI\HTTPGetDevInfo.c
                  __pa_22   0x00fb92    program     static D:\git\70M\Microchip\TCPIP Stack\ETH97J60.c
                  __pa_22   0x005c5a    program     static D:\git\70M\Microchip\TCPIP Stack\HTTP2.c
                  __pa_22   0x002f54    program     static D:\git\70M\Microchip\TCPIP Stack\TCP.c
                 __pa_220   0x003b0c    program     static D:\git\70M\Microchip\TCPIP Stack\TCP.c
                 __pa_221   0x003b1a    program     static D:\git\70M\Microchip\TCPIP Stack\TCP.c
                 __pa_222   0x003b24    program     static D:\git\70M\Microchip\TCPIP Stack\TCP.c
                 __pa_223   0x003b2e    program     static D:\git\70M\Microchip\TCPIP Stack\TCP.c
                 __pa_224   0x003b38    program     static D:\git\70M\Microchip\TCPIP Stack\TCP.c
                 __pa_225   0x003b40    program     static D:\git\70M\Microchip\TCPIP Stack\TCP.c
                 __pa_226   0x003b4a    program     static D:\git\70M\Microchip\TCPIP Stack\TCP.c
                 __pa_227   0x003b54    program     static D:\git\70M\Microchip\TCPIP Stack\TCP.c
                 __pa_228   0x003b5c    program     static D:\git\70M\Microchip\TCPIP Stack\TCP.c
                 __pa_229   0x003b66    program     static D:\git\70M\Microchip\TCPIP Stack\TCP.c
                  __pa_23   0x00e31c    program     static C:\Program Files\mcc18\src\traditional\stdclib\vfprintf.c
                  __pa_23   0x0080dc    program     static D:\git\70M\Drivers\External-Peripherals\oled_c2.c
                  __pa_23   0x009982    program     static D:\git\70M\App\WebUI\HTTPGetDevInfo.c
                  __pa_23   0x00c87e    program     static D:\git\70M\SysLib\util.c 
                  __pa_23   0x011b32    program     static D:\git\70M\App\WebUI\HTTPApp.c
                  __pa_23   0x002f72    program     static D:\git\70M\Microchip\TCPIP Stack\TCP.c
                  __pa_23   0x00b9ce    program     static D:\git\70M\App\WebUI\HTTPPrint.c
                  __pa_23   0x00d7c2    program     static D:\git\70M\Microchip\TCPIP Stack\Helpers.c
                  __pa_23   0x00fba0    program     static D:\git\70M\Microchip\TCPIP Stack\ETH97J60.c
                  __pa_23   0x005c6e    program     static D:\git\70M\Microchip\TCPIP Stack\HTTP2.c
                  __pa_23   0x00aaea    program     static D:\git\70M\Microchip\TCPIP Stack\MPFS2.c
                 __pa_230   0x003b74    program     static D:\git\70M\Microchip\TCPIP Stack\TCP.c
                 __pa_231   0x003b84    program     static D:\git\70M\Microchip\TCPIP Stack\TCP.c
                 __pa_232   0x003b94    program     static D:\git\70M\Microchip\TCPIP Stack\TCP.c
                 __pa_233   0x003ba2    program     static D:\git\70M\Microchip\TCPIP Stack\TCP.c
                 __pa_234   0x003bb0    program     static D:\git\70M\Microchip\TCPIP Stack\TCP.c
                 __pa_235   0x003bbc    program     static D:\git\70M\Microchip\TCPIP Stack\TCP.c
                 __pa_236   0x003bc8    program     static D:\git\70M\Microchip\TCPIP Stack\TCP.c
                 __pa_237   0x003bd2    program     static D:\git\70M\Microchip\TCPIP Stack\TCP.c
                 __pa_238   0x003bde    program     static D:\git\70M\Microchip\TCPIP Stack\TCP.c
                 __pa_239   0x003bec    program     static D:\git\70M\Microchip\TCPIP Stack\TCP.c
                  __pa_24   0x00c88a    program     static D:\git\70M\SysLib\util.c 
                  __pa_24   0x00aafc    program     static D:\git\70M\Microchip\TCPIP Stack\MPFS2.c
                  __pa_24   0x005c7a    program     static D:\git\70M\Microchip\TCPIP Stack\HTTP2.c
                  __pa_24   0x00fba8    program     static D:\git\70M\Microchip\TCPIP Stack\ETH97J60.c
                  __pa_24   0x011b38    program     static D:\git\70M\App\WebUI\HTTPApp.c
                  __pa_24   0x00d7d6    program     static D:\git\70M\Microchip\TCPIP Stack\Helpers.c
                  __pa_24   0x00998c    program     static D:\git\70M\App\WebUI\HTTPGetDevInfo.c
                  __pa_24   0x00e32a    program     static C:\Program Files\mcc18\src\traditional\stdclib\vfprintf.c
                  __pa_24   0x0080ec    program     static D:\git\70M\Drivers\External-Peripherals\oled_c2.c
                  __pa_24   0x00b9e8    program     static D:\git\70M\App\WebUI\HTTPPrint.c
                  __pa_24   0x002f7c    program     static D:\git\70M\Microchip\TCPIP Stack\TCP.c
                 __pa_240   0x003bfa    program     static D:\git\70M\Microchip\TCPIP Stack\TCP.c
                 __pa_241   0x003c08    program     static D:\git\70M\Microchip\TCPIP Stack\TCP.c
                 __pa_242   0x003c16    program     static D:\git\70M\Microchip\TCPIP Stack\TCP.c
                 __pa_243   0x003c24    program     static D:\git\70M\Microchip\TCPIP Stack\TCP.c
                 __pa_244   0x003c32    program     static D:\git\70M\Microchip\TCPIP Stack\TCP.c
                 __pa_245   0x003c40    program     static D:\git\70M\Microchip\TCPIP Stack\TCP.c
                 __pa_246   0x003c4e    program     static D:\git\70M\Microchip\TCPIP Stack\TCP.c
                 __pa_247   0x003c5c    program     static D:\git\70M\Microchip\TCPIP Stack\TCP.c
                 __pa_248   0x003c6a    program     static D:\git\70M\Microchip\TCPIP Stack\TCP.c
                 __pa_249   0x003c78    program     static D:\git\70M\Microchip\TCPIP Stack\TCP.c
                  __pa_25   0x0080f8    program     static D:\git\70M\Drivers\External-Peripherals\oled_c2.c
                  __pa_25   0x00d7e0    program     static D:\git\70M\Microchip\TCPIP Stack\Helpers.c
                  __pa_25   0x00fbb8    program     static D:\git\70M\Microchip\TCPIP Stack\ETH97J60.c
                  __pa_25   0x00ab0a    program     static D:\git\70M\Microchip\TCPIP Stack\MPFS2.c
                  __pa_25   0x00c896    program     static D:\git\70M\SysLib\util.c 
                  __pa_25   0x005c80    program     static D:\git\70M\Microchip\TCPIP Stack\HTTP2.c
                  __pa_25   0x009994    program     static D:\git\70M\App\WebUI\HTTPGetDevInfo.c
                  __pa_25   0x00e332    program     static C:\Program Files\mcc18\src\traditional\stdclib\vfprintf.c
                  __pa_25   0x00b9f4    program     static D:\git\70M\App\WebUI\HTTPPrint.c
                  __pa_25   0x002f86    program     static D:\git\70M\Microchip\TCPIP Stack\TCP.c
                 __pa_250   0x003c86    program     static D:\git\70M\Microchip\TCPIP Stack\TCP.c
                 __pa_251   0x003c8e    program     static D:\git\70M\Microchip\TCPIP Stack\TCP.c
                 __pa_252   0x003c98    program     static D:\git\70M\Microchip\TCPIP Stack\TCP.c
                 __pa_253   0x003ca2    program     static D:\git\70M\Microchip\TCPIP Stack\TCP.c
                 __pa_254   0x003cac    program     static D:\git\70M\Microchip\TCPIP Stack\TCP.c
                 __pa_255   0x003cb6    program     static D:\git\70M\Microchip\TCPIP Stack\TCP.c
                 __pa_256   0x003cbe    program     static D:\git\70M\Microchip\TCPIP Stack\TCP.c
                 __pa_257   0x003cc8    program     static D:\git\70M\Microchip\TCPIP Stack\TCP.c
                 __pa_258   0x003cd2    program     static D:\git\70M\Microchip\TCPIP Stack\TCP.c
                 __pa_259   0x003cdc    program     static D:\git\70M\Microchip\TCPIP Stack\TCP.c
                  __pa_26   0x005c86    program     static D:\git\70M\Microchip\TCPIP Stack\HTTP2.c
                  __pa_26   0x00ba00    program     static D:\git\70M\App\WebUI\HTTPPrint.c
                  __pa_26   0x00fbc4    program     static D:\git\70M\Microchip\TCPIP Stack\ETH97J60.c
                  __pa_26   0x00d7ee    program     static D:\git\70M\Microchip\TCPIP Stack\Helpers.c
                  __pa_26   0x00811e    program     static D:\git\70M\Drivers\External-Peripherals\oled_c2.c
                  __pa_26   0x0099a2    program     static D:\git\70M\App\WebUI\HTTPGetDevInfo.c
                  __pa_26   0x00c8a4    program     static D:\git\70M\SysLib\util.c 
                  __pa_26   0x002f92    program     static D:\git\70M\Microchip\TCPIP Stack\TCP.c
                  __pa_26   0x00e33c    program     static C:\Program Files\mcc18\src\traditional\stdclib\vfprintf.c
                  __pa_26   0x00ab26    program     static D:\git\70M\Microchip\TCPIP Stack\MPFS2.c
                 __pa_260   0x003ce6    program     static D:\git\70M\Microchip\TCPIP Stack\TCP.c
                 __pa_261   0x003cee    program     static D:\git\70M\Microchip\TCPIP Stack\TCP.c
                 __pa_262   0x003cfa    program     static D:\git\70M\Microchip\TCPIP Stack\TCP.c
                 __pa_263   0x003d0a    program     static D:\git\70M\Microchip\TCPIP Stack\TCP.c
                 __pa_264   0x003d14    program     static D:\git\70M\Microchip\TCPIP Stack\TCP.c
                 __pa_265   0x003d26    program     static D:\git\70M\Microchip\TCPIP Stack\TCP.c
                 __pa_266   0x003d36    program     static D:\git\70M\Microchip\TCPIP Stack\TCP.c
                 __pa_267   0x003d44    program     static D:\git\70M\Microchip\TCPIP Stack\TCP.c
                 __pa_268   0x003d4a    program     static D:\git\70M\Microchip\TCPIP Stack\TCP.c
                 __pa_269   0x003d58    program     static D:\git\70M\Microchip\TCPIP Stack\TCP.c
                  __pa_27   0x008128    program     static D:\git\70M\Drivers\External-Peripherals\oled_c2.c
                  __pa_27   0x00d7fc    program     static D:\git\70M\Microchip\TCPIP Stack\Helpers.c
                  __pa_27   0x005c8c    program     static D:\git\70M\Microchip\TCPIP Stack\HTTP2.c
                  __pa_27   0x002fa8    program     static D:\git\70M\Microchip\TCPIP Stack\TCP.c
                  __pa_27   0x00ba0a    program     static D:\git\70M\App\WebUI\HTTPPrint.c
                  __pa_27   0x00ab40    program     static D:\git\70M\Microchip\TCPIP Stack\MPFS2.c
                  __pa_27   0x00fbd2    program     static D:\git\70M\Microchip\TCPIP Stack\ETH97J60.c
                  __pa_27   0x00e346    program     static C:\Program Files\mcc18\src\traditional\stdclib\vfprintf.c
                  __pa_27   0x00c8b2    program     static D:\git\70M\SysLib\util.c 
                  __pa_27   0x0099ba    program     static D:\git\70M\App\WebUI\HTTPGetDevInfo.c
                 __pa_270   0x003d60    program     static D:\git\70M\Microchip\TCPIP Stack\TCP.c
                 __pa_271   0x003d6a    program     static D:\git\70M\Microchip\TCPIP Stack\TCP.c
                 __pa_272   0x003d72    program     static D:\git\70M\Microchip\TCPIP Stack\TCP.c
                 __pa_273   0x003d7a    program     static D:\git\70M\Microchip\TCPIP Stack\TCP.c
                 __pa_274   0x003d86    program     static D:\git\70M\Microchip\TCPIP Stack\TCP.c
                 __pa_275   0x003d92    program     static D:\git\70M\Microchip\TCPIP Stack\TCP.c
                 __pa_276   0x003d9e    program     static D:\git\70M\Microchip\TCPIP Stack\TCP.c
                 __pa_277   0x003daa    program     static D:\git\70M\Microchip\TCPIP Stack\TCP.c
                 __pa_278   0x003db6    program     static D:\git\70M\Microchip\TCPIP Stack\TCP.c
                 __pa_279   0x003dbe    program     static D:\git\70M\Microchip\TCPIP Stack\TCP.c
                  __pa_28   0x00d80c    program     static D:\git\70M\Microchip\TCPIP Stack\Helpers.c
                  __pa_28   0x005c92    program     static D:\git\70M\Microchip\TCPIP Stack\HTTP2.c
                  __pa_28   0x00ab5a    program     static D:\git\70M\Microchip\TCPIP Stack\MPFS2.c
                  __pa_28   0x00e34e    program     static C:\Program Files\mcc18\src\traditional\stdclib\vfprintf.c
                  __pa_28   0x00fbe2    program     static D:\git\70M\Microchip\TCPIP Stack\ETH97J60.c
                  __pa_28   0x00c8bc    program     static D:\git\70M\SysLib\util.c 
                  __pa_28   0x008148    program     static D:\git\70M\Drivers\External-Peripherals\oled_c2.c
                  __pa_28   0x002fb6    program     static D:\git\70M\Microchip\TCPIP Stack\TCP.c
                  __pa_28   0x00ba16    program     static D:\git\70M\App\WebUI\HTTPPrint.c
                  __pa_28   0x0099c6    program     static D:\git\70M\App\WebUI\HTTPGetDevInfo.c
                 __pa_280   0x003dc6    program     static D:\git\70M\Microchip\TCPIP Stack\TCP.c
                 __pa_281   0x003dce    program     static D:\git\70M\Microchip\TCPIP Stack\TCP.c
                 __pa_282   0x003dd6    program     static D:\git\70M\Microchip\TCPIP Stack\TCP.c
                 __pa_283   0x003de0    program     static D:\git\70M\Microchip\TCPIP Stack\TCP.c
                 __pa_284   0x003de8    program     static D:\git\70M\Microchip\TCPIP Stack\TCP.c
                 __pa_285   0x003df0    program     static D:\git\70M\Microchip\TCPIP Stack\TCP.c
                 __pa_286   0x003df8    program     static D:\git\70M\Microchip\TCPIP Stack\TCP.c
                 __pa_287   0x003e00    program     static D:\git\70M\Microchip\TCPIP Stack\TCP.c
                  __pa_29   0x0099f0    program     static D:\git\70M\App\WebUI\HTTPGetDevInfo.c
                  __pa_29   0x00c8d0    program     static D:\git\70M\SysLib\util.c 
                  __pa_29   0x00fbec    program     static D:\git\70M\Microchip\TCPIP Stack\ETH97J60.c
                  __pa_29   0x00ab74    program     static D:\git\70M\Microchip\TCPIP Stack\MPFS2.c
                  __pa_29   0x005c9c    program     static D:\git\70M\Microchip\TCPIP Stack\HTTP2.c
                  __pa_29   0x00d81a    program     static D:\git\70M\Microchip\TCPIP Stack\Helpers.c
                  __pa_29   0x008160    program     static D:\git\70M\Drivers\External-Peripherals\oled_c2.c
                  __pa_29   0x002fc4    program     static D:\git\70M\Microchip\TCPIP Stack\TCP.c
                  __pa_29   0x00ba1c    program     static D:\git\70M\App\WebUI\HTTPPrint.c
                  __pa_29   0x00e35c    program     static C:\Program Files\mcc18\src\traditional\stdclib\vfprintf.c
                   __pa_3   0x014d48    program     static D:\git\70M\Drivers\External-Peripherals\devadc.c
                   __pa_3   0x01376e    program     static D:\git\70M\Bootstrap\Initialization.c
                   __pa_3   0x0120ea    program     static D:\git\70M\Devices\UpConverter_c1.c
                   __pa_3   0x00b8be    program     static D:\git\70M\App\WebUI\HTTPPrint.c
                   __pa_3   0x00fa9e    program     static D:\git\70M\Microchip\TCPIP Stack\ETH97J60.c
                   __pa_3   0x00c6f0    program     static D:\git\70M\SysLib\util.c 
                   __pa_3   0x0097a4    program     static D:\git\70M\App\WebUI\HTTPGetDevInfo.c
                   __pa_3   0x013388    program     static D:\git\70M\Devices\MainControl_c1.c
                   __pa_3   0x005b3c    program     static D:\git\70M\Microchip\TCPIP Stack\HTTP2.c
                   __pa_3   0x013a74    program     static D:\git\70M\Devices\VOLDC_c1 .c
                   __pa_3   0x014f5a    program     static D:\git\70M\Drivers\MCU-Internal\ISR.c
                   __pa_3   0x012b86    program     static D:\git\70M\Microchip\TCPIP Stack\ARP.c
                   __pa_3   0x00a93e    program     static D:\git\70M\Microchip\TCPIP Stack\MPFS2.c
                   __pa_3   0x00d63c    program     static D:\git\70M\Microchip\TCPIP Stack\Helpers.c
                   __pa_3   0x00e196    program     static C:\Program Files\mcc18\src\traditional\stdclib\vfprintf.c
                   __pa_3   0x014710    program     static D:\git\70M\Drivers\MCU-Internal\i2c_c1.c
                   __pa_3   0x002d98    program     static D:\git\70M\Microchip\TCPIP Stack\TCP.c
                   __pa_3   0x015358    program     static D:\git\70M\Microchip\TCPIP Stack\Tick.c
                   __pa_3   0x011312    program     static D:\git\70M\Drivers\External-Peripherals\oled_c1.c
                   __pa_3   0x0126de    program     static D:\git\70M\Devices\DownConverter_c1.c
                   __pa_3   0x011a48    program     static D:\git\70M\App\WebUI\HTTPApp.c
                   __pa_3   0x01414a    program     static D:\git\70M\Microchip\TCPIP Stack\IP.c
                   __pa_3   0x007eec    program     static D:\git\70M\Drivers\External-Peripherals\oled_c2.c
                   __pa_3   0x015440    program     static D:\git\70M\Microchip\TCPIP Stack\UART.c
                   __pa_3   0x01445a    program     static D:\git\70M\Microchip\TCPIP Stack\SPIEEPROM.c
                  __pa_30   0x00e378    program     static C:\Program Files\mcc18\src\traditional\stdclib\vfprintf.c
                  __pa_30   0x00ba2a    program     static D:\git\70M\App\WebUI\HTTPPrint.c
                  __pa_30   0x002fd2    program     static D:\git\70M\Microchip\TCPIP Stack\TCP.c
                  __pa_30   0x00816e    program     static D:\git\70M\Drivers\External-Peripherals\oled_c2.c
                  __pa_30   0x005caa    program     static D:\git\70M\Microchip\TCPIP Stack\HTTP2.c
                  __pa_30   0x00fbf6    program     static D:\git\70M\Microchip\TCPIP Stack\ETH97J60.c
                  __pa_30   0x00d824    program     static D:\git\70M\Microchip\TCPIP Stack\Helpers.c
                  __pa_30   0x00ab84    program     static D:\git\70M\Microchip\TCPIP Stack\MPFS2.c
                  __pa_30   0x00c8dc    program     static D:\git\70M\SysLib\util.c 
                  __pa_30   0x0099fa    program     static D:\git\70M\App\WebUI\HTTPGetDevInfo.c
                  __pa_31   0x00d82c    program     static D:\git\70M\Microchip\TCPIP Stack\Helpers.c
                  __pa_31   0x00e392    program     static C:\Program Files\mcc18\src\traditional\stdclib\vfprintf.c
                  __pa_31   0x00ba3e    program     static D:\git\70M\App\WebUI\HTTPPrint.c
                  __pa_31   0x00ab9c    program     static D:\git\70M\Microchip\TCPIP Stack\MPFS2.c
                  __pa_31   0x009a0a    program     static D:\git\70M\App\WebUI\HTTPGetDevInfo.c
                  __pa_31   0x002fde    program     static D:\git\70M\Microchip\TCPIP Stack\TCP.c
                  __pa_31   0x00817c    program     static D:\git\70M\Drivers\External-Peripherals\oled_c2.c
                  __pa_31   0x00fbfe    program     static D:\git\70M\Microchip\TCPIP Stack\ETH97J60.c
                  __pa_31   0x00c8e4    program     static D:\git\70M\SysLib\util.c 
                  __pa_31   0x005cb4    program     static D:\git\70M\Microchip\TCPIP Stack\HTTP2.c
                  __pa_32   0x00ba50    program     static D:\git\70M\App\WebUI\HTTPPrint.c
                  __pa_32   0x00c8f0    program     static D:\git\70M\SysLib\util.c 
                  __pa_32   0x009a10    program     static D:\git\70M\App\WebUI\HTTPGetDevInfo.c
                  __pa_32   0x00abae    program     static D:\git\70M\Microchip\TCPIP Stack\MPFS2.c
                  __pa_32   0x005cc4    program     static D:\git\70M\Microchip\TCPIP Stack\HTTP2.c
                  __pa_32   0x00e3ac    program     static C:\Program Files\mcc18\src\traditional\stdclib\vfprintf.c
                  __pa_32   0x00818a    program     static D:\git\70M\Drivers\External-Peripherals\oled_c2.c
                  __pa_32   0x002fe6    program     static D:\git\70M\Microchip\TCPIP Stack\TCP.c
                  __pa_33   0x008198    program     static D:\git\70M\Drivers\External-Peripherals\oled_c2.c
                  __pa_33   0x00abc4    program     static D:\git\70M\Microchip\TCPIP Stack\MPFS2.c
                  __pa_33   0x00c8fa    program     static D:\git\70M\SysLib\util.c 
                  __pa_33   0x00ba62    program     static D:\git\70M\App\WebUI\HTTPPrint.c
                  __pa_33   0x009a16    program     static D:\git\70M\App\WebUI\HTTPGetDevInfo.c
                  __pa_33   0x005cd2    program     static D:\git\70M\Microchip\TCPIP Stack\HTTP2.c
                  __pa_33   0x00e3c4    program     static C:\Program Files\mcc18\src\traditional\stdclib\vfprintf.c
                  __pa_33   0x003010    program     static D:\git\70M\Microchip\TCPIP Stack\TCP.c
                  __pa_34   0x005ce6    program     static D:\git\70M\Microchip\TCPIP Stack\HTTP2.c
                  __pa_34   0x00c90a    program     static D:\git\70M\SysLib\util.c 
                  __pa_34   0x009a20    program     static D:\git\70M\App\WebUI\HTTPGetDevInfo.c
                  __pa_34   0x00ba74    program     static D:\git\70M\App\WebUI\HTTPPrint.c
                  __pa_34   0x00e3ce    program     static C:\Program Files\mcc18\src\traditional\stdclib\vfprintf.c
                  __pa_34   0x0081a6    program     static D:\git\70M\Drivers\External-Peripherals\oled_c2.c
                  __pa_34   0x003024    program     static D:\git\70M\Microchip\TCPIP Stack\TCP.c
                  __pa_34   0x00abd2    program     static D:\git\70M\Microchip\TCPIP Stack\MPFS2.c
                  __pa_35   0x0081bc    program     static D:\git\70M\Drivers\External-Peripherals\oled_c2.c
                  __pa_35   0x003040    program     static D:\git\70M\Microchip\TCPIP Stack\TCP.c
                  __pa_35   0x00abe0    program     static D:\git\70M\Microchip\TCPIP Stack\MPFS2.c
                  __pa_35   0x00c918    program     static D:\git\70M\SysLib\util.c 
                  __pa_35   0x005cf6    program     static D:\git\70M\Microchip\TCPIP Stack\HTTP2.c
                  __pa_35   0x00ba86    program     static D:\git\70M\App\WebUI\HTTPPrint.c
                  __pa_35   0x00e3dc    program     static C:\Program Files\mcc18\src\traditional\stdclib\vfprintf.c
                  __pa_35   0x009a2e    program     static D:\git\70M\App\WebUI\HTTPGetDevInfo.c
                  __pa_36   0x00e3e4    program     static C:\Program Files\mcc18\src\traditional\stdclib\vfprintf.c
                  __pa_36   0x00c926    program     static D:\git\70M\SysLib\util.c 
                  __pa_36   0x005d0a    program     static D:\git\70M\Microchip\TCPIP Stack\HTTP2.c
                  __pa_36   0x00ba92    program     static D:\git\70M\App\WebUI\HTTPPrint.c
                  __pa_36   0x00abee    program     static D:\git\70M\Microchip\TCPIP Stack\MPFS2.c
                  __pa_36   0x009a36    program     static D:\git\70M\App\WebUI\HTTPGetDevInfo.c
                  __pa_36   0x0081d0    program     static D:\git\70M\Drivers\External-Peripherals\oled_c2.c
                  __pa_36   0x00305a    program     static D:\git\70M\Microchip\TCPIP Stack\TCP.c
                  __pa_37   0x005d1a    program     static D:\git\70M\Microchip\TCPIP Stack\HTTP2.c
                  __pa_37   0x00e3ee    program     static C:\Program Files\mcc18\src\traditional\stdclib\vfprintf.c
                  __pa_37   0x003062    program     static D:\git\70M\Microchip\TCPIP Stack\TCP.c
                  __pa_37   0x0081de    program     static D:\git\70M\Drivers\External-Peripherals\oled_c2.c
                  __pa_37   0x009a48    program     static D:\git\70M\App\WebUI\HTTPGetDevInfo.c
                  __pa_37   0x00abf8    program     static D:\git\70M\Microchip\TCPIP Stack\MPFS2.c
                  __pa_37   0x00ba9c    program     static D:\git\70M\App\WebUI\HTTPPrint.c
                  __pa_37   0x00c934    program     static D:\git\70M\SysLib\util.c 
                  __pa_38   0x00ac0a    program     static D:\git\70M\Microchip\TCPIP Stack\MPFS2.c
                  __pa_38   0x00baa2    program     static D:\git\70M\App\WebUI\HTTPPrint.c
                  __pa_38   0x009a58    program     static D:\git\70M\App\WebUI\HTTPGetDevInfo.c
                  __pa_38   0x00c93e    program     static D:\git\70M\SysLib\util.c 
                  __pa_38   0x005d28    program     static D:\git\70M\Microchip\TCPIP Stack\HTTP2.c
                  __pa_38   0x00e3fe    program     static C:\Program Files\mcc18\src\traditional\stdclib\vfprintf.c
                  __pa_38   0x0081f6    program     static D:\git\70M\Drivers\External-Peripherals\oled_c2.c
                  __pa_38   0x003072    program     static D:\git\70M\Microchip\TCPIP Stack\TCP.c
                  __pa_39   0x009a74    program     static D:\git\70M\App\WebUI\HTTPGetDevInfo.c
                  __pa_39   0x008202    program     static D:\git\70M\Drivers\External-Peripherals\oled_c2.c
                  __pa_39   0x005d30    program     static D:\git\70M\Microchip\TCPIP Stack\HTTP2.c
                  __pa_39   0x00bab2    program     static D:\git\70M\App\WebUI\HTTPPrint.c
                  __pa_39   0x00c948    program     static D:\git\70M\SysLib\util.c 
                  __pa_39   0x00e40c    program     static C:\Program Files\mcc18\src\traditional\stdclib\vfprintf.c
                  __pa_39   0x00ac18    program     static D:\git\70M\Microchip\TCPIP Stack\MPFS2.c
                  __pa_39   0x003082    program     static D:\git\70M\Microchip\TCPIP Stack\TCP.c
                   __pa_4   0x00d65e    program     static D:\git\70M\Microchip\TCPIP Stack\Helpers.c
                   __pa_4   0x013a80    program     static D:\git\70M\Devices\VOLDC_c1 .c
                   __pa_4   0x014d62    program     static D:\git\70M\Drivers\External-Peripherals\devadc.c
                   __pa_4   0x005b58    program     static D:\git\70M\Microchip\TCPIP Stack\HTTP2.c
                   __pa_4   0x00a94a    program     static D:\git\70M\Microchip\TCPIP Stack\MPFS2.c
                   __pa_4   0x013394    program     static D:\git\70M\Devices\MainControl_c1.c
                   __pa_4   0x01471c    program     static D:\git\70M\Drivers\MCU-Internal\i2c_c1.c
                   __pa_4   0x00e1ae    program     static C:\Program Files\mcc18\src\traditional\stdclib\vfprintf.c
                   __pa_4   0x012b9a    program     static D:\git\70M\Microchip\TCPIP Stack\ARP.c
                   __pa_4   0x00c6fc    program     static D:\git\70M\SysLib\util.c 
                   __pa_4   0x002da4    program     static D:\git\70M\Microchip\TCPIP Stack\TCP.c
                   __pa_4   0x0120f6    program     static D:\git\70M\Devices\UpConverter_c1.c
                   __pa_4   0x00b8ca    program     static D:\git\70M\App\WebUI\HTTPPrint.c
                   __pa_4   0x00fab6    program     static D:\git\70M\Microchip\TCPIP Stack\ETH97J60.c
                   __pa_4   0x0097b6    program     static D:\git\70M\App\WebUI\HTTPGetDevInfo.c
                   __pa_4   0x007f34    program     static D:\git\70M\Drivers\External-Peripherals\oled_c2.c
                   __pa_4   0x014150    program     static D:\git\70M\Microchip\TCPIP Stack\IP.c
                   __pa_4   0x011a66    program     static D:\git\70M\App\WebUI\HTTPApp.c
                   __pa_4   0x013798    program     static D:\git\70M\Bootstrap\Initialization.c
                   __pa_4   0x0126ea    program     static D:\git\70M\Devices\DownConverter_c1.c
                   __pa_4   0x01446a    program     static D:\git\70M\Microchip\TCPIP Stack\SPIEEPROM.c
                   __pa_4   0x011316    program     static D:\git\70M\Drivers\External-Peripherals\oled_c1.c
                  __pa_40   0x00bac2    program     static D:\git\70M\App\WebUI\HTTPPrint.c
                  __pa_40   0x00e418    program     static C:\Program Files\mcc18\src\traditional\stdclib\vfprintf.c
                  __pa_40   0x00ac26    program     static D:\git\70M\Microchip\TCPIP Stack\MPFS2.c
                  __pa_40   0x00c952    program     static D:\git\70M\SysLib\util.c 
                  __pa_40   0x009a8c    program     static D:\git\70M\App\WebUI\HTTPGetDevInfo.c
                  __pa_40   0x00820a    program     static D:\git\70M\Drivers\External-Peripherals\oled_c2.c
                  __pa_40   0x005d3e    program     static D:\git\70M\Microchip\TCPIP Stack\HTTP2.c
                  __pa_40   0x003090    program     static D:\git\70M\Microchip\TCPIP Stack\TCP.c
                  __pa_41   0x00bad2    program     static D:\git\70M\App\WebUI\HTTPPrint.c
                  __pa_41   0x008216    program     static D:\git\70M\Drivers\External-Peripherals\oled_c2.c
                  __pa_41   0x009a9a    program     static D:\git\70M\App\WebUI\HTTPGetDevInfo.c
                  __pa_41   0x00e424    program     static C:\Program Files\mcc18\src\traditional\stdclib\vfprintf.c
                  __pa_41   0x005d4a    program     static D:\git\70M\Microchip\TCPIP Stack\HTTP2.c
                  __pa_41   0x00c95c    program     static D:\git\70M\SysLib\util.c 
                  __pa_41   0x00ac30    program     static D:\git\70M\Microchip\TCPIP Stack\MPFS2.c
                  __pa_41   0x0030ac    program     static D:\git\70M\Microchip\TCPIP Stack\TCP.c
                  __pa_42   0x00ac3a    program     static D:\git\70M\Microchip\TCPIP Stack\MPFS2.c
                  __pa_42   0x00c980    program     static D:\git\70M\SysLib\util.c 
                  __pa_42   0x00bae2    program     static D:\git\70M\App\WebUI\HTTPPrint.c
                  __pa_42   0x005d56    program     static D:\git\70M\Microchip\TCPIP Stack\HTTP2.c
                  __pa_42   0x00e42c    program     static C:\Program Files\mcc18\src\traditional\stdclib\vfprintf.c
                  __pa_42   0x0030b4    program     static D:\git\70M\Microchip\TCPIP Stack\TCP.c
                  __pa_42   0x009aa8    program     static D:\git\70M\App\WebUI\HTTPGetDevInfo.c
                  __pa_42   0x008224    program     static D:\git\70M\Drivers\External-Peripherals\oled_c2.c
                  __pa_43   0x00822c    program     static D:\git\70M\Drivers\External-Peripherals\oled_c2.c
                  __pa_43   0x00baf0    program     static D:\git\70M\App\WebUI\HTTPPrint.c
                  __pa_43   0x009ab6    program     static D:\git\70M\App\WebUI\HTTPGetDevInfo.c
                  __pa_43   0x00e436    program     static C:\Program Files\mcc18\src\traditional\stdclib\vfprintf.c
                  __pa_43   0x0030cc    program     static D:\git\70M\Microchip\TCPIP Stack\TCP.c
                  __pa_43   0x00c988    program     static D:\git\70M\SysLib\util.c 
                  __pa_43   0x005d60    program     static D:\git\70M\Microchip\TCPIP Stack\HTTP2.c
                  __pa_43   0x00ac4c    program     static D:\git\70M\Microchip\TCPIP Stack\MPFS2.c
                  __pa_44   0x0030de    program     static D:\git\70M\Microchip\TCPIP Stack\TCP.c
                  __pa_44   0x00bb04    program     static D:\git\70M\App\WebUI\HTTPPrint.c
                  __pa_44   0x00ac74    program     static D:\git\70M\Microchip\TCPIP Stack\MPFS2.c
                  __pa_44   0x008234    program     static D:\git\70M\Drivers\External-Peripherals\oled_c2.c
                  __pa_44   0x00e43c    program     static C:\Program Files\mcc18\src\traditional\stdclib\vfprintf.c
                  __pa_44   0x00c98e    program     static D:\git\70M\SysLib\util.c 
                  __pa_44   0x009acc    program     static D:\git\70M\App\WebUI\HTTPGetDevInfo.c
                  __pa_44   0x005d68    program     static D:\git\70M\Microchip\TCPIP Stack\HTTP2.c
                  __pa_45   0x0030e8    program     static D:\git\70M\Microchip\TCPIP Stack\TCP.c
                  __pa_45   0x00c9a0    program     static D:\git\70M\SysLib\util.c 
                  __pa_45   0x00ac7e    program     static D:\git\70M\Microchip\TCPIP Stack\MPFS2.c
                  __pa_45   0x005d78    program     static D:\git\70M\Microchip\TCPIP Stack\HTTP2.c
                  __pa_45   0x00e446    program     static C:\Program Files\mcc18\src\traditional\stdclib\vfprintf.c
                  __pa_45   0x008246    program     static D:\git\70M\Drivers\External-Peripherals\oled_c2.c
                  __pa_45   0x00bb12    program     static D:\git\70M\App\WebUI\HTTPPrint.c
                  __pa_45   0x009ad6    program     static D:\git\70M\App\WebUI\HTTPGetDevInfo.c
                  __pa_46   0x0030fa    program     static D:\git\70M\Microchip\TCPIP Stack\TCP.c
                  __pa_46   0x008258    program     static D:\git\70M\Drivers\External-Peripherals\oled_c2.c
                  __pa_46   0x00c9ae    program     static D:\git\70M\SysLib\util.c 
                  __pa_46   0x00e452    program     static C:\Program Files\mcc18\src\traditional\stdclib\vfprintf.c
                  __pa_46   0x005d88    program     static D:\git\70M\Microchip\TCPIP Stack\HTTP2.c
                  __pa_46   0x00ac98    program     static D:\git\70M\Microchip\TCPIP Stack\MPFS2.c
                  __pa_46   0x00bb16    program     static D:\git\70M\App\WebUI\HTTPPrint.c
                  __pa_46   0x009ae0    program     static D:\git\70M\App\WebUI\HTTPGetDevInfo.c
                  __pa_47   0x009aec    program     static D:\git\70M\App\WebUI\HTTPGetDevInfo.c
                  __pa_47   0x00bb1a    program     static D:\git\70M\App\WebUI\HTTPPrint.c
                  __pa_47   0x003120    program     static D:\git\70M\Microchip\TCPIP Stack\TCP.c
                  __pa_47   0x00aca0    program     static D:\git\70M\Microchip\TCPIP Stack\MPFS2.c
                  __pa_47   0x008262    program     static D:\git\70M\Drivers\External-Peripherals\oled_c2.c
                  __pa_47   0x005d98    program     static D:\git\70M\Microchip\TCPIP Stack\HTTP2.c
                  __pa_47   0x00c9bc    program     static D:\git\70M\SysLib\util.c 
                  __pa_48   0x00313e    program     static D:\git\70M\Microchip\TCPIP Stack\TCP.c
                  __pa_48   0x009af8    program     static D:\git\70M\App\WebUI\HTTPGetDevInfo.c
                  __pa_48   0x00826c    program     static D:\git\70M\Drivers\External-Peripherals\oled_c2.c
                  __pa_48   0x005da8    program     static D:\git\70M\Microchip\TCPIP Stack\HTTP2.c
                  __pa_48   0x00c9c6    program     static D:\git\70M\SysLib\util.c 
                  __pa_48   0x00acb0    program     static D:\git\70M\Microchip\TCPIP Stack\MPFS2.c
                  __pa_48   0x00bb1e    program     static D:\git\70M\App\WebUI\HTTPPrint.c
                  __pa_49   0x009b04    program     static D:\git\70M\App\WebUI\HTTPGetDevInfo.c
                  __pa_49   0x00c9d8    program     static D:\git\70M\SysLib\util.c 
                  __pa_49   0x008274    program     static D:\git\70M\Drivers\External-Peripherals\oled_c2.c
                  __pa_49   0x00acc8    program     static D:\git\70M\Microchip\TCPIP Stack\MPFS2.c
                  __pa_49   0x00bb26    program     static D:\git\70M\App\WebUI\HTTPPrint.c
                  __pa_49   0x00315e    program     static D:\git\70M\Microchip\TCPIP Stack\TCP.c
                  __pa_49   0x005dae    program     static D:\git\70M\Microchip\TCPIP Stack\HTTP2.c
                   __pa_5   0x00b8da    program     static D:\git\70M\App\WebUI\HTTPPrint.c
                   __pa_5   0x014736    program     static D:\git\70M\Drivers\MCU-Internal\i2c_c1.c
                   __pa_5   0x002dae    program     static D:\git\70M\Microchip\TCPIP Stack\TCP.c
                   __pa_5   0x0137a6    program     static D:\git\70M\Bootstrap\Initialization.c
                   __pa_5   0x0133a0    program     static D:\git\70M\Devices\MainControl_c1.c
                   __pa_5   0x011322    program     static D:\git\70M\Drivers\External-Peripherals\oled_c1.c
                   __pa_5   0x012ba4    program     static D:\git\70M\Microchip\TCPIP Stack\ARP.c
                   __pa_5   0x012700    program     static D:\git\70M\Devices\DownConverter_c1.c
                   __pa_5   0x00a95c    program     static D:\git\70M\Microchip\TCPIP Stack\MPFS2.c
                   __pa_5   0x012100    program     static D:\git\70M\Devices\UpConverter_c1.c
                   __pa_5   0x014d70    program     static D:\git\70M\Drivers\External-Peripherals\devadc.c
                   __pa_5   0x013a8c    program     static D:\git\70M\Devices\VOLDC_c1 .c
                   __pa_5   0x00fac0    program     static D:\git\70M\Microchip\TCPIP Stack\ETH97J60.c
                   __pa_5   0x011a72    program     static D:\git\70M\App\WebUI\HTTPApp.c
                   __pa_5   0x00c716    program     static D:\git\70M\SysLib\util.c 
                   __pa_5   0x0097bc    program     static D:\git\70M\App\WebUI\HTTPGetDevInfo.c
                   __pa_5   0x007f70    program     static D:\git\70M\Drivers\External-Peripherals\oled_c2.c
                   __pa_5   0x005b64    program     static D:\git\70M\Microchip\TCPIP Stack\HTTP2.c
                   __pa_5   0x014166    program     static D:\git\70M\Microchip\TCPIP Stack\IP.c
                   __pa_5   0x00d66c    program     static D:\git\70M\Microchip\TCPIP Stack\Helpers.c
                   __pa_5   0x014474    program     static D:\git\70M\Microchip\TCPIP Stack\SPIEEPROM.c
                   __pa_5   0x00e1c2    program     static C:\Program Files\mcc18\src\traditional\stdclib\vfprintf.c
                  __pa_50   0x003174    program     static D:\git\70M\Microchip\TCPIP Stack\TCP.c
                  __pa_50   0x005dba    program     static D:\git\70M\Microchip\TCPIP Stack\HTTP2.c
                  __pa_50   0x00acd6    program     static D:\git\70M\Microchip\TCPIP Stack\MPFS2.c
                  __pa_50   0x00c9e0    program     static D:\git\70M\SysLib\util.c 
                  __pa_50   0x008282    program     static D:\git\70M\Drivers\External-Peripherals\oled_c2.c
                  __pa_50   0x009b14    program     static D:\git\70M\App\WebUI\HTTPGetDevInfo.c
                  __pa_50   0x00bb38    program     static D:\git\70M\App\WebUI\HTTPPrint.c
                  __pa_51   0x00bb3e    program     static D:\git\70M\App\WebUI\HTTPPrint.c
                  __pa_51   0x00318a    program     static D:\git\70M\Microchip\TCPIP Stack\TCP.c
                  __pa_51   0x005dc6    program     static D:\git\70M\Microchip\TCPIP Stack\HTTP2.c
                  __pa_51   0x009b1e    program     static D:\git\70M\App\WebUI\HTTPGetDevInfo.c
                  __pa_51   0x00acdc    program     static D:\git\70M\Microchip\TCPIP Stack\MPFS2.c
                  __pa_51   0x008290    program     static D:\git\70M\Drivers\External-Peripherals\oled_c2.c
                  __pa_51   0x00c9ea    program     static D:\git\70M\SysLib\util.c 
                  __pa_52   0x003196    program     static D:\git\70M\Microchip\TCPIP Stack\TCP.c
                  __pa_52   0x00acf8    program     static D:\git\70M\Microchip\TCPIP Stack\MPFS2.c
                  __pa_52   0x00c9f0    program     static D:\git\70M\SysLib\util.c 
                  __pa_52   0x005dd6    program     static D:\git\70M\Microchip\TCPIP Stack\HTTP2.c
                  __pa_52   0x00bb48    program     static D:\git\70M\App\WebUI\HTTPPrint.c
                  __pa_52   0x009b2e    program     static D:\git\70M\App\WebUI\HTTPGetDevInfo.c
                  __pa_52   0x00829e    program     static D:\git\70M\Drivers\External-Peripherals\oled_c2.c
                  __pa_53   0x005de6    program     static D:\git\70M\Microchip\TCPIP Stack\HTTP2.c
                  __pa_53   0x0082ce    program     static D:\git\70M\Drivers\External-Peripherals\oled_c2.c
                  __pa_53   0x009b3c    program     static D:\git\70M\App\WebUI\HTTPGetDevInfo.c
                  __pa_53   0x00ad08    program     static D:\git\70M\Microchip\TCPIP Stack\MPFS2.c
                  __pa_53   0x00bb56    program     static D:\git\70M\App\WebUI\HTTPPrint.c
                  __pa_53   0x00c9fe    program     static D:\git\70M\SysLib\util.c 
                  __pa_53   0x0031a4    program     static D:\git\70M\Microchip\TCPIP Stack\TCP.c
                  __pa_54   0x0082e8    program     static D:\git\70M\Drivers\External-Peripherals\oled_c2.c
                  __pa_54   0x00bb64    program     static D:\git\70M\App\WebUI\HTTPPrint.c
                  __pa_54   0x0031ac    program     static D:\git\70M\Microchip\TCPIP Stack\TCP.c
                  __pa_54   0x00ca0c    program     static D:\git\70M\SysLib\util.c 
                  __pa_54   0x00ad20    program     static D:\git\70M\Microchip\TCPIP Stack\MPFS2.c
                  __pa_54   0x009b46    program     static D:\git\70M\App\WebUI\HTTPGetDevInfo.c
                  __pa_54   0x005dfc    program     static D:\git\70M\Microchip\TCPIP Stack\HTTP2.c
                  __pa_55   0x0082ee    program     static D:\git\70M\Drivers\External-Peripherals\oled_c2.c
                  __pa_55   0x0031ba    program     static D:\git\70M\Microchip\TCPIP Stack\TCP.c
                  __pa_55   0x00bb74    program     static D:\git\70M\App\WebUI\HTTPPrint.c
                  __pa_55   0x005e08    program     static D:\git\70M\Microchip\TCPIP Stack\HTTP2.c
                  __pa_55   0x00ca18    program     static D:\git\70M\SysLib\util.c 
                  __pa_55   0x00ad2e    program     static D:\git\70M\Microchip\TCPIP Stack\MPFS2.c
                  __pa_55   0x009b5a    program     static D:\git\70M\App\WebUI\HTTPGetDevInfo.c
                  __pa_56   0x009b6e    program     static D:\git\70M\App\WebUI\HTTPGetDevInfo.c
                  __pa_56   0x00ca22    program     static D:\git\70M\SysLib\util.c 
                  __pa_56   0x005e16    program     static D:\git\70M\Microchip\TCPIP Stack\HTTP2.c
                  __pa_56   0x0082f4    program     static D:\git\70M\Drivers\External-Peripherals\oled_c2.c
                  __pa_56   0x0031c8    program     static D:\git\70M\Microchip\TCPIP Stack\TCP.c
                  __pa_56   0x00bb7a    program     static D:\git\70M\App\WebUI\HTTPPrint.c
                  __pa_56   0x00ad42    program     static D:\git\70M\Microchip\TCPIP Stack\MPFS2.c
                  __pa_57   0x00ca28    program     static D:\git\70M\SysLib\util.c 
                  __pa_57   0x00ad50    program     static D:\git\70M\Microchip\TCPIP Stack\MPFS2.c
                  __pa_57   0x005e24    program     static D:\git\70M\Microchip\TCPIP Stack\HTTP2.c
                  __pa_57   0x0082fa    program     static D:\git\70M\Drivers\External-Peripherals\oled_c2.c
                  __pa_57   0x0031d2    program     static D:\git\70M\Microchip\TCPIP Stack\TCP.c
                  __pa_57   0x00bb8a    program     static D:\git\70M\App\WebUI\HTTPPrint.c
                  __pa_57   0x009b82    program     static D:\git\70M\App\WebUI\HTTPGetDevInfo.c
                  __pa_58   0x0031f0    program     static D:\git\70M\Microchip\TCPIP Stack\TCP.c
                  __pa_58   0x00ca30    program     static D:\git\70M\SysLib\util.c 
                  __pa_58   0x00ad62    program     static D:\git\70M\Microchip\TCPIP Stack\MPFS2.c
                  __pa_58   0x00bb98    program     static D:\git\70M\App\WebUI\HTTPPrint.c
                  __pa_58   0x005e34    program     static D:\git\70M\Microchip\TCPIP Stack\HTTP2.c
                  __pa_58   0x008300    program     static D:\git\70M\Drivers\External-Peripherals\oled_c2.c
                  __pa_58   0x009b8a    program     static D:\git\70M\App\WebUI\HTTPGetDevInfo.c
                  __pa_59   0x00ca3a    program     static D:\git\70M\SysLib\util.c 
                  __pa_59   0x00ad6c    program     static D:\git\70M\Microchip\TCPIP Stack\MPFS2.c
                  __pa_59   0x005e42    program     static D:\git\70M\Microchip\TCPIP Stack\HTTP2.c
                  __pa_59   0x00bba6    program     static D:\git\70M\App\WebUI\HTTPPrint.c
                  __pa_59   0x009b92    program     static D:\git\70M\App\WebUI\HTTPGetDevInfo.c
                  __pa_59   0x003214    program     static D:\git\70M\Microchip\TCPIP Stack\TCP.c
                  __pa_59   0x00830e    program     static D:\git\70M\Drivers\External-Peripherals\oled_c2.c
                   __pa_6   0x00e1de    program     static C:\Program Files\mcc18\src\traditional\stdclib\vfprintf.c
                   __pa_6   0x014486    program     static D:\git\70M\Microchip\TCPIP Stack\SPIEEPROM.c
                   __pa_6   0x00b8ea    program     static D:\git\70M\App\WebUI\HTTPPrint.c
                   __pa_6   0x00fac4    program     static D:\git\70M\Microchip\TCPIP Stack\ETH97J60.c
                   __pa_6   0x014742    program     static D:\git\70M\Drivers\MCU-Internal\i2c_c1.c
                   __pa_6   0x012710    program     static D:\git\70M\Devices\DownConverter_c1.c
                   __pa_6   0x012116    program     static D:\git\70M\Devices\UpConverter_c1.c
                   __pa_6   0x00a97e    program     static D:\git\70M\Microchip\TCPIP Stack\MPFS2.c
                   __pa_6   0x012bb4    program     static D:\git\70M\Microchip\TCPIP Stack\ARP.c
                   __pa_6   0x014d82    program     static D:\git\70M\Drivers\External-Peripherals\devadc.c
                   __pa_6   0x002e42    program     static D:\git\70M\Microchip\TCPIP Stack\TCP.c
                   __pa_6   0x011364    program     static D:\git\70M\Drivers\External-Peripherals\oled_c1.c
                   __pa_6   0x0133ac    program     static D:\git\70M\Devices\MainControl_c1.c
                   __pa_6   0x00d692    program     static D:\git\70M\Microchip\TCPIP Stack\Helpers.c
                   __pa_6   0x011a82    program     static D:\git\70M\App\WebUI\HTTPApp.c
                   __pa_6   0x013a96    program     static D:\git\70M\Devices\VOLDC_c1 .c
                   __pa_6   0x005b8c    program     static D:\git\70M\Microchip\TCPIP Stack\HTTP2.c
                   __pa_6   0x014170    program     static D:\git\70M\Microchip\TCPIP Stack\IP.c
                   __pa_6   0x00c720    program     static D:\git\70M\SysLib\util.c 
                   __pa_6   0x0137b4    program     static D:\git\70M\Bootstrap\Initialization.c
                   __pa_6   0x007fa8    program     static D:\git\70M\Drivers\External-Peripherals\oled_c2.c
                   __pa_6   0x0097c2    program     static D:\git\70M\App\WebUI\HTTPGetDevInfo.c
                  __pa_60   0x008322    program     static D:\git\70M\Drivers\External-Peripherals\oled_c2.c
                  __pa_60   0x003224    program     static D:\git\70M\Microchip\TCPIP Stack\TCP.c
                  __pa_60   0x00bbae    program     static D:\git\70M\App\WebUI\HTTPPrint.c
                  __pa_60   0x00ca44    program     static D:\git\70M\SysLib\util.c 
                  __pa_60   0x009ba4    program     static D:\git\70M\App\WebUI\HTTPGetDevInfo.c
                  __pa_60   0x005e56    program     static D:\git\70M\Microchip\TCPIP Stack\HTTP2.c
                  __pa_60   0x00ad78    program     static D:\git\70M\Microchip\TCPIP Stack\MPFS2.c
                  __pa_61   0x008336    program     static D:\git\70M\Drivers\External-Peripherals\oled_c2.c
                  __pa_61   0x00ad86    program     static D:\git\70M\Microchip\TCPIP Stack\MPFS2.c
                  __pa_61   0x009bb6    program     static D:\git\70M\App\WebUI\HTTPGetDevInfo.c
                  __pa_61   0x00bbb4    program     static D:\git\70M\App\WebUI\HTTPPrint.c
                  __pa_61   0x00322e    program     static D:\git\70M\Microchip\TCPIP Stack\TCP.c
                  __pa_61   0x00ca4e    program     static D:\git\70M\SysLib\util.c 
                  __pa_61   0x005e5e    program     static D:\git\70M\Microchip\TCPIP Stack\HTTP2.c
                  __pa_62   0x00bbc4    program     static D:\git\70M\App\WebUI\HTTPPrint.c
                  __pa_62   0x009bc2    program     static D:\git\70M\App\WebUI\HTTPGetDevInfo.c
                  __pa_62   0x00834a    program     static D:\git\70M\Drivers\External-Peripherals\oled_c2.c
                  __pa_62   0x003238    program     static D:\git\70M\Microchip\TCPIP Stack\TCP.c
                  __pa_62   0x00ca6c    program     static D:\git\70M\SysLib\util.c 
                  __pa_62   0x005e70    program     static D:\git\70M\Microchip\TCPIP Stack\HTTP2.c
                  __pa_62   0x00ad94    program     static D:\git\70M\Microchip\TCPIP Stack\MPFS2.c
                  __pa_63   0x00ad9c    program     static D:\git\70M\Microchip\TCPIP Stack\MPFS2.c
                  __pa_63   0x008354    program     static D:\git\70M\Drivers\External-Peripherals\oled_c2.c
                  __pa_63   0x00ca8a    program     static D:\git\70M\SysLib\util.c 
                  __pa_63   0x00bbd4    program     static D:\git\70M\App\WebUI\HTTPPrint.c
                  __pa_63   0x009bce    program     static D:\git\70M\App\WebUI\HTTPGetDevInfo.c
                  __pa_63   0x003258    program     static D:\git\70M\Microchip\TCPIP Stack\TCP.c
                  __pa_63   0x005e7c    program     static D:\git\70M\Microchip\TCPIP Stack\HTTP2.c
                  __pa_64   0x00bbde    program     static D:\git\70M\App\WebUI\HTTPPrint.c
                  __pa_64   0x005e8e    program     static D:\git\70M\Microchip\TCPIP Stack\HTTP2.c
                  __pa_64   0x00ca9c    program     static D:\git\70M\SysLib\util.c 
                  __pa_64   0x00326e    program     static D:\git\70M\Microchip\TCPIP Stack\TCP.c
                  __pa_64   0x00835a    program     static D:\git\70M\Drivers\External-Peripherals\oled_c2.c
                  __pa_64   0x00ada6    program     static D:\git\70M\Microchip\TCPIP Stack\MPFS2.c
                  __pa_64   0x009bda    program     static D:\git\70M\App\WebUI\HTTPGetDevInfo.c
                  __pa_65   0x00836a    program     static D:\git\70M\Drivers\External-Peripherals\oled_c2.c
                  __pa_65   0x005e9a    program     static D:\git\70M\Microchip\TCPIP Stack\HTTP2.c
                  __pa_65   0x00caae    program     static D:\git\70M\SysLib\util.c 
                  __pa_65   0x003282    program     static D:\git\70M\Microchip\TCPIP Stack\TCP.c
                  __pa_65   0x00bbe6    program     static D:\git\70M\App\WebUI\HTTPPrint.c
                  __pa_65   0x00adac    program     static D:\git\70M\Microchip\TCPIP Stack\MPFS2.c
                  __pa_65   0x009bea    program     static D:\git\70M\App\WebUI\HTTPGetDevInfo.c
                  __pa_66   0x009bf8    program     static D:\git\70M\App\WebUI\HTTPGetDevInfo.c
                  __pa_66   0x003298    program     static D:\git\70M\Microchip\TCPIP Stack\TCP.c
                  __pa_66   0x005ea6    program     static D:\git\70M\Microchip\TCPIP Stack\HTTP2.c
                  __pa_66   0x00bbf2    program     static D:\git\70M\App\WebUI\HTTPPrint.c
                  __pa_66   0x00adc6    program     static D:\git\70M\Microchip\TCPIP Stack\MPFS2.c
                  __pa_66   0x00cabc    program     static D:\git\70M\SysLib\util.c 
                  __pa_66   0x008376    program     static D:\git\70M\Drivers\External-Peripherals\oled_c2.c
                  __pa_67   0x009c06    program     static D:\git\70M\App\WebUI\HTTPGetDevInfo.c
                  __pa_67   0x00bbfc    program     static D:\git\70M\App\WebUI\HTTPPrint.c
                  __pa_67   0x0032b6    program     static D:\git\70M\Microchip\TCPIP Stack\TCP.c
                  __pa_67   0x005eb2    program     static D:\git\70M\Microchip\TCPIP Stack\HTTP2.c
                  __pa_67   0x00add4    program     static D:\git\70M\Microchip\TCPIP Stack\MPFS2.c
                  __pa_67   0x008382    program     static D:\git\70M\Drivers\External-Peripherals\oled_c2.c
                  __pa_68   0x00bc06    program     static D:\git\70M\App\WebUI\HTTPPrint.c
                  __pa_68   0x005eb8    program     static D:\git\70M\Microchip\TCPIP Stack\HTTP2.c
                  __pa_68   0x008388    program     static D:\git\70M\Drivers\External-Peripherals\oled_c2.c
                  __pa_68   0x00adde    program     static D:\git\70M\Microchip\TCPIP Stack\MPFS2.c
                  __pa_68   0x0032cc    program     static D:\git\70M\Microchip\TCPIP Stack\TCP.c
                  __pa_68   0x009c14    program     static D:\git\70M\App\WebUI\HTTPGetDevInfo.c
                  __pa_69   0x00838e    program     static D:\git\70M\Drivers\External-Peripherals\oled_c2.c
                  __pa_69   0x0032da    program     static D:\git\70M\Microchip\TCPIP Stack\TCP.c
                  __pa_69   0x005ebe    program     static D:\git\70M\Microchip\TCPIP Stack\HTTP2.c
                  __pa_69   0x009c22    program     static D:\git\70M\App\WebUI\HTTPGetDevInfo.c
                  __pa_69   0x00bc10    program     static D:\git\70M\App\WebUI\HTTPPrint.c
                   __pa_7   0x0097ce    program     static D:\git\70M\App\WebUI\HTTPGetDevInfo.c
                   __pa_7   0x014492    program     static D:\git\70M\Microchip\TCPIP Stack\SPIEEPROM.c
                   __pa_7   0x00d6b4    program     static D:\git\70M\Microchip\TCPIP Stack\Helpers.c
                   __pa_7   0x014d94    program     static D:\git\70M\Drivers\External-Peripherals\devadc.c
                   __pa_7   0x00c754    program     static D:\git\70M\SysLib\util.c 
                   __pa_7   0x011a8e    program     static D:\git\70M\App\WebUI\HTTPApp.c
                   __pa_7   0x01417a    program     static D:\git\70M\Microchip\TCPIP Stack\IP.c
                   __pa_7   0x007fb6    program     static D:\git\70M\Drivers\External-Peripherals\oled_c2.c
                   __pa_7   0x01271a    program     static D:\git\70M\Devices\DownConverter_c1.c
                   __pa_7   0x002e4e    program     static D:\git\70M\Microchip\TCPIP Stack\TCP.c
                   __pa_7   0x005b94    program     static D:\git\70M\Microchip\TCPIP Stack\HTTP2.c
                   __pa_7   0x00faca    program     static D:\git\70M\Microchip\TCPIP Stack\ETH97J60.c
                   __pa_7   0x00a9c2    program     static D:\git\70M\Microchip\TCPIP Stack\MPFS2.c
                   __pa_7   0x0133b8    program     static D:\git\70M\Devices\MainControl_c1.c
                   __pa_7   0x0137be    program     static D:\git\70M\Bootstrap\Initialization.c
                   __pa_7   0x014750    program     static D:\git\70M\Drivers\MCU-Internal\i2c_c1.c
                   __pa_7   0x00e1e8    program     static C:\Program Files\mcc18\src\traditional\stdclib\vfprintf.c
                   __pa_7   0x013a9c    program     static D:\git\70M\Devices\VOLDC_c1 .c
                   __pa_7   0x012bc0    program     static D:\git\70M\Microchip\TCPIP Stack\ARP.c
                   __pa_7   0x00b8f4    program     static D:\git\70M\App\WebUI\HTTPPrint.c
                   __pa_7   0x011386    program     static D:\git\70M\Drivers\External-Peripherals\oled_c1.c
                   __pa_7   0x012126    program     static D:\git\70M\Devices\UpConverter_c1.c
                  __pa_70   0x00839a    program     static D:\git\70M\Drivers\External-Peripherals\oled_c2.c
                  __pa_70   0x005ec8    program     static D:\git\70M\Microchip\TCPIP Stack\HTTP2.c
                  __pa_70   0x00bc28    program     static D:\git\70M\App\WebUI\HTTPPrint.c
                  __pa_70   0x0032ec    program     static D:\git\70M\Microchip\TCPIP Stack\TCP.c
                  __pa_70   0x009c30    program     static D:\git\70M\App\WebUI\HTTPGetDevInfo.c
                  __pa_71   0x0032fe    program     static D:\git\70M\Microchip\TCPIP Stack\TCP.c
                  __pa_71   0x00bc3e    program     static D:\git\70M\App\WebUI\HTTPPrint.c
                  __pa_71   0x0083a6    program     static D:\git\70M\Drivers\External-Peripherals\oled_c2.c
                  __pa_71   0x005ed2    program     static D:\git\70M\Microchip\TCPIP Stack\HTTP2.c
                  __pa_71   0x009c38    program     static D:\git\70M\App\WebUI\HTTPGetDevInfo.c
                  __pa_72   0x005ede    program     static D:\git\70M\Microchip\TCPIP Stack\HTTP2.c
                  __pa_72   0x003310    program     static D:\git\70M\Microchip\TCPIP Stack\TCP.c
                  __pa_72   0x009c46    program     static D:\git\70M\App\WebUI\HTTPGetDevInfo.c
                  __pa_72   0x00bc44    program     static D:\git\70M\App\WebUI\HTTPPrint.c
                  __pa_72   0x0083b2    program     static D:\git\70M\Drivers\External-Peripherals\oled_c2.c
                  __pa_73   0x003322    program     static D:\git\70M\Microchip\TCPIP Stack\TCP.c
                  __pa_73   0x00bc4c    program     static D:\git\70M\App\WebUI\HTTPPrint.c
                  __pa_73   0x005eee    program     static D:\git\70M\Microchip\TCPIP Stack\HTTP2.c
                  __pa_73   0x009c4e    program     static D:\git\70M\App\WebUI\HTTPGetDevInfo.c
                  __pa_73   0x0083be    program     static D:\git\70M\Drivers\External-Peripherals\oled_c2.c
                  __pa_74   0x005ef8    program     static D:\git\70M\Microchip\TCPIP Stack\HTTP2.c
                  __pa_74   0x009c56    program     static D:\git\70M\App\WebUI\HTTPGetDevInfo.c
                  __pa_74   0x0083ca    program     static D:\git\70M\Drivers\External-Peripherals\oled_c2.c
                  __pa_74   0x00bc56    program     static D:\git\70M\App\WebUI\HTTPPrint.c
                  __pa_74   0x00332c    program     static D:\git\70M\Microchip\TCPIP Stack\TCP.c
                  __pa_75   0x00bc5e    program     static D:\git\70M\App\WebUI\HTTPPrint.c
                  __pa_75   0x0083d6    program     static D:\git\70M\Drivers\External-Peripherals\oled_c2.c
                  __pa_75   0x009c60    program     static D:\git\70M\App\WebUI\HTTPGetDevInfo.c
                  __pa_75   0x00333e    program     static D:\git\70M\Microchip\TCPIP Stack\TCP.c
                  __pa_75   0x005f00    program     static D:\git\70M\Microchip\TCPIP Stack\HTTP2.c
                  __pa_76   0x00bc66    program     static D:\git\70M\App\WebUI\HTTPPrint.c
                  __pa_76   0x0083e4    program     static D:\git\70M\Drivers\External-Peripherals\oled_c2.c
                  __pa_76   0x009c6a    program     static D:\git\70M\App\WebUI\HTTPGetDevInfo.c
                  __pa_76   0x003348    program     static D:\git\70M\Microchip\TCPIP Stack\TCP.c
                  __pa_76   0x005f08    program     static D:\git\70M\Microchip\TCPIP Stack\HTTP2.c
                  __pa_77   0x009c74    program     static D:\git\70M\App\WebUI\HTTPGetDevInfo.c
                  __pa_77   0x00bc78    program     static D:\git\70M\App\WebUI\HTTPPrint.c
                  __pa_77   0x005f10    program     static D:\git\70M\Microchip\TCPIP Stack\HTTP2.c
                  __pa_77   0x003356    program     static D:\git\70M\Microchip\TCPIP Stack\TCP.c
                  __pa_77   0x0083f2    program     static D:\git\70M\Drivers\External-Peripherals\oled_c2.c
                  __pa_78   0x005f1e    program     static D:\git\70M\Microchip\TCPIP Stack\HTTP2.c
                  __pa_78   0x0083fa    program     static D:\git\70M\Drivers\External-Peripherals\oled_c2.c
                  __pa_78   0x00bc8a    program     static D:\git\70M\App\WebUI\HTTPPrint.c
                  __pa_78   0x009c7e    program     static D:\git\70M\App\WebUI\HTTPGetDevInfo.c
                  __pa_78   0x003364    program     static D:\git\70M\Microchip\TCPIP Stack\TCP.c
                  __pa_79   0x008404    program     static D:\git\70M\Drivers\External-Peripherals\oled_c2.c
                  __pa_79   0x005f2c    program     static D:\git\70M\Microchip\TCPIP Stack\HTTP2.c
                  __pa_79   0x00bc94    program     static D:\git\70M\App\WebUI\HTTPPrint.c
                  __pa_79   0x009c88    program     static D:\git\70M\App\WebUI\HTTPGetDevInfo.c
                  __pa_79   0x003372    program     static D:\git\70M\Microchip\TCPIP Stack\TCP.c
                   __pa_8   0x00b900    program     static D:\git\70M\App\WebUI\HTTPPrint.c
                   __pa_8   0x00fad4    program     static D:\git\70M\Microchip\TCPIP Stack\ETH97J60.c
                   __pa_8   0x0137cc    program     static D:\git\70M\Bootstrap\Initialization.c
                   __pa_8   0x011a9a    program     static D:\git\70M\App\WebUI\HTTPApp.c
                   __pa_8   0x0133c4    program     static D:\git\70M\Devices\MainControl_c1.c
                   __pa_8   0x012130    program     static D:\git\70M\Devices\UpConverter_c1.c
                   __pa_8   0x002e70    program     static D:\git\70M\Microchip\TCPIP Stack\TCP.c
                   __pa_8   0x00a9ca    program     static D:\git\70M\Microchip\TCPIP Stack\MPFS2.c
                   __pa_8   0x012724    program     static D:\git\70M\Devices\DownConverter_c1.c
                   __pa_8   0x012bce    program     static D:\git\70M\Microchip\TCPIP Stack\ARP.c
                   __pa_8   0x0113b2    program     static D:\git\70M\Drivers\External-Peripherals\oled_c1.c
                   __pa_8   0x013aa4    program     static D:\git\70M\Devices\VOLDC_c1 .c
                   __pa_8   0x00d6c6    program     static D:\git\70M\Microchip\TCPIP Stack\Helpers.c
                   __pa_8   0x0097d6    program     static D:\git\70M\App\WebUI\HTTPGetDevInfo.c
                   __pa_8   0x01475e    program     static D:\git\70M\Drivers\MCU-Internal\i2c_c1.c
                   __pa_8   0x0144a2    program     static D:\git\70M\Microchip\TCPIP Stack\SPIEEPROM.c
                   __pa_8   0x014da6    program     static D:\git\70M\Drivers\External-Peripherals\devadc.c
                   __pa_8   0x014188    program     static D:\git\70M\Microchip\TCPIP Stack\IP.c
                   __pa_8   0x00c75c    program     static D:\git\70M\SysLib\util.c 
                   __pa_8   0x00e1f4    program     static C:\Program Files\mcc18\src\traditional\stdclib\vfprintf.c
                   __pa_8   0x005bb0    program     static D:\git\70M\Microchip\TCPIP Stack\HTTP2.c
                   __pa_8   0x007fc4    program     static D:\git\70M\Drivers\External-Peripherals\oled_c2.c
                  __pa_80   0x00840e    program     static D:\git\70M\Drivers\External-Peripherals\oled_c2.c
                  __pa_80   0x003380    program     static D:\git\70M\Microchip\TCPIP Stack\TCP.c
                  __pa_80   0x009cc6    program     static D:\git\70M\App\WebUI\HTTPGetDevInfo.c
                  __pa_80   0x005f3a    program     static D:\git\70M\Microchip\TCPIP Stack\HTTP2.c
                  __pa_80   0x00bc9a    program     static D:\git\70M\App\WebUI\HTTPPrint.c
                  __pa_81   0x003388    program     static D:\git\70M\Microchip\TCPIP Stack\TCP.c
                  __pa_81   0x00bca8    program     static D:\git\70M\App\WebUI\HTTPPrint.c
                  __pa_81   0x008418    program     static D:\git\70M\Drivers\External-Peripherals\oled_c2.c
                  __pa_81   0x009cea    program     static D:\git\70M\App\WebUI\HTTPGetDevInfo.c
                  __pa_81   0x005f48    program     static D:\git\70M\Microchip\TCPIP Stack\HTTP2.c
                  __pa_82   0x005f56    program     static D:\git\70M\Microchip\TCPIP Stack\HTTP2.c
                  __pa_82   0x00842a    program     static D:\git\70M\Drivers\External-Peripherals\oled_c2.c
                  __pa_82   0x00bcb4    program     static D:\git\70M\App\WebUI\HTTPPrint.c
                  __pa_82   0x009cfa    program     static D:\git\70M\App\WebUI\HTTPGetDevInfo.c
                  __pa_82   0x003394    program     static D:\git\70M\Microchip\TCPIP Stack\TCP.c
                  __pa_83   0x005f64    program     static D:\git\70M\Microchip\TCPIP Stack\HTTP2.c
                  __pa_83   0x008436    program     static D:\git\70M\Drivers\External-Peripherals\oled_c2.c
                  __pa_83   0x00bcba    program     static D:\git\70M\App\WebUI\HTTPPrint.c
                  __pa_83   0x00339e    program     static D:\git\70M\Microchip\TCPIP Stack\TCP.c
                  __pa_83   0x009d08    program     static D:\git\70M\App\WebUI\HTTPGetDevInfo.c
                  __pa_84   0x009d0e    program     static D:\git\70M\App\WebUI\HTTPGetDevInfo.c
                  __pa_84   0x008442    program     static D:\git\70M\Drivers\External-Peripherals\oled_c2.c
                  __pa_84   0x0033a8    program     static D:\git\70M\Microchip\TCPIP Stack\TCP.c
                  __pa_84   0x005f72    program     static D:\git\70M\Microchip\TCPIP Stack\HTTP2.c
                  __pa_85   0x0033b2    program     static D:\git\70M\Microchip\TCPIP Stack\TCP.c
                  __pa_85   0x00844e    program     static D:\git\70M\Drivers\External-Peripherals\oled_c2.c
                  __pa_85   0x009d16    program     static D:\git\70M\App\WebUI\HTTPGetDevInfo.c
                  __pa_85   0x005f80    program     static D:\git\70M\Microchip\TCPIP Stack\HTTP2.c
                  __pa_86   0x0033bc    program     static D:\git\70M\Microchip\TCPIP Stack\TCP.c
                  __pa_86   0x00845c    program     static D:\git\70M\Drivers\External-Peripherals\oled_c2.c
                  __pa_86   0x009d2a    program     static D:\git\70M\App\WebUI\HTTPGetDevInfo.c
                  __pa_86   0x005f8e    program     static D:\git\70M\Microchip\TCPIP Stack\HTTP2.c
                  __pa_87   0x005f98    program     static D:\git\70M\Microchip\TCPIP Stack\HTTP2.c
                  __pa_87   0x009d34    program     static D:\git\70M\App\WebUI\HTTPGetDevInfo.c
                  __pa_87   0x0033cc    program     static D:\git\70M\Microchip\TCPIP Stack\TCP.c
                  __pa_88   0x005fa2    program     static D:\git\70M\Microchip\TCPIP Stack\HTTP2.c
                  __pa_88   0x0033da    program     static D:\git\70M\Microchip\TCPIP Stack\TCP.c
                  __pa_88   0x009d42    program     static D:\git\70M\App\WebUI\HTTPGetDevInfo.c
                  __pa_89   0x0033f4    program     static D:\git\70M\Microchip\TCPIP Stack\TCP.c
                  __pa_89   0x009d50    program     static D:\git\70M\App\WebUI\HTTPGetDevInfo.c
                  __pa_89   0x005faa    program     static D:\git\70M\Microchip\TCPIP Stack\HTTP2.c
                   __pa_9   0x00d6d0    program     static D:\git\70M\Microchip\TCPIP Stack\Helpers.c
                   __pa_9   0x0137d8    program     static D:\git\70M\Bootstrap\Initialization.c
                   __pa_9   0x00c78e    program     static D:\git\70M\SysLib\util.c 
                   __pa_9   0x014196    program     static D:\git\70M\Microchip\TCPIP Stack\IP.c
                   __pa_9   0x014768    program     static D:\git\70M\Drivers\MCU-Internal\i2c_c1.c
                   __pa_9   0x005bbe    program     static D:\git\70M\Microchip\TCPIP Stack\HTTP2.c
                   __pa_9   0x012736    program     static D:\git\70M\Devices\DownConverter_c1.c
                   __pa_9   0x00a9d0    program     static D:\git\70M\Microchip\TCPIP Stack\MPFS2.c
                   __pa_9   0x012142    program     static D:\git\70M\Devices\UpConverter_c1.c
                   __pa_9   0x002e98    program     static D:\git\70M\Microchip\TCPIP Stack\TCP.c
                   __pa_9   0x011aa2    program     static D:\git\70M\App\WebUI\HTTPApp.c
                   __pa_9   0x0133d0    program     static D:\git\70M\Devices\MainControl_c1.c
                   __pa_9   0x00fae2    program     static D:\git\70M\Microchip\TCPIP Stack\ETH97J60.c
                   __pa_9   0x00b906    program     static D:\git\70M\App\WebUI\HTTPPrint.c
                   __pa_9   0x012bdc    program     static D:\git\70M\Microchip\TCPIP Stack\ARP.c
                   __pa_9   0x00e216    program     static C:\Program Files\mcc18\src\traditional\stdclib\vfprintf.c
                   __pa_9   0x0113cc    program     static D:\git\70M\Drivers\External-Peripherals\oled_c1.c
                   __pa_9   0x009858    program     static D:\git\70M\App\WebUI\HTTPGetDevInfo.c
                   __pa_9   0x007fca    program     static D:\git\70M\Drivers\External-Peripherals\oled_c2.c
                   __pa_9   0x013aac    program     static D:\git\70M\Devices\VOLDC_c1 .c
                  __pa_90   0x0033fc    program     static D:\git\70M\Microchip\TCPIP Stack\TCP.c
                  __pa_90   0x009d5e    program     static D:\git\70M\App\WebUI\HTTPGetDevInfo.c
                  __pa_90   0x005fc0    program     static D:\git\70M\Microchip\TCPIP Stack\HTTP2.c
                  __pa_91   0x003406    program     static D:\git\70M\Microchip\TCPIP Stack\TCP.c
                  __pa_91   0x009d68    program     static D:\git\70M\App\WebUI\HTTPGetDevInfo.c
                  __pa_91   0x005fc6    program     static D:\git\70M\Microchip\TCPIP Stack\HTTP2.c
                  __pa_92   0x005fd4    program     static D:\git\70M\Microchip\TCPIP Stack\HTTP2.c
                  __pa_92   0x003410    program     static D:\git\70M\Microchip\TCPIP Stack\TCP.c
                  __pa_92   0x009d72    program     static D:\git\70M\App\WebUI\HTTPGetDevInfo.c
                  __pa_93   0x00341a    program     static D:\git\70M\Microchip\TCPIP Stack\TCP.c
                  __pa_93   0x009d86    program     static D:\git\70M\App\WebUI\HTTPGetDevInfo.c
                  __pa_93   0x005fde    program     static D:\git\70M\Microchip\TCPIP Stack\HTTP2.c
                  __pa_94   0x009d98    program     static D:\git\70M\App\WebUI\HTTPGetDevInfo.c
                  __pa_94   0x005fe8    program     static D:\git\70M\Microchip\TCPIP Stack\HTTP2.c
                  __pa_94   0x003424    program     static D:\git\70M\Microchip\TCPIP Stack\TCP.c
                  __pa_95   0x005ff2    program     static D:\git\70M\Microchip\TCPIP Stack\HTTP2.c
                  __pa_95   0x009daa    program     static D:\git\70M\App\WebUI\HTTPGetDevInfo.c
                  __pa_95   0x00342e    program     static D:\git\70M\Microchip\TCPIP Stack\TCP.c
                  __pa_96   0x009db6    program     static D:\git\70M\App\WebUI\HTTPGetDevInfo.c
                  __pa_96   0x006000    program     static D:\git\70M\Microchip\TCPIP Stack\HTTP2.c
                  __pa_96   0x003446    program     static D:\git\70M\Microchip\TCPIP Stack\TCP.c
                  __pa_97   0x009dc0    program     static D:\git\70M\App\WebUI\HTTPGetDevInfo.c
                  __pa_97   0x006008    program     static D:\git\70M\Microchip\TCPIP Stack\HTTP2.c
                  __pa_97   0x003454    program     static D:\git\70M\Microchip\TCPIP Stack\TCP.c
                  __pa_98   0x006012    program     static D:\git\70M\Microchip\TCPIP Stack\HTTP2.c
                  __pa_98   0x009dce    program     static D:\git\70M\App\WebUI\HTTPGetDevInfo.c
                  __pa_98   0x00346c    program     static D:\git\70M\Microchip\TCPIP Stack\TCP.c
                  __pa_99   0x00347c    program     static D:\git\70M\Microchip\TCPIP Stack\TCP.c
                  __pa_99   0x006028    program     static D:\git\70M\Microchip\TCPIP Stack\HTTP2.c
                  __pa_99   0x009dd8    program     static D:\git\70M\App\WebUI\HTTPGetDevInfo.c
               __string_0   0x00ebeb    program     static D:\git\70M\SysLib\util.c 
               __string_0   0x00ebd9    program     static D:\git\70M\Microchip\TCPIP Stack\HTTP2.c
               __string_0   0x00ef62    program     static D:\git\70M\App\WebUI\HTTPGetDevInfo.c
               __string_0   0x00ed04    program     static D:\git\70M\Devices\VOLDC_c1 .c
               __string_0   0x00e466    program     static D:\git\70M\Bootstrap\Initialization.c
               __string_0   0x00ec77    program     static D:\git\70M\App\WebUI\HTTPApp.c
               __string_0   0x00f04b    program     static D:\git\70M\App\WebUI\HTTPPrint.c
               __string_0   0x00ec90    program     static D:\git\70M\Devices\DownConverter_c1.c
               __string_0   0x00ebe4    program     static D:\git\70M\Microchip\TCPIP Stack\MPFS2.c
               __string_0   0x00ece3    program     static D:\git\70M\Devices\UpConverter_c1.c
               __string_0   0x00ecce    program     static D:\git\70M\Devices\MainControl_c1.c
               __string_1   0x00ec87    program     static D:\git\70M\Devices\DownConverter_c1.c
               __string_1   0x00ef5b    program     static D:\git\70M\App\WebUI\HTTPGetDevInfo.c
               __string_1   0x00ecc7    program     static D:\git\70M\Devices\MainControl_c1.c
               __string_1   0x00ec72    program     static D:\git\70M\App\WebUI\HTTPApp.c
               __string_1   0x00f042    program     static D:\git\70M\App\WebUI\HTTPPrint.c
               __string_1   0x00ebce    program     static D:\git\70M\Microchip\TCPIP Stack\HTTP2.c
               __string_1   0x00ecda    program     static D:\git\70M\Devices\UpConverter_c1.c
               __string_1   0x00ecfb    program     static D:\git\70M\Devices\VOLDC_c1 .c
               __string_1   0x00e45c    program     static D:\git\70M\Bootstrap\Initialization.c
              __string_10   0x00edb9    program     static D:\git\70M\Drivers\External-Peripherals\oled_c2.c
              __string_10   0x00eeef    program     static D:\git\70M\App\WebUI\HTTPGetDevInfo.c
              __string_10   0x00ebac    program     static D:\git\70M\Microchip\TCPIP Stack\HTTP2.c
              __string_10   0x00ec2d    program     static D:\git\70M\App\WebUI\HTTPApp.c
              __string_10   0x00f004    program     static D:\git\70M\App\WebUI\HTTPPrint.c
              __string_11   0x00effb    program     static D:\git\70M\App\WebUI\HTTPPrint.c
              __string_11   0x00eba8    program     static D:\git\70M\Microchip\TCPIP Stack\HTTP2.c
              __string_11   0x00eee5    program     static D:\git\70M\App\WebUI\HTTPGetDevInfo.c
              __string_11   0x00ec28    program     static D:\git\70M\App\WebUI\HTTPApp.c
              __string_12   0x00eba4    program     static D:\git\70M\Microchip\TCPIP Stack\HTTP2.c
              __string_12   0x00ec24    program     static D:\git\70M\App\WebUI\HTTPApp.c
              __string_12   0x00eedb    program     static D:\git\70M\App\WebUI\HTTPGetDevInfo.c
              __string_12   0x00eff2    program     static D:\git\70M\App\WebUI\HTTPPrint.c
              __string_13   0x00eba0    program     static D:\git\70M\Microchip\TCPIP Stack\HTTP2.c
              __string_13   0x00efe9    program     static D:\git\70M\App\WebUI\HTTPPrint.c
              __string_13   0x00ec1f    program     static D:\git\70M\App\WebUI\HTTPApp.c
              __string_13   0x00eecd    program     static D:\git\70M\App\WebUI\HTTPGetDevInfo.c
              __string_14   0x00eebf    program     static D:\git\70M\App\WebUI\HTTPGetDevInfo.c
              __string_14   0x00efe6    program     static D:\git\70M\App\WebUI\HTTPPrint.c
              __string_14   0x00ec1a    program     static D:\git\70M\App\WebUI\HTTPApp.c
              __string_14   0x00eb9c    program     static D:\git\70M\Microchip\TCPIP Stack\HTTP2.c
              __string_15   0x00eeb2    program     static D:\git\70M\App\WebUI\HTTPGetDevInfo.c
              __string_15   0x00efe2    program     static D:\git\70M\App\WebUI\HTTPPrint.c
              __string_15   0x00eb98    program     static D:\git\70M\Microchip\TCPIP Stack\HTTP2.c
              __string_15   0x00ec05    program     static D:\git\70M\App\WebUI\HTTPApp.c
              __string_16   0x00eea8    program     static D:\git\70M\App\WebUI\HTTPGetDevInfo.c
              __string_16   0x00efdc    program     static D:\git\70M\App\WebUI\HTTPPrint.c
              __string_16   0x00eb8d    program     static D:\git\70M\Microchip\TCPIP Stack\HTTP2.c
              __string_16   0x00ebf1    program     static D:\git\70M\App\WebUI\HTTPApp.c
              __string_17   0x00eb83    program     static D:\git\70M\Microchip\TCPIP Stack\HTTP2.c
              __string_17   0x00eea3    program     static D:\git\70M\App\WebUI\HTTPGetDevInfo.c
              __string_17   0x00efcc    program     static D:\git\70M\App\WebUI\HTTPPrint.c
              __string_18   0x00eb7a    program     static D:\git\70M\Microchip\TCPIP Stack\HTTP2.c
              __string_18   0x00ee9f    program     static D:\git\70M\App\WebUI\HTTPGetDevInfo.c
              __string_18   0x00efaf    program     static D:\git\70M\App\WebUI\HTTPPrint.c
              __string_19   0x00eb71    program     static D:\git\70M\Microchip\TCPIP Stack\HTTP2.c
              __string_19   0x00ee9b    program     static D:\git\70M\App\WebUI\HTTPGetDevInfo.c
              __string_19   0x00ef9c    program     static D:\git\70M\App\WebUI\HTTPPrint.c
               __string_2   0x00ecf5    program     static D:\git\70M\Devices\VOLDC_c1 .c
               __string_2   0x00f03d    program     static D:\git\70M\App\WebUI\HTTPPrint.c
               __string_2   0x00ec6c    program     static D:\git\70M\App\WebUI\HTTPApp.c
               __string_2   0x00ecd2    program     static D:\git\70M\Devices\UpConverter_c1.c
               __string_2   0x00ecc2    program     static D:\git\70M\Devices\MainControl_c1.c
               __string_2   0x00ec7f    program     static D:\git\70M\Devices\DownConverter_c1.c
               __string_2   0x00ef57    program     static D:\git\70M\App\WebUI\HTTPGetDevInfo.c
               __string_2   0x00ebc9    program     static D:\git\70M\Microchip\TCPIP Stack\HTTP2.c
              __string_20   0x00ef88    program     static D:\git\70M\App\WebUI\HTTPPrint.c
              __string_20   0x00eb67    program     static D:\git\70M\Microchip\TCPIP Stack\HTTP2.c
              __string_20   0x00ee96    program     static D:\git\70M\App\WebUI\HTTPGetDevInfo.c
              __string_21   0x00ee90    program     static D:\git\70M\App\WebUI\HTTPGetDevInfo.c
              __string_21   0x00ef6a    program     static D:\git\70M\App\WebUI\HTTPPrint.c
              __string_21   0x00eb5d    program     static D:\git\70M\Microchip\TCPIP Stack\HTTP2.c
              __string_22   0x00ee87    program     static D:\git\70M\App\WebUI\HTTPGetDevInfo.c
              __string_22   0x00eb52    program     static D:\git\70M\Microchip\TCPIP Stack\HTTP2.c
              __string_22   0x00ef65    program     static D:\git\70M\App\WebUI\HTTPPrint.c
              __string_23   0x00ee7e    program     static D:\git\70M\App\WebUI\HTTPGetDevInfo.c
              __string_23   0x00eb3e    program     static D:\git\70M\Microchip\TCPIP Stack\HTTP2.c
              __string_24   0x00ee78    program     static D:\git\70M\App\WebUI\HTTPGetDevInfo.c
              __string_24   0x00eb31    program     static D:\git\70M\Microchip\TCPIP Stack\HTTP2.c
              __string_25   0x00eb30    program     static D:\git\70M\Microchip\TCPIP Stack\HTTP2.c
              __string_25   0x00ee70    program     static D:\git\70M\App\WebUI\HTTPGetDevInfo.c
              __string_26   0x00eb0b    program     static D:\git\70M\Microchip\TCPIP Stack\HTTP2.c
              __string_26   0x00ee68    program     static D:\git\70M\App\WebUI\HTTPGetDevInfo.c
              __string_27   0x00eaad    program     static D:\git\70M\Microchip\TCPIP Stack\HTTP2.c
              __string_27   0x00ee61    program     static D:\git\70M\App\WebUI\HTTPGetDevInfo.c
              __string_28   0x00ea2c    program     static D:\git\70M\Microchip\TCPIP Stack\HTTP2.c
              __string_28   0x00ee5a    program     static D:\git\70M\App\WebUI\HTTPGetDevInfo.c
              __string_29   0x00ee4d    program     static D:\git\70M\App\WebUI\HTTPGetDevInfo.c
              __string_29   0x00e98e    program     static D:\git\70M\Microchip\TCPIP Stack\HTTP2.c
               __string_3   0x00ec59    program     static D:\git\70M\App\WebUI\HTTPApp.c
               __string_3   0x00ef4f    program     static D:\git\70M\App\WebUI\HTTPGetDevInfo.c
               __string_3   0x00ecbb    program     static D:\git\70M\Devices\MainControl_c1.c
               __string_3   0x00f036    program     static D:\git\70M\App\WebUI\HTTPPrint.c
               __string_3   0x00ecef    program     static D:\git\70M\Devices\VOLDC_c1 .c
              __string_30   0x00ee40    program     static D:\git\70M\App\WebUI\HTTPGetDevInfo.c
              __string_30   0x00e921    program     static D:\git\70M\Microchip\TCPIP Stack\HTTP2.c
              __string_31   0x00e8b1    program     static D:\git\70M\Microchip\TCPIP Stack\HTTP2.c
              __string_31   0x00ee2d    program     static D:\git\70M\App\WebUI\HTTPGetDevInfo.c
              __string_32   0x00e84b    program     static D:\git\70M\Microchip\TCPIP Stack\HTTP2.c
              __string_32   0x00ee19    program     static D:\git\70M\App\WebUI\HTTPGetDevInfo.c
              __string_33   0x00e72b    program     static D:\git\70M\Microchip\TCPIP Stack\HTTP2.c
              __string_33   0x00ee15    program     static D:\git\70M\App\WebUI\HTTPGetDevInfo.c
              __string_34   0x00ee05    program     static D:\git\70M\App\WebUI\HTTPGetDevInfo.c
              __string_34   0x00e67e    program     static D:\git\70M\Microchip\TCPIP Stack\HTTP2.c
              __string_35   0x00e5ab    program     static D:\git\70M\Microchip\TCPIP Stack\HTTP2.c
              __string_35   0x00ee00    program     static D:\git\70M\App\WebUI\HTTPGetDevInfo.c
              __string_36   0x00e579    program     static D:\git\70M\Microchip\TCPIP Stack\HTTP2.c
              __string_36   0x00edfb    program     static D:\git\70M\App\WebUI\HTTPGetDevInfo.c
              __string_37   0x00e522    program     static D:\git\70M\Microchip\TCPIP Stack\HTTP2.c
              __string_37   0x00edf5    program     static D:\git\70M\App\WebUI\HTTPGetDevInfo.c
              __string_38   0x00e51a    program     static D:\git\70M\Microchip\TCPIP Stack\HTTP2.c
              __string_38   0x00edeb    program     static D:\git\70M\App\WebUI\HTTPGetDevInfo.c
              __string_39   0x00e50b    program     static D:\git\70M\Microchip\TCPIP Stack\HTTP2.c
              __string_39   0x00ede1    program     static D:\git\70M\App\WebUI\HTTPGetDevInfo.c
               __string_4   0x00ec49    program     static D:\git\70M\App\WebUI\HTTPApp.c
               __string_4   0x00ecb4    program     static D:\git\70M\Devices\MainControl_c1.c
               __string_4   0x00ef48    program     static D:\git\70M\App\WebUI\HTTPGetDevInfo.c
               __string_4   0x00ebc5    program     static D:\git\70M\Microchip\TCPIP Stack\HTTP2.c
               __string_4   0x00ecec    program     static D:\git\70M\Devices\VOLDC_c1 .c
               __string_4   0x00f033    program     static D:\git\70M\App\WebUI\HTTPPrint.c
              __string_40   0x00e4fb    program     static D:\git\70M\Microchip\TCPIP Stack\HTTP2.c
              __string_40   0x00edd4    program     static D:\git\70M\App\WebUI\HTTPGetDevInfo.c
              __string_41   0x00e4f7    program     static D:\git\70M\Microchip\TCPIP Stack\HTTP2.c
              __string_41   0x00edcf    program     static D:\git\70M\App\WebUI\HTTPGetDevInfo.c
              __string_42   0x00e4f2    program     static D:\git\70M\Microchip\TCPIP Stack\HTTP2.c
              __string_42   0x00edca    program     static D:\git\70M\App\WebUI\HTTPGetDevInfo.c
              __string_43   0x00e4e7    program     static D:\git\70M\Microchip\TCPIP Stack\HTTP2.c
              __string_43   0x00edc6    program     static D:\git\70M\App\WebUI\HTTPGetDevInfo.c
              __string_44   0x00e4dd    program     static D:\git\70M\Microchip\TCPIP Stack\HTTP2.c
              __string_45   0x00e4ca    program     static D:\git\70M\Microchip\TCPIP Stack\HTTP2.c
              __string_46   0x00e4bb    program     static D:\git\70M\Microchip\TCPIP Stack\HTTP2.c
              __string_47   0x00e4a2    program     static D:\git\70M\Microchip\TCPIP Stack\HTTP2.c
              __string_48   0x00e492    program     static D:\git\70M\Microchip\TCPIP Stack\HTTP2.c
              __string_49   0x00e489    program     static D:\git\70M\Microchip\TCPIP Stack\HTTP2.c
               __string_5   0x00ebc1    program     static D:\git\70M\Microchip\TCPIP Stack\HTTP2.c
               __string_5   0x00ef37    program     static D:\git\70M\App\WebUI\HTTPGetDevInfo.c
               __string_5   0x00ec45    program     static D:\git\70M\App\WebUI\HTTPApp.c
               __string_5   0x00f02f    program     static D:\git\70M\App\WebUI\HTTPPrint.c
               __string_5   0x00ecab    program     static D:\git\70M\Devices\MainControl_c1.c
              __string_50   0x00e480    program     static D:\git\70M\Microchip\TCPIP Stack\HTTP2.c
              __string_51   0x00e47c    program     static D:\git\70M\Microchip\TCPIP Stack\HTTP2.c
              __string_52   0x00e477    program     static D:\git\70M\Microchip\TCPIP Stack\HTTP2.c
              __string_52   0x00ed90    program     static D:\git\70M\Drivers\External-Peripherals\oled_c2.c
              __string_53   0x00ed67    program     static D:\git\70M\Drivers\External-Peripherals\oled_c2.c
              __string_53   0x00e46c    program     static D:\git\70M\Microchip\TCPIP Stack\HTTP2.c
              __string_54   0x00ed63    program     static D:\git\70M\Drivers\External-Peripherals\oled_c2.c
              __string_55   0x00ed5d    program     static D:\git\70M\Drivers\External-Peripherals\oled_c2.c
              __string_56   0x00ed57    program     static D:\git\70M\Drivers\External-Peripherals\oled_c2.c
              __string_57   0x00ed4e    program     static D:\git\70M\Drivers\External-Peripherals\oled_c2.c
              __string_58   0x00ed44    program     static D:\git\70M\Drivers\External-Peripherals\oled_c2.c
              __string_59   0x00ed35    program     static D:\git\70M\Drivers\External-Peripherals\oled_c2.c
               __string_6   0x00ec3c    program     static D:\git\70M\App\WebUI\HTTPApp.c
               __string_6   0x00f026    program     static D:\git\70M\App\WebUI\HTTPPrint.c
               __string_6   0x00eca2    program     static D:\git\70M\Devices\MainControl_c1.c
               __string_6   0x00ef26    program     static D:\git\70M\App\WebUI\HTTPGetDevInfo.c
               __string_6   0x00ebbc    program     static D:\git\70M\Microchip\TCPIP Stack\HTTP2.c
              __string_60   0x00ed29    program     static D:\git\70M\Drivers\External-Peripherals\oled_c2.c
              __string_61   0x00ed1b    program     static D:\git\70M\Drivers\External-Peripherals\oled_c2.c
              __string_62   0x00ed0d    program     static D:\git\70M\Drivers\External-Peripherals\oled_c2.c
               __string_7   0x00ec39    program     static D:\git\70M\App\WebUI\HTTPApp.c
               __string_7   0x00ec9e    program     static D:\git\70M\Devices\MainControl_c1.c
               __string_7   0x00ebb8    program     static D:\git\70M\Microchip\TCPIP Stack\HTTP2.c
               __string_7   0x00f01d    program     static D:\git\70M\App\WebUI\HTTPPrint.c
               __string_7   0x00edc2    program     static D:\git\70M\Drivers\External-Peripherals\oled_c2.c
               __string_7   0x00ef16    program     static D:\git\70M\App\WebUI\HTTPGetDevInfo.c
               __string_8   0x00f016    program     static D:\git\70M\App\WebUI\HTTPPrint.c
               __string_8   0x00ec99    program     static D:\git\70M\Devices\MainControl_c1.c
               __string_8   0x00ef06    program     static D:\git\70M\App\WebUI\HTTPGetDevInfo.c
               __string_8   0x00ec36    program     static D:\git\70M\App\WebUI\HTTPApp.c
               __string_8   0x00ebb4    program     static D:\git\70M\Microchip\TCPIP Stack\HTTP2.c
               __string_9   0x00eef9    program     static D:\git\70M\App\WebUI\HTTPGetDevInfo.c
               __string_9   0x00ebb0    program     static D:\git\70M\Microchip\TCPIP Stack\HTTP2.c
               __string_9   0x00ec32    program     static D:\git\70M\App\WebUI\HTTPApp.c
               __string_9   0x00f00e    program     static D:\git\70M\App\WebUI\HTTPPrint.c
               __tmplbl_0   0x00cbc2    program     static                          
              __tmplbl_10   0x0110f2    program     static                          
              __tmplbl_10   0x00f368    program     static                          
             __tmplbl_100   0x002d98    program     static                          
             __tmplbl_101   0x002d98    program     static                          
             __tmplbl_102   0x002d98    program     static                          
             __tmplbl_103   0x002d98    program     static                          
             __tmplbl_104   0x002d98    program     static                          
             __tmplbl_106   0x002d98    program     static                          
             __tmplbl_108   0x002d98    program     static                          
             __tmplbl_109   0x0097c2    program     static                          
             __tmplbl_109   0x002d98    program     static                          
              __tmplbl_11   0x0110ea    program     static                          
              __tmplbl_11   0x00f366    program     static                          
             __tmplbl_110   0x0097c2    program     static                          
             __tmplbl_110   0x002d98    program     static                          
             __tmplbl_111   0x0097c2    program     static                          
             __tmplbl_111   0x0080a2    program     static                          
             __tmplbl_111   0x002d98    program     static                          
             __tmplbl_112   0x0080a2    program     static                          
             __tmplbl_113   0x0097c2    program     static                          
             __tmplbl_113   0x0080dc    program     static                          
             __tmplbl_114   0x002d98    program     static                          
             __tmplbl_114   0x0097c2    program     static                          
             __tmplbl_114   0x0080dc    program     static                          
             __tmplbl_115   0x0080dc    program     static                          
             __tmplbl_115   0x0097c2    program     static                          
             __tmplbl_116   0x0080dc    program     static                          
             __tmplbl_116   0x0097c2    program     static                          
             __tmplbl_117   0x002d98    program     static                          
             __tmplbl_117   0x008274    program     static                          
             __tmplbl_117   0x0097c2    program     static                          
             __tmplbl_118   0x0097c2    program     static                          
             __tmplbl_118   0x008274    program     static                          
             __tmplbl_118   0x002d98    program     static                          
             __tmplbl_119   0x0097c2    program     static                          
              __tmplbl_12   0x00f442    program     static                          
             __tmplbl_120   0x0097c2    program     static                          
             __tmplbl_121   0x009d0e    program     static                          
             __tmplbl_122   0x009d0e    program     static                          
             __tmplbl_123   0x009d0e    program     static                          
             __tmplbl_124   0x009d0e    program     static                          
             __tmplbl_125   0x009d0e    program     static                          
             __tmplbl_126   0x009d0e    program     static                          
             __tmplbl_127   0x009d0e    program     static                          
             __tmplbl_128   0x009d0e    program     static                          
             __tmplbl_129   0x0080a2    program     static                          
             __tmplbl_129   0x009d0e    program     static                          
              __tmplbl_13   0x00f434    program     static                          
             __tmplbl_130   0x002d98    program     static                          
             __tmplbl_130   0x009d0e    program     static                          
             __tmplbl_131   0x002d98    program     static                          
             __tmplbl_139   0x0080a2    program     static                          
              __tmplbl_14   0x00f43a    program     static                          
             __tmplbl_148   0x002d98    program     static                          
             __tmplbl_151   0x002d98    program     static                          
             __tmplbl_152   0x002d98    program     static                          
             __tmplbl_155   0x002a10    program     static                          
             __tmplbl_157   0x002a10    program     static                          
             __tmplbl_158   0x002a1e    program     static                          
             __tmplbl_164   0x002a1e    program     static                          
             __tmplbl_166   0x002a1e    program     static                          
             __tmplbl_167   0x002a1e    program     static                          
             __tmplbl_168   0x005b58    program     static                          
             __tmplbl_169   0x005b58    program     static                          
             __tmplbl_170   0x005b58    program     static                          
             __tmplbl_171   0x005b58    program     static                          
             __tmplbl_172   0x005006    program     static                          
             __tmplbl_173   0x004fc0    program     static                          
             __tmplbl_174   0x002a16    program     static                          
             __tmplbl_174   0x004f94    program     static                          
             __tmplbl_175   0x004f8e    program     static                          
             __tmplbl_182   0x005022    program     static                          
             __tmplbl_183   0x005022    program     static                          
             __tmplbl_184   0x005022    program     static                          
             __tmplbl_198   0x0046da    program     static                          
             __tmplbl_199   0x005b58    program     static                          
             __tmplbl_200   0x005b58    program     static                          
             __tmplbl_201   0x005b58    program     static                          
             __tmplbl_203   0x005b58    program     static                          
             __tmplbl_213   0x003daa    program     static                          
             __tmplbl_214   0x003b2e    program     static                          
             __tmplbl_215   0x003ba2    program     static                          
             __tmplbl_216   0x003de8    program     static                          
              __tmplbl_24   0x00c6f0    program     static                          
              __tmplbl_25   0x00fa74    program     static                          
              __tmplbl_39   0x00cb3a    program     static                          
              __tmplbl_40   0x00cbde    program     static                          
              __tmplbl_41   0x00cc1e    program     static                          
              __tmplbl_42   0x00e310    program     static                          
              __tmplbl_42   0x00cc82    program     static                          
              __tmplbl_43   0x00e158    program     static                          
              __tmplbl_44   0x00e13e    program     static                          
               __tmplbl_5   0x00f3d2    program     static                          
              __tmplbl_55   0x00bc3e    program     static                          
              __tmplbl_56   0x00bc3e    program     static                          
              __tmplbl_58   0x00bb16    program     static                          
               __tmplbl_6   0x00f3bc    program     static                          
              __tmplbl_60   0x00b8f4    program     static                          
              __tmplbl_60   0x00a93e    program     static                          
              __tmplbl_61   0x00a93e    program     static                          
              __tmplbl_61   0x00b9a2    program     static                          
              __tmplbl_63   0x00b9a2    program     static                          
              __tmplbl_64   0x00b9a2    program     static                          
              __tmplbl_65   0x00b9a2    program     static                          
              __tmplbl_66   0x00b9a2    program     static                          
              __tmplbl_67   0x00b8f4    program     static                          
              __tmplbl_68   0x00b8f4    program     static                          
              __tmplbl_69   0x00bb16    program     static                          
               __tmplbl_7   0x00f3a4    program     static                          
              __tmplbl_79   0x002d98    program     static                          
               __tmplbl_8   0x00f38e    program     static                          
               __tmplbl_8   0x0110a8    program     static                          
              __tmplbl_81   0x002d98    program     static                          
              __tmplbl_85   0x002d98    program     static                          
              __tmplbl_85   0x00d890    program     static                          
              __tmplbl_87   0x002d98    program     static                          
              __tmplbl_88   0x002d98    program     static                          
              __tmplbl_89   0x002d98    program     static                          
               __tmplbl_9   0x0110a0    program     static                          
               __tmplbl_9   0x00f376    program     static                          
              __tmplbl_90   0x002d98    program     static                          
              __tmplbl_91   0x002d98    program     static                          
              __tmplbl_92   0x002d98    program     static                          
              __tmplbl_93   0x002d98    program     static                          
              __tmplbl_95   0x002d98    program     static                          
              __tmplbl_97   0x002d98    program     static                          
              __tmplbl_99   0x002d98    program     static                          
            __zero_memory   0x01598a    program     extern C:\MCC18\src\traditional\proc\p18F97J60.asm
                _do_cinit   0x0154fc    program     extern C:\Program Files\mcc18\src\traditional\startup\c018iz.c
                   _entry   0x000000    program     extern C:\Program Files\mcc18\src\traditional\startup\c018iz.c
                   _false   0x015842    program     static                          
                 _startup   0x0158bc    program     extern C:\Program Files\mcc18\src\traditional\startup\c018iz.c
              _usart_putc   0x01591a    program     extern C:\MCC18\src\pmc_common\USART\_usartpc.asm
               _user_putc   0x0159a4    program     extern C:\Program Files\mcc18\src\traditional\stdclib\_user_putc.c
          acLCDBlinkTitle   0x0102d2    program     extern D:\git\70M\Drivers\External-Peripherals\oled_c2.c
               acLCDTitle   0x00fe22    program     extern D:\git\70M\Drivers\External-Peripherals\oled_c2.c
                    atof1   0x00c544    program     extern D:\git\70M\SysLib\util.c 
                    atof5   0x00c4ae    program     extern D:\git\70M\SysLib\util.c 
                     atol   0x014f6c    program     extern C:\Program Files\mcc18\src\traditional\stdclib\atol.asm
             btohexa_high   0x00d246    program     extern D:\git\70M\Microchip\TCPIP Stack\Helpers.c
              btohexa_low   0x00d26e    program     extern D:\git\70M\Microchip\TCPIP Stack\Helpers.c
               clear_loop   0x015990    program     static C:\MCC18\src\traditional\proc\p18F97J60.asm
                copy_loop   0x01556e    program     static                          
            copy_one_byte   0x015574    program     static                          
                     done   0x015598    program     static                          
             done_copying   0x015582    program     static                          
                  endloop   0x01594c    program     static                          
                  endloop   0x01586e    program     static                          
                  hexatob   0x00d1fc    program     extern D:\git\70M\Microchip\TCPIP Stack\Helpers.c
         httpContentTypes   0x0156cb    program     static D:\git\70M\Microchip\TCPIP Stack\HTTP2.c
       httpFileExtensions   0x0156a7    program     static D:\git\70M\Microchip\TCPIP Stack\HTTP2.c
                 i2cclock   0x0145a2    program     extern D:\git\70M\Drivers\MCU-Internal\i2c_c1.c
                 i2cdelay   0x0145f0    program     extern D:\git\70M\Drivers\MCU-Internal\i2c_c1.c
                i2cgetack   0x0145ce    program     extern D:\git\70M\Drivers\MCU-Internal\i2c_c1.c
               i2cgetbyte   0x014544    program     extern D:\git\70M\Drivers\MCU-Internal\i2c_c1.c
               i2creadbit   0x0145ae    program     extern D:\git\70M\Drivers\MCU-Internal\i2c_c1.c
               i2csendack   0x0145e8    program     extern D:\git\70M\Drivers\MCU-Internal\i2c_c1.c
              i2csendbyte   0x014512    program     extern D:\git\70M\Drivers\MCU-Internal\i2c_c1.c
              i2csendnack   0x0145ec    program     extern D:\git\70M\Drivers\MCU-Internal\i2c_c1.c
                 i2cstart   0x01457c    program     extern D:\git\70M\Drivers\MCU-Internal\i2c_c1.c
                  i2cstop   0x014590    program     extern D:\git\70M\Drivers\MCU-Internal\i2c_c1.c
                  isdigit   0x015874    program     extern C:\Program Files\mcc18\src\traditional\stdclib\isdigit.asm
                 jANotInf   0x0108a8    program     static C:\Program Files\mcc18\src\traditional\math\mulFP.asm
                 jANotInf   0x0106e0    program     static C:\Program Files\mcc18\src\traditional\math\addFP.asm
                 jANotInf   0x010802    program     static C:\Program Files\mcc18\src\traditional\math\divFP.asm
                 jANotNeg   0x010774    program     static C:\Program Files\mcc18\src\traditional\math\addFP.asm
                jANotZero   0x010816    program     static C:\Program Files\mcc18\src\traditional\math\divFP.asm
              jAandWsetup   0x010744    program     static C:\Program Files\mcc18\src\traditional\math\addFP.asm
                  jAisNeg   0x010c44    program     static C:\Program Files\mcc18\src\traditional\math\compFP.asm
                 jAltBexp   0x010732    program     static C:\Program Files\mcc18\src\traditional\math\addFP.asm
                jBANotInf   0x0106d6    program     static C:\Program Files\mcc18\src\traditional\math\addFP.asm
                 jBNotInf   0x0106ee    program     static C:\Program Files\mcc18\src\traditional\math\addFP.asm
              jBothFinite   0x0108b6    program     static C:\Program Files\mcc18\src\traditional\math\mulFP.asm
             jBothNotZero   0x0108c2    program     static C:\Program Files\mcc18\src\traditional\math\mulFP.asm
             jBothNotZero   0x010be6    program     static C:\Program Files\mcc18\src\traditional\math\compFP.asm
            jDifOrPosSign   0x010702    program     static C:\Program Files\mcc18\src\traditional\math\addFP.asm
                      jEQ   0x010c02    program     static C:\Program Files\mcc18\src\traditional\math\compFP.asm
                     jEnd   0x012cc8    program     static C:\Program Files\mcc18\src\traditional\stdclib\memcpy.asm
                     jEnd   0x012c82    program     static C:\Program Files\mcc18\src\traditional\stdclib\mcmpp2r.asm
                     jEnd   0x012d1e    program     static C:\Program Files\mcc18\src\traditional\stdclib\mcpyp2r.asm
                     jEnd   0x012d52    program     static C:\Program Files\mcc18\src\traditional\stdclib\memset.asm
                     jEnd   0x012c44    program     static C:\Program Files\mcc18\src\traditional\stdclib\memchr.asm
                     jEnd   0x012dd2    program     static C:\Program Files\mcc18\src\traditional\stdclib\scatp2r.asm
                     jEnd   0x012dfa    program     static C:\Program Files\mcc18\src\traditional\stdclib\strchr.asm
                     jEnd   0x012e26    program     static C:\Program Files\mcc18\src\traditional\stdclib\strcmp.asm
                     jEnd   0x012e66    program     static C:\Program Files\mcc18\src\traditional\stdclib\scmpp2r.asm
                     jEnd   0x01508a    program     static C:\Program Files\mcc18\src\traditional\stdclib\atol.asm
                     jEnd   0x012eda    program     static C:\Program Files\mcc18\src\traditional\stdclib\scpyp2r.asm
                     jEnd   0x012ef6    program     static C:\Program Files\mcc18\src\traditional\stdclib\strlen.asm
                     jEnd   0x012f2e    program     static C:\Program Files\mcc18\src\traditional\stdclib\slenpgm.asm
                     jEnd   0x012f92    program     static C:\Program Files\mcc18\src\traditional\stdclib\strncat.asm
                     jEnd   0x012fee    program     static C:\Program Files\mcc18\src\traditional\stdclib\strncpy.asm
                     jEnd   0x013074    program     static C:\Program Files\mcc18\src\traditional\stdclib\strupr.asm
                     jEnd   0x01304a    program     static C:\Program Files\mcc18\src\traditional\stdclib\sncpyp2r.asm
                 jEndLoop   0x01505a    program     static C:\Program Files\mcc18\src\traditional\stdclib\atol.asm
                    jExch   0x010c0e    program     static C:\Program Files\mcc18\src\traditional\math\compFP.asm
                    jExit   0x010ba2    program     static C:\Program Files\mcc18\src\traditional\math\castFP32.asm
                    jExit   0x010b34    program     static C:\Program Files\mcc18\src\traditional\math\castFP16.asm
                   jExpEQ   0x010c54    program     static C:\Program Files\mcc18\src\traditional\math\compFP.asm
                   jFinal   0x010c38    program     static C:\Program Files\mcc18\src\traditional\math\compFP.asm
               jFinalSign   0x0107dc    program     static C:\Program Files\mcc18\src\traditional\math\addFP.asm
                jHaveZero   0x0108be    program     static C:\Program Files\mcc18\src\traditional\math\mulFP.asm
                jI2F08Beg   0x010678    program     static C:\Program Files\mcc18\src\traditional\math\cast08FP.asm
                jI2F16Beg   0x0106a0    program     static C:\Program Files\mcc18\src\traditional\math\cast16FP.asm
                    jLoop   0x010b14    program     static C:\Program Files\mcc18\src\traditional\math\castFP16.asm
                    jLoop   0x012eec    program     static C:\Program Files\mcc18\src\traditional\stdclib\strlen.asm
                    jLoop   0x014fcc    program     static C:\Program Files\mcc18\src\traditional\stdclib\atol.asm
                    jLoop   0x012ed0    program     static C:\Program Files\mcc18\src\traditional\stdclib\scpyp2r.asm
                    jLoop   0x012fcc    program     static C:\Program Files\mcc18\src\traditional\stdclib\strncpy.asm
                    jLoop   0x012e90    program     static C:\Program Files\mcc18\src\traditional\stdclib\strcpy.asm
                    jLoop   0x013026    program     static C:\Program Files\mcc18\src\traditional\stdclib\sncpyp2r.asm
                    jLoop   0x012f16    program     static C:\Program Files\mcc18\src\traditional\stdclib\slenpgm.asm
                    jLoop   0x012e5a    program     static C:\Program Files\mcc18\src\traditional\stdclib\scmpp2r.asm
                    jLoop   0x012c16    program     static C:\Program Files\mcc18\src\traditional\stdclib\memchr.asm
                    jLoop   0x012e1c    program     static C:\Program Files\mcc18\src\traditional\stdclib\strcmp.asm
                    jLoop   0x012f70    program     static C:\Program Files\mcc18\src\traditional\stdclib\strncat.asm
                    jLoop   0x012de0    program     static C:\Program Files\mcc18\src\traditional\stdclib\strchr.asm
                    jLoop   0x01083e    program     static C:\Program Files\mcc18\src\traditional\math\divFP.asm
                    jLoop   0x012cac    program     static C:\Program Files\mcc18\src\traditional\stdclib\memcpy.asm
                    jLoop   0x012dc8    program     static C:\Program Files\mcc18\src\traditional\stdclib\scatp2r.asm
                    jLoop   0x010b76    program     static C:\Program Files\mcc18\src\traditional\math\castFP32.asm
                    jLoop   0x012d34    program     static C:\Program Files\mcc18\src\traditional\stdclib\memset.asm
                    jLoop   0x012c64    program     static C:\Program Files\mcc18\src\traditional\stdclib\mcmpp2r.asm
                    jLoop   0x012d82    program     static C:\Program Files\mcc18\src\traditional\stdclib\strcat.asm
                    jLoop   0x012d00    program     static C:\Program Files\mcc18\src\traditional\stdclib\mcpyp2r.asm
                    jLoop   0x013060    program     static C:\Program Files\mcc18\src\traditional\stdclib\strupr.asm
                jLoopExit   0x010b24    program     static C:\Program Files\mcc18\src\traditional\math\castFP16.asm
                jLoopExit   0x010b8a    program     static C:\Program Files\mcc18\src\traditional\math\castFP32.asm
                   jMatch   0x015894    program     static C:\Program Files\mcc18\src\traditional\stdclib\isdigit.asm
                   jMatch   0x012df2    program     static C:\Program Files\mcc18\src\traditional\stdclib\strchr.asm
                     jMax   0x010b46    program     static C:\Program Files\mcc18\src\traditional\math\castFP32.asm
                     jMax   0x010ae8    program     static C:\Program Files\mcc18\src\traditional\math\castFP16.asm
                  jMaxNeg   0x010b58    program     static C:\Program Files\mcc18\src\traditional\math\castFP32.asm
                  jMaxNeg   0x010af6    program     static C:\Program Files\mcc18\src\traditional\math\castFP16.asm
                  jMaxPos   0x010b4a    program     static C:\Program Files\mcc18\src\traditional\math\castFP32.asm
                  jMaxPos   0x010aec    program     static C:\Program Files\mcc18\src\traditional\math\castFP16.asm
                      jNE   0x010c06    program     static C:\Program Files\mcc18\src\traditional\math\compFP.asm
                    jNext   0x010864    program     static C:\Program Files\mcc18\src\traditional\math\divFP.asm
                jNoAdjust   0x010862    program     static C:\Program Files\mcc18\src\traditional\math\divFP.asm
                  jNoExch   0x010c2e    program     static C:\Program Files\mcc18\src\traditional\math\compFP.asm
                 jNoMatch   0x015896    program     static C:\Program Files\mcc18\src\traditional\stdclib\isdigit.asm
                 jNoMatch   0x012c40    program     static C:\Program Files\mcc18\src\traditional\stdclib\memchr.asm
             jNotBothZero   0x010706    program     static C:\Program Files\mcc18\src\traditional\math\addFP.asm
                  jNotInf   0x010b04    program     static C:\Program Files\mcc18\src\traditional\math\castFP16.asm
                  jNotInf   0x010b64    program     static C:\Program Files\mcc18\src\traditional\math\castFP32.asm
                jNullLoop   0x012f6a    program     static C:\Program Files\mcc18\src\traditional\stdclib\strncat.asm
                jNullLoop   0x012d7c    program     static C:\Program Files\mcc18\src\traditional\stdclib\strcat.asm
                jNullLoop   0x012dc2    program     static C:\Program Files\mcc18\src\traditional\stdclib\scatp2r.asm
                  jPkLoop   0x010cb8    program     static C:\Program Files\mcc18\src\traditional\math\packFP.asm
             jPkRoundDone   0x010d02    program     static C:\Program Files\mcc18\src\traditional\math\packFP.asm
               jPkRoundIt   0x010cea    program     static C:\Program Files\mcc18\src\traditional\math\packFP.asm
             jPkShiftDone   0x010cd4    program     static C:\Program Files\mcc18\src\traditional\math\packFP.asm
           jReturnPosInf0   0x010c8e    program     static C:\Program Files\mcc18\src\traditional\math\packFP.asm
                  jRotate   0x010c60    program     static C:\Program Files\mcc18\src\traditional\math\compFP.asm
                   jShift   0x010c4a    program     static C:\Program Files\mcc18\src\traditional\math\compFP.asm
               jShiftDone   0x01079c    program     static C:\Program Files\mcc18\src\traditional\math\addFP.asm
               jShiftLoop   0x01078e    program     static C:\Program Files\mcc18\src\traditional\math\addFP.asm
                jSignDone   0x0107cc    program     static C:\Program Files\mcc18\src\traditional\math\addFP.asm
              jSignedZero   0x01080c    program     static C:\Program Files\mcc18\src\traditional\math\divFP.asm
                 jSignsEQ   0x010bea    program     static C:\Program Files\mcc18\src\traditional\math\compFP.asm
                    jSkip   0x013070    program     static C:\Program Files\mcc18\src\traditional\stdclib\strupr.asm
                  jSkipWS   0x014fa2    program     static C:\Program Files\mcc18\src\traditional\stdclib\atol.asm
                 jSkipWS1   0x014fb4    program     static C:\Program Files\mcc18\src\traditional\stdclib\atol.asm
                    jTerm   0x012f90    program     static C:\Program Files\mcc18\src\traditional\stdclib\strncat.asm
                 jTstSign   0x014fb8    program     static C:\Program Files\mcc18\src\traditional\stdclib\atol.asm
                jTstSign1   0x014fc4    program     static C:\Program Files\mcc18\src\traditional\stdclib\atol.asm
                jTstSign2   0x014fca    program     static C:\Program Files\mcc18\src\traditional\stdclib\atol.asm
                jTstSign3   0x014fcc    program     static C:\Program Files\mcc18\src\traditional\stdclib\atol.asm
                  jUnpkA1   0x010d2c    program     static C:\Program Files\mcc18\src\traditional\math\UnpackFP.asm
                  jUnpkA2   0x010d44    program     static C:\Program Files\mcc18\src\traditional\math\UnpackFP.asm
                 jUnpkANZ   0x010d3a    program     static C:\Program Files\mcc18\src\traditional\math\UnpackFP.asm
                  jUnpkB1   0x010d5c    program     static C:\Program Files\mcc18\src\traditional\math\UnpackFP.asm
                  jUnpkB2   0x010d74    program     static C:\Program Files\mcc18\src\traditional\math\UnpackFP.asm
                 jUnpkBNZ   0x010d6a    program     static C:\Program Files\mcc18\src\traditional\math\UnpackFP.asm
                 jUnpkNaN   0x010d4e    program     static C:\Program Files\mcc18\src\traditional\math\UnpackFP.asm
                 jWNotNeg   0x010788    program     static C:\Program Files\mcc18\src\traditional\math\addFP.asm
                   jWr123   0x010b50    program     static C:\Program Files\mcc18\src\traditional\math\castFP32.asm
                  jWrZ123   0x010b60    program     static C:\Program Files\mcc18\src\traditional\math\castFP32.asm
                    jZero   0x010afe    program     static C:\Program Files\mcc18\src\traditional\math\castFP16.asm
                    jZero   0x010b5e    program     static C:\Program Files\mcc18\src\traditional\math\castFP32.asm
               jZero1and2   0x010c92    program     static C:\Program Files\mcc18\src\traditional\math\packFP.asm
          leftRotateDWORD   0x00d4ea    program     extern D:\git\70M\Microchip\TCPIP Stack\Helpers.c
                     loop   0x0158d0    program     static                          
                     loop   0x01580e    program     static                          
                     loop   0x015852    program     static                          
                     loop   0x01592a    program     static C:\MCC18\src\pmc_common\USART\_usartpc.asm
                     loop   0x01593e    program     static                          
                     main   0x013d7e    program     extern D:\git\70M\Main\Main.c   
                   memchr   0x012c0a    program     extern C:\Program Files\mcc18\src\traditional\stdclib\memchr.asm
            memcmppgm2ram   0x012c46    program     extern C:\Program Files\mcc18\src\traditional\stdclib\mcmpp2r.asm
                   memcpy   0x012c84    program     extern C:\Program Files\mcc18\src\traditional\stdclib\memcpy.asm
            memcpypgm2ram   0x012cda    program     extern C:\Program Files\mcc18\src\traditional\stdclib\mcpyp2r.asm
                   memset   0x012d20    program     extern C:\Program Files\mcc18\src\traditional\stdclib\memset.asm
                     putc   0x015620    program     extern C:\Program Files\mcc18\src\traditional\stdclib\putc.c
                putsUSART   0x0153a2    program     extern D:\git\70M\Microchip\TCPIP Stack\UART.c
               putsUSART2   0x0153f6    program     extern D:\git\70M\Microchip\TCPIP Stack\UART.c
                     rand   0x0150d0    program     extern C:\Program Files\mcc18\src\traditional\stdclib\rand.asm
                 s_digits   0x015968    program     static C:\Program Files\mcc18\src\traditional\stdclib\vfprintf.c
            s_put_n_chars   0x00d83a    program     static C:\Program Files\mcc18\src\traditional\stdclib\vfprintf.c
                  sprintf   0x015450    program     extern C:\Program Files\mcc18\src\traditional\stdclib\sprintf.c
                    srand   0x0150c2    program     extern C:\Program Files\mcc18\src\traditional\stdclib\rand.asm
            stMenuDisplay   0x00fc06    program     extern D:\git\70M\Drivers\External-Peripherals\oled_c2.c
                   strcat   0x012d54    program     extern C:\Program Files\mcc18\src\traditional\stdclib\strcat.asm
            strcatpgm2ram   0x012d9c    program     extern C:\Program Files\mcc18\src\traditional\stdclib\scatp2r.asm
                   strchr   0x012dd4    program     extern C:\Program Files\mcc18\src\traditional\stdclib\strchr.asm
                   strcmp   0x012dfc    program     extern C:\Program Files\mcc18\src\traditional\stdclib\strcmp.asm
            strcmppgm2ram   0x012e3c    program     extern C:\Program Files\mcc18\src\traditional\stdclib\scmpp2r.asm
                   strcpy   0x012e68    program     extern C:\Program Files\mcc18\src\traditional\stdclib\strcpy.asm
            strcpypgm2ram   0x012eaa    program     extern C:\Program Files\mcc18\src\traditional\stdclib\scpyp2r.asm
           stricmppgm2ram   0x00d292    program     extern D:\git\70M\Microchip\TCPIP Stack\Helpers.c
                   strlen   0x012edc    program     extern C:\Program Files\mcc18\src\traditional\stdclib\strlen.asm
                strlenpgm   0x012ef8    program     extern C:\Program Files\mcc18\src\traditional\stdclib\slenpgm.asm
                  strncat   0x012f42    program     extern C:\Program Files\mcc18\src\traditional\stdclib\strncat.asm
                  strnchr   0x00d5c2    program     extern D:\git\70M\Microchip\TCPIP Stack\Helpers.c
                  strncpy   0x012fa4    program     extern C:\Program Files\mcc18\src\traditional\stdclib\strncpy.asm
           strncpypgm2ram   0x013000    program     extern C:\Program Files\mcc18\src\traditional\stdclib\sncpyp2r.asm
                   strupr   0x01304c    program     extern C:\Program Files\mcc18\src\traditional\stdclib\strupr.asm
                    swapl   0x00d380    program     extern D:\git\70M\Microchip\TCPIP Stack\Helpers.c
                    swaps   0x00d342    program     extern D:\git\70M\Microchip\TCPIP Stack\Helpers.c
                     test   0x015516    program     static                          
                    uitoa   0x00d106    program     extern D:\git\70M\Microchip\TCPIP Stack\Helpers.c
                 vfprintf   0x00d866    program     extern C:\Program Files\mcc18\src\traditional\stdclib\vfprintf.c
                 ADCInfo1   0x000597       data     extern D:\git\70M\Drivers\MCU-Internal\internalADC.c
                   ADCON0   0x000fc2       data     extern C:\MCC18\src\traditional\proc\p18F97J60.asm
               ADCON0bits   0x000fc2       data     extern C:\MCC18\src\traditional\proc\p18F97J60.asm
                   ADCON1   0x000fc1       data     extern C:\MCC18\src\traditional\proc\p18F97J60.asm
               ADCON1bits   0x000fc1       data     extern C:\MCC18\src\traditional\proc\p18F97J60.asm
                   ADCON2   0x000fc0       data     extern C:\MCC18\src\traditional\proc\p18F97J60.asm
               ADCON2bits   0x000fc0       data     extern C:\MCC18\src\traditional\proc\p18F97J60.asm
               ADC_result   0x00059f       data     extern D:\git\70M\Drivers\MCU-Internal\internalADC.c
                    ADRES   0x000fc3       data     extern C:\MCC18\src\traditional\proc\p18F97J60.asm
                   ADRESH   0x000fc4       data     extern C:\MCC18\src\traditional\proc\p18F97J60.asm
                   ADRESL   0x000fc3       data     extern C:\MCC18\src\traditional\proc\p18F97J60.asm
                AppConfig   0x000e47       data     extern D:\git\70M\Main\Main.c   
             AttenString1   0x00012a       data     extern D:\git\70M\Drivers\External-Peripherals\oled_c2.c
             AttenString2   0x000132       data     extern D:\git\70M\Drivers\External-Peripherals\oled_c2.c
                  BAUDCON   0x000f7e       data     extern C:\MCC18\src\traditional\proc\p18F97J60.asm
                 BAUDCON1   0x000f7e       data     extern C:\MCC18\src\traditional\proc\p18F97J60.asm
             BAUDCON1bits   0x000f7e       data     extern C:\MCC18\src\traditional\proc\p18F97J60.asm
                 BAUDCON2   0x000f7c       data     extern C:\MCC18\src\traditional\proc\p18F97J60.asm
             BAUDCON2bits   0x000f7c       data     extern C:\MCC18\src\traditional\proc\p18F97J60.asm
              BAUDCONbits   0x000f7e       data     extern C:\MCC18\src\traditional\proc\p18F97J60.asm
                  BAUDCTL   0x000f7e       data     extern C:\MCC18\src\traditional\proc\p18F97J60.asm
                 BAUDCTL1   0x000f7e       data     extern C:\MCC18\src\traditional\proc\p18F97J60.asm
             BAUDCTL1bits   0x000f7e       data     extern C:\MCC18\src\traditional\proc\p18F97J60.asm
                 BAUDCTL2   0x000f7c       data     extern C:\MCC18\src\traditional\proc\p18F97J60.asm
             BAUDCTL2bits   0x000f7c       data     extern C:\MCC18\src\traditional\proc\p18F97J60.asm
              BAUDCTLbits   0x000f7e       data     extern C:\MCC18\src\traditional\proc\p18F97J60.asm
                      BSR   0x000fe0       data     extern C:\MCC18\src\traditional\proc\p18F97J60.asm
                  CCP1CON   0x000fbd       data     extern C:\MCC18\src\traditional\proc\p18F97J60.asm
              CCP1CONbits   0x000fbd       data     extern C:\MCC18\src\traditional\proc\p18F97J60.asm
                  CCP2CON   0x000fba       data     extern C:\MCC18\src\traditional\proc\p18F97J60.asm
              CCP2CONbits   0x000fba       data     extern C:\MCC18\src\traditional\proc\p18F97J60.asm
                  CCP3CON   0x000fb7       data     extern C:\MCC18\src\traditional\proc\p18F97J60.asm
              CCP3CONbits   0x000fb7       data     extern C:\MCC18\src\traditional\proc\p18F97J60.asm
                  CCP4CON   0x000f73       data     extern C:\MCC18\src\traditional\proc\p18F97J60.asm
              CCP4CONbits   0x000f73       data     extern C:\MCC18\src\traditional\proc\p18F97J60.asm
                  CCP5CON   0x000f70       data     extern C:\MCC18\src\traditional\proc\p18F97J60.asm
              CCP5CONbits   0x000f70       data     extern C:\MCC18\src\traditional\proc\p18F97J60.asm
                    CCPR1   0x000fbe       data     extern C:\MCC18\src\traditional\proc\p18F97J60.asm
                   CCPR1H   0x000fbf       data     extern C:\MCC18\src\traditional\proc\p18F97J60.asm
                   CCPR1L   0x000fbe       data     extern C:\MCC18\src\traditional\proc\p18F97J60.asm
                    CCPR2   0x000fbb       data     extern C:\MCC18\src\traditional\proc\p18F97J60.asm
                   CCPR2H   0x000fbc       data     extern C:\MCC18\src\traditional\proc\p18F97J60.asm
                   CCPR2L   0x000fbb       data     extern C:\MCC18\src\traditional\proc\p18F97J60.asm
                    CCPR3   0x000fb8       data     extern C:\MCC18\src\traditional\proc\p18F97J60.asm
                   CCPR3H   0x000fb9       data     extern C:\MCC18\src\traditional\proc\p18F97J60.asm
                   CCPR3L   0x000fb8       data     extern C:\MCC18\src\traditional\proc\p18F97J60.asm
                    CCPR4   0x000f74       data     extern C:\MCC18\src\traditional\proc\p18F97J60.asm
                   CCPR4H   0x000f75       data     extern C:\MCC18\src\traditional\proc\p18F97J60.asm
                   CCPR4L   0x000f74       data     extern C:\MCC18\src\traditional\proc\p18F97J60.asm
                    CCPR5   0x000f71       data     extern C:\MCC18\src\traditional\proc\p18F97J60.asm
                   CCPR5H   0x000f72       data     extern C:\MCC18\src\traditional\proc\p18F97J60.asm
                   CCPR5L   0x000f71       data     extern C:\MCC18\src\traditional\proc\p18F97J60.asm
                    CMCON   0x000fb4       data     extern C:\MCC18\src\traditional\proc\p18F97J60.asm
                CMCONbits   0x000fb4       data     extern C:\MCC18\src\traditional\proc\p18F97J60.asm
                   CVRCON   0x000fb5       data     extern C:\MCC18\src\traditional\proc\p18F97J60.asm
               CVRCONbits   0x000fb5       data     extern C:\MCC18\src\traditional\proc\p18F97J60.asm
                    Cache   0x000578       data     static D:\git\70M\Microchip\TCPIP Stack\ARP.c
              ConvertMenu   0x000250       data     extern D:\git\70M\Drivers\External-Peripherals\oled_c2.c
              CurrentMenu   0x0001b8       data     extern D:\git\70M\Drivers\External-Peripherals\oled_c2.c
    CurrentPacketLocation   0x0005b5       data     static D:\git\70M\Microchip\TCPIP Stack\ETH97J60.c
                     DDRA   0x000f92       data     extern C:\MCC18\src\traditional\proc\p18F97J60.asm
                 DDRAbits   0x000f92       data     extern C:\MCC18\src\traditional\proc\p18F97J60.asm
                     DDRB   0x000f93       data     extern C:\MCC18\src\traditional\proc\p18F97J60.asm
                 DDRBbits   0x000f93       data     extern C:\MCC18\src\traditional\proc\p18F97J60.asm
                     DDRC   0x000f94       data     extern C:\MCC18\src\traditional\proc\p18F97J60.asm
                 DDRCbits   0x000f94       data     extern C:\MCC18\src\traditional\proc\p18F97J60.asm
                     DDRD   0x000f95       data     extern C:\MCC18\src\traditional\proc\p18F97J60.asm
                 DDRDbits   0x000f95       data     extern C:\MCC18\src\traditional\proc\p18F97J60.asm
                     DDRE   0x000f96       data     extern C:\MCC18\src\traditional\proc\p18F97J60.asm
                 DDREbits   0x000f96       data     extern C:\MCC18\src\traditional\proc\p18F97J60.asm
                     DDRF   0x000f97       data     extern C:\MCC18\src\traditional\proc\p18F97J60.asm
                 DDRFbits   0x000f97       data     extern C:\MCC18\src\traditional\proc\p18F97J60.asm
                     DDRG   0x000f98       data     extern C:\MCC18\src\traditional\proc\p18F97J60.asm
                 DDRGbits   0x000f98       data     extern C:\MCC18\src\traditional\proc\p18F97J60.asm
                     DDRH   0x000f99       data     extern C:\MCC18\src\traditional\proc\p18F97J60.asm
                 DDRHbits   0x000f99       data     extern C:\MCC18\src\traditional\proc\p18F97J60.asm
                     DDRJ   0x000f9a       data     extern C:\MCC18\src\traditional\proc\p18F97J60.asm
                 DDRJbits   0x000f9a       data     extern C:\MCC18\src\traditional\proc\p18F97J60.asm
            DelayCounter1   0x000025       data     extern C:\Program Files\mcc18\src\traditional\delays\delayd1.asm
                  ECCP1AS   0x000fb6       data     extern C:\MCC18\src\traditional\proc\p18F97J60.asm
              ECCP1ASbits   0x000fb6       data     extern C:\MCC18\src\traditional\proc\p18F97J60.asm
                 ECCP1CON   0x000fbd       data     extern C:\MCC18\src\traditional\proc\p18F97J60.asm
             ECCP1CONbits   0x000fbd       data     extern C:\MCC18\src\traditional\proc\p18F97J60.asm
                 ECCP1DEL   0x000f79       data     extern C:\MCC18\src\traditional\proc\p18F97J60.asm
             ECCP1DELbits   0x000f79       data     extern C:\MCC18\src\traditional\proc\p18F97J60.asm
                  ECCP2AS   0x000f68       data     extern C:\MCC18\src\traditional\proc\p18F97J60.asm
              ECCP2ASbits   0x000f68       data     extern C:\MCC18\src\traditional\proc\p18F97J60.asm
                 ECCP2CON   0x000fba       data     extern C:\MCC18\src\traditional\proc\p18F97J60.asm
             ECCP2CONbits   0x000fba       data     extern C:\MCC18\src\traditional\proc\p18F97J60.asm
                 ECCP2DEL   0x000f67       data     extern C:\MCC18\src\traditional\proc\p18F97J60.asm
             ECCP2DELbits   0x000f67       data     extern C:\MCC18\src\traditional\proc\p18F97J60.asm
                  ECCP3AS   0x000f6a       data     extern C:\MCC18\src\traditional\proc\p18F97J60.asm
              ECCP3ASbits   0x000f6a       data     extern C:\MCC18\src\traditional\proc\p18F97J60.asm
                 ECCP3CON   0x000fb7       data     extern C:\MCC18\src\traditional\proc\p18F97J60.asm
             ECCP3CONbits   0x000fb7       data     extern C:\MCC18\src\traditional\proc\p18F97J60.asm
                 ECCP3DEL   0x000f69       data     extern C:\MCC18\src\traditional\proc\p18F97J60.asm
             ECCP3DELbits   0x000f69       data     extern C:\MCC18\src\traditional\proc\p18F97J60.asm
                    ECON1   0x000fd2       data     extern C:\MCC18\src\traditional\proc\p18F97J60.asm
                ECON1bits   0x000fd2       data     extern C:\MCC18\src\traditional\proc\p18F97J60.asm
                    ECON2   0x000efe       data     extern C:\MCC18\src\traditional\proc\p18F97J60.asm
                ECON2bits   0x000efe       data     extern C:\MCC18\src\traditional\proc\p18F97J60.asm
                    EDATA   0x000f61       data     extern C:\MCC18\src\traditional\proc\p18F97J60.asm
                EDATAbits   0x000f61       data     extern C:\MCC18\src\traditional\proc\p18F97J60.asm
                   EDMACS   0x000ef6       data     extern C:\MCC18\src\traditional\proc\p18F97J60.asm
                  EDMACSH   0x000ef7       data     extern C:\MCC18\src\traditional\proc\p18F97J60.asm
                  EDMACSL   0x000ef6       data     extern C:\MCC18\src\traditional\proc\p18F97J60.asm
                  EDMADST   0x000ef4       data     extern C:\MCC18\src\traditional\proc\p18F97J60.asm
                 EDMADSTH   0x000ef5       data     extern C:\MCC18\src\traditional\proc\p18F97J60.asm
                 EDMADSTL   0x000ef4       data     extern C:\MCC18\src\traditional\proc\p18F97J60.asm
                   EDMAND   0x000ef2       data     extern C:\MCC18\src\traditional\proc\p18F97J60.asm
                  EDMANDH   0x000ef3       data     extern C:\MCC18\src\traditional\proc\p18F97J60.asm
                  EDMANDL   0x000ef2       data     extern C:\MCC18\src\traditional\proc\p18F97J60.asm
                   EDMAST   0x000ef0       data     extern C:\MCC18\src\traditional\proc\p18F97J60.asm
                  EDMASTH   0x000ef1       data     extern C:\MCC18\src\traditional\proc\p18F97J60.asm
                  EDMASTL   0x000ef0       data     extern C:\MCC18\src\traditional\proc\p18F97J60.asm
                   EECON1   0x000fa6       data     extern C:\MCC18\src\traditional\proc\p18F97J60.asm
               EECON1bits   0x000fa6       data     extern C:\MCC18\src\traditional\proc\p18F97J60.asm
                   EECON2   0x000fa7       data     extern C:\MCC18\src\traditional\proc\p18F97J60.asm
            EEPROMAddress   0x00053c       data     static D:\git\70M\Microchip\TCPIP Stack\SPIEEPROM.c
             EEPROMBuffer   0x000540       data     static D:\git\70M\Microchip\TCPIP Stack\SPIEEPROM.c
                  EFLOCON   0x000e97       data     extern C:\MCC18\src\traditional\proc\p18F97J60.asm
              EFLOCONbits   0x000e97       data     extern C:\MCC18\src\traditional\proc\p18F97J60.asm
                     EHT0   0x000ec0       data     extern C:\MCC18\src\traditional\proc\p18F97J60.asm
                     EHT1   0x000ec1       data     extern C:\MCC18\src\traditional\proc\p18F97J60.asm
                     EHT2   0x000ec2       data     extern C:\MCC18\src\traditional\proc\p18F97J60.asm
                     EHT3   0x000ec3       data     extern C:\MCC18\src\traditional\proc\p18F97J60.asm
                     EHT4   0x000ec4       data     extern C:\MCC18\src\traditional\proc\p18F97J60.asm
                     EHT5   0x000ec5       data     extern C:\MCC18\src\traditional\proc\p18F97J60.asm
                     EHT6   0x000ec6       data     extern C:\MCC18\src\traditional\proc\p18F97J60.asm
                     EHT7   0x000ec7       data     extern C:\MCC18\src\traditional\proc\p18F97J60.asm
                      EIE   0x000efb       data     extern C:\MCC18\src\traditional\proc\p18F97J60.asm
                  EIEbits   0x000efb       data     extern C:\MCC18\src\traditional\proc\p18F97J60.asm
                      EIR   0x000f60       data     extern C:\MCC18\src\traditional\proc\p18F97J60.asm
                  EIRbits   0x000f60       data     extern C:\MCC18\src\traditional\proc\p18F97J60.asm
                    EPAUS   0x000e98       data     extern C:\MCC18\src\traditional\proc\p18F97J60.asm
                   EPAUSH   0x000e99       data     extern C:\MCC18\src\traditional\proc\p18F97J60.asm
                   EPAUSL   0x000e98       data     extern C:\MCC18\src\traditional\proc\p18F97J60.asm
                  EPKTCNT   0x000ed9       data     extern C:\MCC18\src\traditional\proc\p18F97J60.asm
                    EPMCS   0x000ed0       data     extern C:\MCC18\src\traditional\proc\p18F97J60.asm
                   EPMCSH   0x000ed1       data     extern C:\MCC18\src\traditional\proc\p18F97J60.asm
                   EPMCSL   0x000ed0       data     extern C:\MCC18\src\traditional\proc\p18F97J60.asm
                    EPMM0   0x000ec8       data     extern C:\MCC18\src\traditional\proc\p18F97J60.asm
                    EPMM1   0x000ec9       data     extern C:\MCC18\src\traditional\proc\p18F97J60.asm
                    EPMM2   0x000eca       data     extern C:\MCC18\src\traditional\proc\p18F97J60.asm
                    EPMM3   0x000ecb       data     extern C:\MCC18\src\traditional\proc\p18F97J60.asm
                    EPMM4   0x000ecc       data     extern C:\MCC18\src\traditional\proc\p18F97J60.asm
                    EPMM5   0x000ecd       data     extern C:\MCC18\src\traditional\proc\p18F97J60.asm
                    EPMM6   0x000ece       data     extern C:\MCC18\src\traditional\proc\p18F97J60.asm
                    EPMM7   0x000ecf       data     extern C:\MCC18\src\traditional\proc\p18F97J60.asm
                     EPMO   0x000ed4       data     extern C:\MCC18\src\traditional\proc\p18F97J60.asm
                    EPMOH   0x000ed5       data     extern C:\MCC18\src\traditional\proc\p18F97J60.asm
                    EPMOL   0x000ed4       data     extern C:\MCC18\src\traditional\proc\p18F97J60.asm
                    ERDPT   0x000f7a       data     extern C:\MCC18\src\traditional\proc\p18F97J60.asm
                   ERDPTH   0x000f7b       data     extern C:\MCC18\src\traditional\proc\p18F97J60.asm
                   ERDPTL   0x000f7a       data     extern C:\MCC18\src\traditional\proc\p18F97J60.asm
                  ERXFCON   0x000ed8       data     extern C:\MCC18\src\traditional\proc\p18F97J60.asm
              ERXFCONbits   0x000ed8       data     extern C:\MCC18\src\traditional\proc\p18F97J60.asm
                    ERXND   0x000eea       data     extern C:\MCC18\src\traditional\proc\p18F97J60.asm
                   ERXNDH   0x000eeb       data     extern C:\MCC18\src\traditional\proc\p18F97J60.asm
                   ERXNDL   0x000eea       data     extern C:\MCC18\src\traditional\proc\p18F97J60.asm
                  ERXRDPT   0x000eec       data     extern C:\MCC18\src\traditional\proc\p18F97J60.asm
                 ERXRDPTH   0x000eed       data     extern C:\MCC18\src\traditional\proc\p18F97J60.asm
                 ERXRDPTL   0x000eec       data     extern C:\MCC18\src\traditional\proc\p18F97J60.asm
                    ERXST   0x000ee8       data     extern C:\MCC18\src\traditional\proc\p18F97J60.asm
                   ERXSTH   0x000ee9       data     extern C:\MCC18\src\traditional\proc\p18F97J60.asm
                   ERXSTL   0x000ee8       data     extern C:\MCC18\src\traditional\proc\p18F97J60.asm
                  ERXWRPT   0x000eee       data     extern C:\MCC18\src\traditional\proc\p18F97J60.asm
                 ERXWRPTH   0x000eef       data     extern C:\MCC18\src\traditional\proc\p18F97J60.asm
                 ERXWRPTL   0x000eee       data     extern C:\MCC18\src\traditional\proc\p18F97J60.asm
                    ESTAT   0x000efd       data     extern C:\MCC18\src\traditional\proc\p18F97J60.asm
                ESTATbits   0x000efd       data     extern C:\MCC18\src\traditional\proc\p18F97J60.asm
                    ETXND   0x000ee6       data     extern C:\MCC18\src\traditional\proc\p18F97J60.asm
                   ETXNDH   0x000ee7       data     extern C:\MCC18\src\traditional\proc\p18F97J60.asm
                   ETXNDL   0x000ee6       data     extern C:\MCC18\src\traditional\proc\p18F97J60.asm
                    ETXST   0x000ee4       data     extern C:\MCC18\src\traditional\proc\p18F97J60.asm
                   ETXSTH   0x000ee5       data     extern C:\MCC18\src\traditional\proc\p18F97J60.asm
                   ETXSTL   0x000ee4       data     extern C:\MCC18\src\traditional\proc\p18F97J60.asm
                    EWRPT   0x000ee2       data     extern C:\MCC18\src\traditional\proc\p18F97J60.asm
                   EWRPTH   0x000ee3       data     extern C:\MCC18\src\traditional\proc\p18F97J60.asm
                   EWRPTL   0x000ee2       data     extern C:\MCC18\src\traditional\proc\p18F97J60.asm
                 EditMode   0x0001be       data     extern D:\git\70M\Drivers\External-Peripherals\oled_c2.c
             EditPosition   0x0001bf       data     extern D:\git\70M\Drivers\External-Peripherals\oled_c2.c
           EditUpdateFlag   0x0001bc       data     extern D:\git\70M\Drivers\External-Peripherals\oled_c2.c
                     FSR0   0x000fe9       data     extern C:\MCC18\src\traditional\proc\p18F97J60.asm
                    FSR0H   0x000fea       data     extern C:\MCC18\src\traditional\proc\p18F97J60.asm
                    FSR0L   0x000fe9       data     extern C:\MCC18\src\traditional\proc\p18F97J60.asm
                     FSR1   0x000fe1       data     extern C:\MCC18\src\traditional\proc\p18F97J60.asm
                    FSR1H   0x000fe2       data     extern C:\MCC18\src\traditional\proc\p18F97J60.asm
                    FSR1L   0x000fe1       data     extern C:\MCC18\src\traditional\proc\p18F97J60.asm
                     FSR2   0x000fd9       data     extern C:\MCC18\src\traditional\proc\p18F97J60.asm
                    FSR2H   0x000fda       data     extern C:\MCC18\src\traditional\proc\p18F97J60.asm
                    FSR2L   0x000fd9       data     extern C:\MCC18\src\traditional\proc\p18F97J60.asm
          FirmwareVersion   0x000561       data     extern D:\git\70M\Main\Main.c   
            FirstPressKey   0x0001c0       data     extern D:\git\70M\Drivers\External-Peripherals\oled_c2.c
              HardwareWDT   0x000567       data     extern D:\git\70M\Main\Main.c   
         I2CReceiveBuffer   0x0000f0       data     extern D:\git\70M\Drivers\MCU-Internal\i2c_c1.c
          I2CSlaveAddress   0x0005d4       data     extern D:\git\70M\App\WebUI\HTTPGetDevInfo.c
                    INDF0   0x000fef       data     extern C:\MCC18\src\traditional\proc\p18F97J60.asm
                    INDF1   0x000fe7       data     extern C:\MCC18\src\traditional\proc\p18F97J60.asm
                    INDF2   0x000fdf       data     extern C:\MCC18\src\traditional\proc\p18F97J60.asm
                   INTCON   0x000ff2       data     extern C:\MCC18\src\traditional\proc\p18F97J60.asm
                  INTCON2   0x000ff1       data     extern C:\MCC18\src\traditional\proc\p18F97J60.asm
              INTCON2bits   0x000ff1       data     extern C:\MCC18\src\traditional\proc\p18F97J60.asm
                  INTCON3   0x000ff0       data     extern C:\MCC18\src\traditional\proc\p18F97J60.asm
              INTCON3bits   0x000ff0       data     extern C:\MCC18\src\traditional\proc\p18F97J60.asm
               INTCONbits   0x000ff2       data     extern C:\MCC18\src\traditional\proc\p18F97J60.asm
              IPHeaderLen   0x0005d8       data     static D:\git\70M\Microchip\TCPIP Stack\IP.c
                     IPR1   0x000f9f       data     extern C:\MCC18\src\traditional\proc\p18F97J60.asm
                 IPR1bits   0x000f9f       data     extern C:\MCC18\src\traditional\proc\p18F97J60.asm
                     IPR2   0x000fa2       data     extern C:\MCC18\src\traditional\proc\p18F97J60.asm
                 IPR2bits   0x000fa2       data     extern C:\MCC18\src\traditional\proc\p18F97J60.asm
                     IPR3   0x000fa5       data     extern C:\MCC18\src\traditional\proc\p18F97J60.asm
                 IPR3bits   0x000fa5       data     extern C:\MCC18\src\traditional\proc\p18F97J60.asm
                 IPString   0x00013a       data     extern D:\git\70M\Drivers\External-Peripherals\oled_c2.c
           KeyPressedFlag   0x0001b9       data     extern D:\git\70M\Drivers\External-Peripherals\oled_c2.c
                        L   0x0005cf       data     extern D:\git\70M\SysLib\util.c 
                     LATA   0x000f89       data     extern C:\MCC18\src\traditional\proc\p18F97J60.asm
                 LATAbits   0x000f89       data     extern C:\MCC18\src\traditional\proc\p18F97J60.asm
                     LATB   0x000f8a       data     extern C:\MCC18\src\traditional\proc\p18F97J60.asm
                 LATBbits   0x000f8a       data     extern C:\MCC18\src\traditional\proc\p18F97J60.asm
                     LATC   0x000f8b       data     extern C:\MCC18\src\traditional\proc\p18F97J60.asm
                 LATCbits   0x000f8b       data     extern C:\MCC18\src\traditional\proc\p18F97J60.asm
                     LATD   0x000f8c       data     extern C:\MCC18\src\traditional\proc\p18F97J60.asm
                 LATDbits   0x000f8c       data     extern C:\MCC18\src\traditional\proc\p18F97J60.asm
                     LATE   0x000f8d       data     extern C:\MCC18\src\traditional\proc\p18F97J60.asm
                 LATEbits   0x000f8d       data     extern C:\MCC18\src\traditional\proc\p18F97J60.asm
                     LATF   0x000f8e       data     extern C:\MCC18\src\traditional\proc\p18F97J60.asm
                 LATFbits   0x000f8e       data     extern C:\MCC18\src\traditional\proc\p18F97J60.asm
                     LATG   0x000f8f       data     extern C:\MCC18\src\traditional\proc\p18F97J60.asm
                 LATGbits   0x000f8f       data     extern C:\MCC18\src\traditional\proc\p18F97J60.asm
                     LATH   0x000f90       data     extern C:\MCC18\src\traditional\proc\p18F97J60.asm
                 LATHbits   0x000f90       data     extern C:\MCC18\src\traditional\proc\p18F97J60.asm
                     LATJ   0x000f91       data     extern C:\MCC18\src\traditional\proc\p18F97J60.asm
                 LATJbits   0x000f91       data     extern C:\MCC18\src\traditional\proc\p18F97J60.asm
           LCDBlinkBuffer   0x000200       data     extern D:\git\70M\Drivers\External-Peripherals\oled_c2.c
        LCDBufferPosition   0x000e00       data     extern D:\git\70M\Drivers\External-Peripherals\oled_c2.c
           LCDPrintBuffer   0x000060       data     extern D:\git\70M\Drivers\External-Peripherals\oled_c2.c
          LOStatusString1   0x000100       data     extern D:\git\70M\Drivers\External-Peripherals\oled_c2.c
          LOStatusString2   0x000109       data     extern D:\git\70M\Drivers\External-Peripherals\oled_c2.c
                 LastMenu   0x0001b7       data     extern D:\git\70M\Drivers\External-Peripherals\oled_c2.c
                   MAADR1   0x000e84       data     extern C:\MCC18\src\traditional\proc\p18F97J60.asm
                   MAADR2   0x000e85       data     extern C:\MCC18\src\traditional\proc\p18F97J60.asm
                   MAADR3   0x000e82       data     extern C:\MCC18\src\traditional\proc\p18F97J60.asm
                   MAADR4   0x000e83       data     extern C:\MCC18\src\traditional\proc\p18F97J60.asm
                   MAADR5   0x000e80       data     extern C:\MCC18\src\traditional\proc\p18F97J60.asm
                   MAADR6   0x000e81       data     extern C:\MCC18\src\traditional\proc\p18F97J60.asm
                  MABBIPG   0x000ea4       data     extern C:\MCC18\src\traditional\proc\p18F97J60.asm
                   MACON1   0x000ea0       data     extern C:\MCC18\src\traditional\proc\p18F97J60.asm
               MACON1bits   0x000ea0       data     extern C:\MCC18\src\traditional\proc\p18F97J60.asm
                   MACON3   0x000ea2       data     extern C:\MCC18\src\traditional\proc\p18F97J60.asm
               MACON3bits   0x000ea2       data     extern C:\MCC18\src\traditional\proc\p18F97J60.asm
                   MACON4   0x000ea3       data     extern C:\MCC18\src\traditional\proc\p18F97J60.asm
               MACON4bits   0x000ea3       data     extern C:\MCC18\src\traditional\proc\p18F97J60.asm
                    MAIPG   0x000ea6       data     extern C:\MCC18\src\traditional\proc\p18F97J60.asm
                   MAIPGH   0x000ea7       data     extern C:\MCC18\src\traditional\proc\p18F97J60.asm
                   MAIPGL   0x000ea6       data     extern C:\MCC18\src\traditional\proc\p18F97J60.asm
                   MAMXFL   0x000eaa       data     extern C:\MCC18\src\traditional\proc\p18F97J60.asm
                  MAMXFLH   0x000eab       data     extern C:\MCC18\src\traditional\proc\p18F97J60.asm
                  MAMXFLL   0x000eaa       data     extern C:\MCC18\src\traditional\proc\p18F97J60.asm
                   MEMCON   0x000f9c       data     extern C:\MCC18\src\traditional\proc\p18F97J60.asm
               MEMCONbits   0x000f9c       data     extern C:\MCC18\src\traditional\proc\p18F97J60.asm
                    MICMD   0x000eb2       data     extern C:\MCC18\src\traditional\proc\p18F97J60.asm
                MICMDbits   0x000eb2       data     extern C:\MCC18\src\traditional\proc\p18F97J60.asm
                     MIRD   0x000eb8       data     extern C:\MCC18\src\traditional\proc\p18F97J60.asm
                    MIRDH   0x000eb9       data     extern C:\MCC18\src\traditional\proc\p18F97J60.asm
                    MIRDL   0x000eb8       data     extern C:\MCC18\src\traditional\proc\p18F97J60.asm
                 MIREGADR   0x000eb4       data     extern C:\MCC18\src\traditional\proc\p18F97J60.asm
                   MISTAT   0x000e8a       data     extern C:\MCC18\src\traditional\proc\p18F97J60.asm
               MISTATbits   0x000e8a       data     extern C:\MCC18\src\traditional\proc\p18F97J60.asm
                     MIWR   0x000eb6       data     extern C:\MCC18\src\traditional\proc\p18F97J60.asm
                    MIWRH   0x000eb7       data     extern C:\MCC18\src\traditional\proc\p18F97J60.asm
                    MIWRL   0x000eb6       data     extern C:\MCC18\src\traditional\proc\p18F97J60.asm
                 MNString   0x00014a       data     extern D:\git\70M\Drivers\External-Peripherals\oled_c2.c
                MPFSStubs   0x000484       data     static D:\git\70M\Microchip\TCPIP Stack\MPFS2.c
               Manager_IP   0x0005bf       data     extern D:\git\70M\Bootstrap\Initialization.c
            MinuteCounter   0x000566       data     extern D:\git\70M\Main\Main.c   
           MyStaticIPAddr   0x0003f0       data     extern D:\git\70M\Main\Main.c   
                    MyTCB   0x000f02       data     static D:\git\70M\Microchip\TCPIP Stack\TCP.c
                MyTCBStub   0x000f27       data     static D:\git\70M\Microchip\TCPIP Stack\TCP.c
       NextPacketLocation   0x0005b3       data     static D:\git\70M\Microchip\TCPIP Stack\ETH97J60.c
                 NextPort   0x000f00       data     static D:\git\70M\Microchip\TCPIP Stack\TCP.c
                   OSCCON   0x000fd3       data     extern C:\MCC18\src\traditional\proc\p18F97J60.asm
               OSCCONbits   0x000fd3       data     extern C:\MCC18\src\traditional\proc\p18F97J60.asm
                  OSCTUNE   0x000f9b       data     extern C:\MCC18\src\traditional\proc\p18F97J60.asm
              OSCTUNEbits   0x000f9b       data     extern C:\MCC18\src\traditional\proc\p18F97J60.asm
                       PC   0x000ff9       data     extern C:\MCC18\src\traditional\proc\p18F97J60.asm
                      PCL   0x000ff9       data     extern C:\MCC18\src\traditional\proc\p18F97J60.asm
                   PCLATH   0x000ffa       data     extern C:\MCC18\src\traditional\proc\p18F97J60.asm
                   PCLATU   0x000ffb       data     extern C:\MCC18\src\traditional\proc\p18F97J60.asm
                     PIE1   0x000f9d       data     extern C:\MCC18\src\traditional\proc\p18F97J60.asm
                 PIE1bits   0x000f9d       data     extern C:\MCC18\src\traditional\proc\p18F97J60.asm
                     PIE2   0x000fa0       data     extern C:\MCC18\src\traditional\proc\p18F97J60.asm
                 PIE2bits   0x000fa0       data     extern C:\MCC18\src\traditional\proc\p18F97J60.asm
                     PIE3   0x000fa3       data     extern C:\MCC18\src\traditional\proc\p18F97J60.asm
                 PIE3bits   0x000fa3       data     extern C:\MCC18\src\traditional\proc\p18F97J60.asm
                     PIR1   0x000f9e       data     extern C:\MCC18\src\traditional\proc\p18F97J60.asm
                 PIR1bits   0x000f9e       data     extern C:\MCC18\src\traditional\proc\p18F97J60.asm
                     PIR2   0x000fa1       data     extern C:\MCC18\src\traditional\proc\p18F97J60.asm
                 PIR2bits   0x000fa1       data     extern C:\MCC18\src\traditional\proc\p18F97J60.asm
                     PIR3   0x000fa4       data     extern C:\MCC18\src\traditional\proc\p18F97J60.asm
                 PIR3bits   0x000fa4       data     extern C:\MCC18\src\traditional\proc\p18F97J60.asm
                   PLUSW0   0x000feb       data     extern C:\MCC18\src\traditional\proc\p18F97J60.asm
                   PLUSW1   0x000fe3       data     extern C:\MCC18\src\traditional\proc\p18F97J60.asm
                   PLUSW2   0x000fdb       data     extern C:\MCC18\src\traditional\proc\p18F97J60.asm
                    PORTA   0x000f80       data     extern C:\MCC18\src\traditional\proc\p18F97J60.asm
                PORTAbits   0x000f80       data     extern C:\MCC18\src\traditional\proc\p18F97J60.asm
                    PORTB   0x000f81       data     extern C:\MCC18\src\traditional\proc\p18F97J60.asm
                PORTBbits   0x000f81       data     extern C:\MCC18\src\traditional\proc\p18F97J60.asm
                    PORTC   0x000f82       data     extern C:\MCC18\src\traditional\proc\p18F97J60.asm
                PORTCbits   0x000f82       data     extern C:\MCC18\src\traditional\proc\p18F97J60.asm
                    PORTD   0x000f83       data     extern C:\MCC18\src\traditional\proc\p18F97J60.asm
                PORTDbits   0x000f83       data     extern C:\MCC18\src\traditional\proc\p18F97J60.asm
                    PORTE   0x000f84       data     extern C:\MCC18\src\traditional\proc\p18F97J60.asm
                PORTEbits   0x000f84       data     extern C:\MCC18\src\traditional\proc\p18F97J60.asm
                    PORTF   0x000f85       data     extern C:\MCC18\src\traditional\proc\p18F97J60.asm
                PORTFbits   0x000f85       data     extern C:\MCC18\src\traditional\proc\p18F97J60.asm
                    PORTG   0x000f86       data     extern C:\MCC18\src\traditional\proc\p18F97J60.asm
                PORTGbits   0x000f86       data     extern C:\MCC18\src\traditional\proc\p18F97J60.asm
                    PORTH   0x000f87       data     extern C:\MCC18\src\traditional\proc\p18F97J60.asm
                PORTHbits   0x000f87       data     extern C:\MCC18\src\traditional\proc\p18F97J60.asm
                    PORTJ   0x000f88       data     extern C:\MCC18\src\traditional\proc\p18F97J60.asm
                PORTJbits   0x000f88       data     extern C:\MCC18\src\traditional\proc\p18F97J60.asm
                 POSTDEC0   0x000fed       data     extern C:\MCC18\src\traditional\proc\p18F97J60.asm
                 POSTDEC1   0x000fe5       data     extern C:\MCC18\src\traditional\proc\p18F97J60.asm
                 POSTDEC2   0x000fdd       data     extern C:\MCC18\src\traditional\proc\p18F97J60.asm
                 POSTINC0   0x000fee       data     extern C:\MCC18\src\traditional\proc\p18F97J60.asm
                 POSTINC1   0x000fe6       data     extern C:\MCC18\src\traditional\proc\p18F97J60.asm
                 POSTINC2   0x000fde       data     extern C:\MCC18\src\traditional\proc\p18F97J60.asm
                      PR2   0x000fcb       data     extern C:\MCC18\src\traditional\proc\p18F97J60.asm
                      PR4   0x000f77       data     extern C:\MCC18\src\traditional\proc\p18F97J60.asm
                  PREINC0   0x000fec       data     extern C:\MCC18\src\traditional\proc\p18F97J60.asm
                  PREINC1   0x000fe4       data     extern C:\MCC18\src\traditional\proc\p18F97J60.asm
                  PREINC2   0x000fdc       data     extern C:\MCC18\src\traditional\proc\p18F97J60.asm
                     PROD   0x000ff3       data     extern C:\MCC18\src\traditional\proc\p18F97J60.asm
                    PRODH   0x000ff4       data     extern C:\MCC18\src\traditional\proc\p18F97J60.asm
                    PRODL   0x000ff3       data     extern C:\MCC18\src\traditional\proc\p18F97J60.asm
                   PSPCON   0x000fb0       data     extern C:\MCC18\src\traditional\proc\p18F97J60.asm
               PSPCONbits   0x000fb0       data     extern C:\MCC18\src\traditional\proc\p18F97J60.asm
               PressedKey   0x0001ba       data     extern D:\git\70M\Drivers\External-Peripherals\oled_c2.c
                     RCON   0x000fd0       data     extern C:\MCC18\src\traditional\proc\p18F97J60.asm
                 RCONbits   0x000fd0       data     extern C:\MCC18\src\traditional\proc\p18F97J60.asm
                    RCREG   0x000fae       data     extern C:\MCC18\src\traditional\proc\p18F97J60.asm
                   RCREG1   0x000fae       data     extern C:\MCC18\src\traditional\proc\p18F97J60.asm
                   RCREG2   0x000f6e       data     extern C:\MCC18\src\traditional\proc\p18F97J60.asm
                    RCSTA   0x000fab       data     extern C:\MCC18\src\traditional\proc\p18F97J60.asm
                   RCSTA1   0x000fab       data     extern C:\MCC18\src\traditional\proc\p18F97J60.asm
               RCSTA1bits   0x000fab       data     extern C:\MCC18\src\traditional\proc\p18F97J60.asm
                   RCSTA2   0x000f6b       data     extern C:\MCC18\src\traditional\proc\p18F97J60.asm
               RCSTA2bits   0x000f6b       data     extern C:\MCC18\src\traditional\proc\p18F97J60.asm
                RCSTAbits   0x000fab       data     extern C:\MCC18\src\traditional\proc\p18F97J60.asm
            RFFreqString1   0x000112       data     extern D:\git\70M\Drivers\External-Peripherals\oled_c2.c
            RFFreqString2   0x00011e       data     extern D:\git\70M\Drivers\External-Peripherals\oled_c2.c
                RXHeadPtr   0x0005ab       data     static D:\git\70M\Microchip\TCPIP Stack\UART2TCPBridge.c
                RXTailPtr   0x0005ad       data     static D:\git\70M\Microchip\TCPIP Stack\UART2TCPBridge.c
              RdI2CBuffer   0x00051e       data     extern D:\git\70M\App\WebUI\HTTPGetDevInfo.c
                    Read2   0x0003f7       data     extern D:\git\70M\Main\Main.c   
              RefreshFlag   0x0001bb       data     extern D:\git\70M\Drivers\External-Peripherals\oled_c2.c
               RemoteInfo   0x000f43       data     static D:\git\70M\Microchip\TCPIP Stack\TCP.c
                     SIGN   0x000000       data     extern C:\Program Files\mcc18\src\traditional\math\cmath18.asm
                 SNString   0x00015c       data     extern D:\git\70M\Drivers\External-Peripherals\oled_c2.c
                    SPBRG   0x000faf       data     extern C:\MCC18\src\traditional\proc\p18F97J60.asm
                   SPBRG1   0x000faf       data     extern C:\MCC18\src\traditional\proc\p18F97J60.asm
                   SPBRG2   0x000f6f       data     extern C:\MCC18\src\traditional\proc\p18F97J60.asm
                   SPBRGH   0x000f7f       data     extern C:\MCC18\src\traditional\proc\p18F97J60.asm
                  SPBRGH1   0x000f7f       data     extern C:\MCC18\src\traditional\proc\p18F97J60.asm
                  SPBRGH2   0x000f7d       data     extern C:\MCC18\src\traditional\proc\p18F97J60.asm
                  SSP1ADD   0x000fc8       data     extern C:\MCC18\src\traditional\proc\p18F97J60.asm
                  SSP1BUF   0x000fc9       data     extern C:\MCC18\src\traditional\proc\p18F97J60.asm
                 SSP1CON1   0x000fc6       data     extern C:\MCC18\src\traditional\proc\p18F97J60.asm
             SSP1CON1bits   0x000fc6       data     extern C:\MCC18\src\traditional\proc\p18F97J60.asm
                 SSP1CON2   0x000fc5       data     extern C:\MCC18\src\traditional\proc\p18F97J60.asm
             SSP1CON2bits   0x000fc5       data     extern C:\MCC18\src\traditional\proc\p18F97J60.asm
                 SSP1STAT   0x000fc7       data     extern C:\MCC18\src\traditional\proc\p18F97J60.asm
             SSP1STATbits   0x000fc7       data     extern C:\MCC18\src\traditional\proc\p18F97J60.asm
                  SSP2ADD   0x000f65       data     extern C:\MCC18\src\traditional\proc\p18F97J60.asm
                  SSP2BUF   0x000f66       data     extern C:\MCC18\src\traditional\proc\p18F97J60.asm
                 SSP2CON1   0x000f63       data     extern C:\MCC18\src\traditional\proc\p18F97J60.asm
             SSP2CON1bits   0x000f63       data     extern C:\MCC18\src\traditional\proc\p18F97J60.asm
                 SSP2CON2   0x000f62       data     extern C:\MCC18\src\traditional\proc\p18F97J60.asm
             SSP2CON2bits   0x000f62       data     extern C:\MCC18\src\traditional\proc\p18F97J60.asm
                 SSP2STAT   0x000f64       data     extern C:\MCC18\src\traditional\proc\p18F97J60.asm
             SSP2STATbits   0x000f64       data     extern C:\MCC18\src\traditional\proc\p18F97J60.asm
                   SSPADD   0x000fc8       data     extern C:\MCC18\src\traditional\proc\p18F97J60.asm
                   SSPBUF   0x000fc9       data     extern C:\MCC18\src\traditional\proc\p18F97J60.asm
                  SSPCON1   0x000fc6       data     extern C:\MCC18\src\traditional\proc\p18F97J60.asm
              SSPCON1bits   0x000fc6       data     extern C:\MCC18\src\traditional\proc\p18F97J60.asm
                  SSPCON2   0x000fc5       data     extern C:\MCC18\src\traditional\proc\p18F97J60.asm
              SSPCON2bits   0x000fc5       data     extern C:\MCC18\src\traditional\proc\p18F97J60.asm
                  SSPSTAT   0x000fc7       data     extern C:\MCC18\src\traditional\proc\p18F97J60.asm
              SSPSTATbits   0x000fc7       data     extern C:\MCC18\src\traditional\proc\p18F97J60.asm
                   STATUS   0x000fd8       data     extern C:\MCC18\src\traditional\proc\p18F97J60.asm
               STATUSbits   0x000fd8       data     extern C:\MCC18\src\traditional\proc\p18F97J60.asm
                   STKPTR   0x000ffc       data     extern C:\MCC18\src\traditional\proc\p18F97J60.asm
               STKPTRbits   0x000ffc       data     extern C:\MCC18\src\traditional\proc\p18F97J60.asm
                 SYNQueue   0x0001c4       data     static D:\git\70M\Microchip\TCPIP Stack\TCP.c
            SecondCounter   0x000565       data     extern D:\git\70M\Main\Main.c   
                     Seed   0x0002fe       data     static C:\Program Files\mcc18\src\traditional\stdclib\rand.asm
                    T0CON   0x000fd5       data     extern C:\MCC18\src\traditional\proc\p18F97J60.asm
                T0CONbits   0x000fd5       data     extern C:\MCC18\src\traditional\proc\p18F97J60.asm
                    T1CON   0x000fcd       data     extern C:\MCC18\src\traditional\proc\p18F97J60.asm
                T1CONbits   0x000fcd       data     extern C:\MCC18\src\traditional\proc\p18F97J60.asm
                    T2CON   0x000fca       data     extern C:\MCC18\src\traditional\proc\p18F97J60.asm
                T2CONbits   0x000fca       data     extern C:\MCC18\src\traditional\proc\p18F97J60.asm
                    T3CON   0x000fb1       data     extern C:\MCC18\src\traditional\proc\p18F97J60.asm
                T3CONbits   0x000fb1       data     extern C:\MCC18\src\traditional\proc\p18F97J60.asm
                    T4CON   0x000f76       data     extern C:\MCC18\src\traditional\proc\p18F97J60.asm
                T4CONbits   0x000f76       data     extern C:\MCC18\src\traditional\proc\p18F97J60.asm
                   TABLAT   0x000ff5       data     extern C:\MCC18\src\traditional\proc\p18F97J60.asm
                   TBLPTR   0x000ff6       data     extern C:\MCC18\src\traditional\proc\p18F97J60.asm
                  TBLPTRH   0x000ff7       data     extern C:\MCC18\src\traditional\proc\p18F97J60.asm
                  TBLPTRL   0x000ff6       data     extern C:\MCC18\src\traditional\proc\p18F97J60.asm
                  TBLPTRU   0x000ff8       data     extern C:\MCC18\src\traditional\proc\p18F97J60.asm
                 TCBStubs   0x000300       data     static D:\git\70M\Microchip\TCPIP Stack\TCP.c
                  TEMP_IP   0x0005bb       data     extern D:\git\70M\App\SNMP\SNMPLLiBUCDevInfo.c
                    TMR0H   0x000fd7       data     extern C:\MCC18\src\traditional\proc\p18F97J60.asm
                    TMR0L   0x000fd6       data     extern C:\MCC18\src\traditional\proc\p18F97J60.asm
                    TMR1H   0x000fcf       data     extern C:\MCC18\src\traditional\proc\p18F97J60.asm
                    TMR1L   0x000fce       data     extern C:\MCC18\src\traditional\proc\p18F97J60.asm
                     TMR2   0x000fcc       data     extern C:\MCC18\src\traditional\proc\p18F97J60.asm
                    TMR3H   0x000fb3       data     extern C:\MCC18\src\traditional\proc\p18F97J60.asm
                    TMR3L   0x000fb2       data     extern C:\MCC18\src\traditional\proc\p18F97J60.asm
                     TMR4   0x000f78       data     extern C:\MCC18\src\traditional\proc\p18F97J60.asm
                      TOS   0x000ffd       data     extern C:\MCC18\src\traditional\proc\p18F97J60.asm
                     TOSH   0x000ffe       data     extern C:\MCC18\src\traditional\proc\p18F97J60.asm
                     TOSL   0x000ffd       data     extern C:\MCC18\src\traditional\proc\p18F97J60.asm
                     TOSU   0x000fff       data     extern C:\MCC18\src\traditional\proc\p18F97J60.asm
                    TRISA   0x000f92       data     extern C:\MCC18\src\traditional\proc\p18F97J60.asm
                TRISAbits   0x000f92       data     extern C:\MCC18\src\traditional\proc\p18F97J60.asm
                    TRISB   0x000f93       data     extern C:\MCC18\src\traditional\proc\p18F97J60.asm
                TRISBbits   0x000f93       data     extern C:\MCC18\src\traditional\proc\p18F97J60.asm
                    TRISC   0x000f94       data     extern C:\MCC18\src\traditional\proc\p18F97J60.asm
                TRISCbits   0x000f94       data     extern C:\MCC18\src\traditional\proc\p18F97J60.asm
                    TRISD   0x000f95       data     extern C:\MCC18\src\traditional\proc\p18F97J60.asm
                TRISDbits   0x000f95       data     extern C:\MCC18\src\traditional\proc\p18F97J60.asm
                    TRISE   0x000f96       data     extern C:\MCC18\src\traditional\proc\p18F97J60.asm
                TRISEbits   0x000f96       data     extern C:\MCC18\src\traditional\proc\p18F97J60.asm
                    TRISF   0x000f97       data     extern C:\MCC18\src\traditional\proc\p18F97J60.asm
                TRISFbits   0x000f97       data     extern C:\MCC18\src\traditional\proc\p18F97J60.asm
                    TRISG   0x000f98       data     extern C:\MCC18\src\traditional\proc\p18F97J60.asm
                TRISGbits   0x000f98       data     extern C:\MCC18\src\traditional\proc\p18F97J60.asm
                    TRISH   0x000f99       data     extern C:\MCC18\src\traditional\proc\p18F97J60.asm
                TRISHbits   0x000f99       data     extern C:\MCC18\src\traditional\proc\p18F97J60.asm
                    TRISJ   0x000f9a       data     extern C:\MCC18\src\traditional\proc\p18F97J60.asm
                TRISJbits   0x000f9a       data     extern C:\MCC18\src\traditional\proc\p18F97J60.asm
                TXHeadPtr   0x0005af       data     static D:\git\70M\Microchip\TCPIP Stack\UART2TCPBridge.c
                    TXREG   0x000fad       data     extern C:\MCC18\src\traditional\proc\p18F97J60.asm
                   TXREG1   0x000fad       data     extern C:\MCC18\src\traditional\proc\p18F97J60.asm
                   TXREG2   0x000f6d       data     extern C:\MCC18\src\traditional\proc\p18F97J60.asm
                    TXSTA   0x000fac       data     extern C:\MCC18\src\traditional\proc\p18F97J60.asm
                   TXSTA1   0x000fac       data     extern C:\MCC18\src\traditional\proc\p18F97J60.asm
               TXSTA1bits   0x000fac       data     extern C:\MCC18\src\traditional\proc\p18F97J60.asm
                   TXSTA2   0x000f6c       data     extern C:\MCC18\src\traditional\proc\p18F97J60.asm
               TXSTA2bits   0x000f6c       data     extern C:\MCC18\src\traditional\proc\p18F97J60.asm
                TXSTAbits   0x000fac       data     extern C:\MCC18\src\traditional\proc\p18F97J60.asm
                TXTailPtr   0x0005b1       data     static D:\git\70M\Microchip\TCPIP Stack\UART2TCPBridge.c
                   Target   0x000582       data     static D:\git\70M\Microchip\TCPIP Stack\ARP.c
            Timer2Counter   0x0005d9       data     extern D:\git\70M\Drivers\MCU-Internal\ISR.c
          ValueUpdateFlag   0x0001bd       data     extern D:\git\70M\Drivers\External-Peripherals\oled_c2.c
                   WDTCON   0x000fd1       data     extern C:\MCC18\src\traditional\proc\p18F97J60.asm
               WDTCONbits   0x000fd1       data     extern C:\MCC18\src\traditional\proc\p18F97J60.asm
                     WREG   0x000fe8       data     extern C:\MCC18\src\traditional\proc\p18F97J60.asm
             WasDiscarded   0x0005b7       data     static D:\git\70M\Microchip\TCPIP Stack\ETH97J60.c
      WebpageWriteI2CFlag   0x0005d5       data     extern D:\git\70M\App\WebUI\HTTPGetDevInfo.c
              _Identifier   0x0005d2       data     static D:\git\70M\Microchip\TCPIP Stack\IP.c
                 __AARGB0   0x000009       data     extern C:\Program Files\mcc18\src\traditional\math\aarg.asm
                 __AARGB1   0x000008       data     extern C:\Program Files\mcc18\src\traditional\math\aarg.asm
                 __AARGB2   0x000007       data     extern C:\Program Files\mcc18\src\traditional\math\aarg.asm
                 __AARGB3   0x000006       data     extern C:\Program Files\mcc18\src\traditional\math\aarg.asm
                 __AARGB4   0x000005       data     extern C:\Program Files\mcc18\src\traditional\math\aarg.asm
                 __AARGB5   0x000004       data     extern C:\Program Files\mcc18\src\traditional\math\aarg.asm
                 __AARGB6   0x000003       data     extern C:\Program Files\mcc18\src\traditional\math\aarg.asm
                 __AARGB7   0x000002       data     extern C:\Program Files\mcc18\src\traditional\math\aarg.asm
                   __AEXP   0x00000a       data     extern C:\Program Files\mcc18\src\traditional\math\aarg.asm
                 __BARGB0   0x00000e       data     extern C:\Program Files\mcc18\src\traditional\math\barg.asm
                 __BARGB1   0x00000d       data     extern C:\Program Files\mcc18\src\traditional\math\barg.asm
                 __BARGB2   0x00000c       data     extern C:\Program Files\mcc18\src\traditional\math\barg.asm
                 __BARGB3   0x00000b       data     extern C:\Program Files\mcc18\src\traditional\math\barg.asm
                   __BEXP   0x00000f       data     extern C:\Program Files\mcc18\src\traditional\math\barg.asm
                __FPFLAGS   0x000001       data     extern C:\Program Files\mcc18\src\traditional\math\cmath18.asm
            __FPFLAGSbits   0x000001       data     extern C:\Program Files\mcc18\src\traditional\math\cmath18.asm
                  __REMB0   0x000005       data     extern C:\Program Files\mcc18\src\traditional\math\aarg.asm
                  __REMB1   0x000004       data     extern C:\Program Files\mcc18\src\traditional\math\aarg.asm
                  __REMB2   0x000003       data     extern C:\Program Files\mcc18\src\traditional\math\aarg.asm
                  __REMB3   0x000002       data     extern C:\Program Files\mcc18\src\traditional\math\aarg.asm
                   __TEMP   0x000013       data     extern C:\Program Files\mcc18\src\traditional\math\temparg.asm
                 __TEMPB0   0x000013       data     extern C:\Program Files\mcc18\src\traditional\math\temparg.asm
                 __TEMPB1   0x000012       data     extern C:\Program Files\mcc18\src\traditional\math\temparg.asm
                 __TEMPB2   0x000011       data     extern C:\Program Files\mcc18\src\traditional\math\temparg.asm
                 __TEMPB3   0x000010       data     extern C:\Program Files\mcc18\src\traditional\math\temparg.asm
                  __tmp_0   0x000014       data     static C:\Program Files\mcc18\src\traditional\stdclib\vfprintf.c
                  __tmp_0   0x000014       data     static C:\Program Files\mcc18\src\traditional\stdclib\putc.c
                  __tmp_0   0x000014       data     static C:\MCC18\src\pmc_common\ADC\adcopen.c
                  __tmp_0   0x000014       data     static C:\Program Files\mcc18\src\traditional\stdclib\sprintf.c
                  __tmp_0   0x000014       data     static D:\git\70M\Microchip\TCPIP Stack\IP.c
                  __tmp_0   0x000014       data     static D:\git\70M\Microchip\TCPIP Stack\Helpers.c
                  __tmp_0   0x000014       data     static D:\git\70M\Microchip\TCPIP Stack\HTTP2.c
                  __tmp_0   0x000014       data     static D:\git\70M\Microchip\TCPIP Stack\MPFS2.c
                  __tmp_0   0x000014       data     static D:\git\70M\Microchip\TCPIP Stack\ICMP.c
                  __tmp_0   0x000014       data     static D:\git\70M\Microchip\TCPIP Stack\SPIEEPROM.c
                  __tmp_0   0x000014       data     static D:\git\70M\Drivers\MCU-Internal\devspi.c
                  __tmp_0   0x000014       data     static D:\git\70M\Drivers\External-Peripherals\devadc.c
                  __tmp_0   0x000014       data     static D:\git\70M\Drivers\MCU-Internal\internalADC.c
                  __tmp_0   0x000014       data     static D:\git\70M\SysLib\util.c 
                  __tmp_0   0x000014       data     static D:\git\70M\Drivers\External-Peripherals\oled_c1.c
                  __tmp_0   0x000014       data     static D:\git\70M\Drivers\MCU-Internal\i2c_c1.c
                  __tmp_0   0x000014       data     static D:\git\70M\Devices\VOLDC_c1 .c
                  __tmp_0   0x000014       data     static D:\git\70M\Devices\UpConverter_c1.c
                  __tmp_0   0x000014       data     static D:\git\70M\Devices\MainControl_c1.c
                  __tmp_0   0x000014       data     static D:\git\70M\Devices\DownConverter_c1.c
                  __tmp_0   0x000014       data     static D:\git\70M\App\WebUI\HTTPApp.c
                  __tmp_0   0x000014       data     static D:\git\70M\Main\Main.c   
                  __tmp_0   0x000014       data     static D:\git\70M\Bootstrap\Initialization.c
                  __tmp_0   0x000014       data     static D:\git\70M\Microchip\TCPIP Stack\StackTsk.c
                  __tmp_0   0x000014       data     static D:\git\70M\App\WebUI\HTTPPrint.c
                  __tmp_0   0x000014       data     static D:\git\70M\App\WebUI\HTTPGetDevInfo.c
                  __tmp_0   0x000014       data     static D:\git\70M\Microchip\TCPIP Stack\TCP.c
                  __tmp_0   0x000014       data     static D:\git\70M\Drivers\External-Peripherals\oled_c2.c
                  __tmp_0   0x000014       data     static D:\git\70M\Microchip\TCPIP Stack\ETH97J60.c
                  __tmp_0   0x000014       data     static D:\git\70M\Microchip\TCPIP Stack\ARP.c
                  boBlink   0x0003ff       data     static D:\git\70M\Drivers\External-Peripherals\oled_c1.c
                    ctemp   0x0003f6       data     extern D:\git\70M\Main\Main.c   
                  curHTTP   0x000400       data     extern D:\git\70M\Microchip\TCPIP Stack\HTTP2.c
                curHTTPID   0x000483       data     extern D:\git\70M\Microchip\TCPIP Stack\HTTP2.c
                curr_byte   0x0005a4       data     static C:\Program Files\mcc18\src\traditional\startup\c018iz.c
               curr_entry   0x0005a6       data     static C:\Program Files\mcc18\src\traditional\startup\c018iz.c
                 data_ptr   0x0005a8       data     static C:\Program Files\mcc18\src\traditional\startup\c018iz.c
          dwInternalTicks   0x0005cb       data     static D:\git\70M\Microchip\TCPIP Stack\Tick.c
                 dwLastIP   0x0005c7       data     extern D:\git\70M\SysLib\util.c 
                 fatCache   0x0004d5       data     static D:\git\70M\Microchip\TCPIP Stack\MPFS2.c
               fatCacheID   0x0004eb       data     static D:\git\70M\Microchip\TCPIP Stack\MPFS2.c
         global_char_temp   0x000f4f       data     extern D:\git\70M\App\WebUI\HTTPPrint.c
              hCurrentTCP   0x000f5e       data     static D:\git\70M\Microchip\TCPIP Stack\TCP.c
                 hLastTCB   0x000f5f       data     static D:\git\70M\Microchip\TCPIP Stack\TCP.c
                   hMPFS1   0x0005d1       data     extern D:\git\70M\SysLib\util.c 
                httpStubs   0x00047f       data     extern D:\git\70M\Microchip\TCPIP Stack\HTTP2.c
             isMPFSLocked   0x0004d4       data     static D:\git\70M\Microchip\TCPIP Stack\MPFS2.c
               keypad_tmr   0x000570       data     static D:\git\70M\Main\Main.c   
              lastFailure   0x0005d7       data     extern D:\git\70M\App\WebUI\HTTPApp.c
                 lastRead   0x0004ef       data     extern D:\git\70M\Microchip\TCPIP Stack\MPFS2.c
              lastSuccess   0x0005d6       data     extern D:\git\70M\App\WebUI\HTTPApp.c
                lcd_timer   0x00056c       data     static D:\git\70M\Main\Main.c   
                    myRef   0x0005ba       data     extern D:\git\70M\App\SNMP\SNMPLLiBUCDevInfo.c
                     newp   0x00050a       data     extern D:\git\70M\App\WebUI\HTTPGetDevInfo.c
                 numFiles   0x0004ed       data     static D:\git\70M\Microchip\TCPIP Stack\MPFS2.c
                     oend   0x0003f5       data     extern D:\git\70M\Main\Main.c   
                     oldp   0x000500       data     extern D:\git\70M\App\WebUI\HTTPGetDevInfo.c
                   ostart   0x0003f4       data     extern D:\git\70M\Main\Main.c   
                     prom   0x0005a1       data     static C:\Program Files\mcc18\src\traditional\startup\c018iz.c
                 readflag   0x0001c2       data     extern D:\git\70M\Drivers\External-Peripherals\oled_c2.c
               remoteNode   0x00058d       data     extern D:\git\70M\Microchip\TCPIP Stack\StackTsk.c
                      rep   0x000514       data     extern D:\git\70M\App\WebUI\HTTPGetDevInfo.c
                   s18VDC   0x000165       data     extern D:\git\70M\Drivers\External-Peripherals\oled_c2.c
                   s24VDC   0x000169       data     extern D:\git\70M\Drivers\External-Peripherals\oled_c2.c
                    sALCa   0x00019d       data     extern D:\git\70M\Drivers\External-Peripherals\oled_c2.c
                    sALCb   0x0001a1       data     extern D:\git\70M\Drivers\External-Peripherals\oled_c2.c
                  sBUCREF   0x000171       data     extern D:\git\70M\Drivers\External-Peripherals\oled_c2.c
                 sDCPower   0x00017f       data     extern D:\git\70M\Drivers\External-Peripherals\oled_c2.c
               sDNC_StPwr   0x000193       data     extern D:\git\70M\Drivers\External-Peripherals\oled_c2.c
                  sLNBREF   0x00016d       data     extern D:\git\70M\Drivers\External-Peripherals\oled_c2.c
                   sMutea   0x0001a5       data     extern D:\git\70M\Drivers\External-Peripherals\oled_c2.c
                   sMuteb   0x0001ae       data     extern D:\git\70M\Drivers\External-Peripherals\oled_c2.c
                 sUCPower   0x000175       data     extern D:\git\70M\Drivers\External-Peripherals\oled_c2.c
               sUPC_StPwr   0x000189       data     extern D:\git\70M\Drivers\External-Peripherals\oled_c2.c
                    smARP   0x0005da       data     static D:\git\70M\Microchip\TCPIP Stack\ARP.c
                  smStack   0x00058c       data     static D:\git\70M\Microchip\TCPIP Stack\StackTsk.c
              stConverter   0x0003a8       data     extern D:\git\70M\Main\Main.c   
               stI2CDCMsg   0x000e25       data     extern D:\git\70M\Drivers\External-Peripherals\oled_c2.c
          stI2CDownCvtMsg   0x000e0c       data     extern D:\git\70M\Drivers\External-Peripherals\oled_c2.c
               stI2CLOMsg   0x000e3b       data     extern D:\git\70M\Drivers\External-Peripherals\oled_c2.c
              stI2CREFMsg   0x000e31       data     extern D:\git\70M\Drivers\External-Peripherals\oled_c2.c
               stI2CUCMsg   0x000e19       data     extern D:\git\70M\Drivers\External-Peripherals\oled_c2.c
            stI2CUpCvtMsg   0x000e02       data     extern D:\git\70M\Drivers\External-Peripherals\oled_c2.c
              stI2CVOLMsg   0x000e16       data     extern D:\git\70M\Drivers\External-Peripherals\oled_c2.c
              systeminfo1   0x0000b0       data     extern D:\git\70M\Main\Main.c   
              systeminfo2   0x00026c       data     extern D:\git\70M\Main\Main.c   
                tempvalue   0x0005d0       data     extern D:\git\70M\SysLib\util.c 
            tiDisplay_tmr   0x000574       data     static D:\git\70M\Main\Main.c   
                 toRotate   0x0005c3       data     extern D:\git\70M\Microchip\TCPIP Stack\Helpers.c
                  u8ExtLO   0x0001c1       data     extern D:\git\70M\Drivers\External-Peripherals\oled_c2.c
                  u8Index   0x0001c3       data     static D:\git\70M\Drivers\External-Peripherals\oled_c2.c
           vBytesInBuffer   0x000560       data     static D:\git\70M\Microchip\TCPIP Stack\SPIEEPROM.c
             vTickReading   0x000e7a       data     static D:\git\70M\Microchip\TCPIP Stack\Tick.c
              vUARTRXFIFO   0x0002ac       data     static D:\git\70M\Microchip\TCPIP Stack\UART2TCPBridge.c
              vUARTTXFIFO   0x0002ed       data     static D:\git\70M\Microchip\TCPIP Stack\UART2TCPBridge.c
              wTXWatchdog   0x0005b8       data     static D:\git\70M\Microchip\TCPIP Stack\ETH97J60.c
              webPass_tmr   0x000568       data     static D:\git\70M\Main\Main.c   
              webpassinfo   0x0004f3       data     extern D:\git\70M\App\WebUI\HTTPApp.c



                              Symbols - Sorted by Address
                     Name    Address   Location    Storage File                     
                ---------  ---------  ---------  --------- ---------                
                   _entry   0x000000    program     extern C:\Program Files\mcc18\src\traditional\startup\c018iz.c
       ___return_lbl00000   0x000004    program     static                          
               HighVector   0x000008    program     extern D:\git\70M\Drivers\MCU-Internal\ISR.c
       ___return_lbl00020   0x00000c    program     static                          
                LowVector   0x000018    program     extern D:\git\70M\Drivers\MCU-Internal\ISR.c
       ___return_lbl00019   0x00001c    program     static                          
              SyncTCBStub   0x0000bc    program     static D:\git\70M\Microchip\TCPIP Stack\TCP.c
                  SyncTCB   0x000126    program     static D:\git\70M\Microchip\TCPIP Stack\TCP.c
                  TCPInit   0x0001a4    program     extern D:\git\70M\Microchip\TCPIP Stack\TCP.c
                  TCPOpen   0x000354    program     extern D:\git\70M\Microchip\TCPIP Stack\TCP.c
              TCPWasReset   0x000488    program     extern D:\git\70M\Microchip\TCPIP Stack\TCP.c
           TCPIsConnected   0x00049e    program     extern D:\git\70M\Microchip\TCPIP Stack\TCP.c
            TCPDisconnect   0x0004b4    program     extern D:\git\70M\Microchip\TCPIP Stack\TCP.c
                 TCPClose   0x000530    program     extern D:\git\70M\Microchip\TCPIP Stack\TCP.c
         TCPGetRemoteInfo   0x000544    program     extern D:\git\70M\Microchip\TCPIP Stack\TCP.c
                 TCPFlush   0x00057e    program     extern D:\git\70M\Microchip\TCPIP Stack\TCP.c
            TCPIsPutReady   0x00059a    program     extern D:\git\70M\Microchip\TCPIP Stack\TCP.c
                   TCPPut   0x000600    program     extern D:\git\70M\Microchip\TCPIP Stack\TCP.c
              TCPPutArray   0x00068e    program     extern D:\git\70M\Microchip\TCPIP Stack\TCP.c
           TCPPutROMArray   0x000732    program     extern D:\git\70M\Microchip\TCPIP Stack\TCP.c
             TCPPutString   0x0007e4    program     extern D:\git\70M\Microchip\TCPIP Stack\TCP.c
          TCPPutROMString   0x000844    program     extern D:\git\70M\Microchip\TCPIP Stack\TCP.c
         TCPGetTxFIFOFull   0x0008ae    program     extern D:\git\70M\Microchip\TCPIP Stack\TCP.c
               TCPDiscard   0x0008d6    program     extern D:\git\70M\Microchip\TCPIP Stack\TCP.c
            TCPIsGetReady   0x0008f8    program     extern D:\git\70M\Microchip\TCPIP Stack\TCP.c
                   TCPGet   0x00093e    program     extern D:\git\70M\Microchip\TCPIP Stack\TCP.c
              TCPGetArray   0x0009aa    program     extern D:\git\70M\Microchip\TCPIP Stack\TCP.c
         TCPGetRxFIFOFree   0x000ae2    program     extern D:\git\70M\Microchip\TCPIP Stack\TCP.c
             TCPPeekArray   0x000b0a    program     extern D:\git\70M\Microchip\TCPIP Stack\TCP.c
                  TCPPeek   0x000c3a    program     extern D:\git\70M\Microchip\TCPIP Stack\TCP.c
           TCPFindArrayEx   0x000c66    program     extern D:\git\70M\Microchip\TCPIP Stack\TCP.c
        TCPFindROMArrayEx   0x000ee4    program     extern D:\git\70M\Microchip\TCPIP Stack\TCP.c
                TCPFindEx   0x001134    program     extern D:\git\70M\Microchip\TCPIP Stack\TCP.c
                  TCPTick   0x00116a    program     extern D:\git\70M\Microchip\TCPIP Stack\TCP.c
               TCPProcess   0x00153e    program     extern D:\git\70M\Microchip\TCPIP Stack\TCP.c
                  SendTCP   0x001698    program     static D:\git\70M\Microchip\TCPIP Stack\TCP.c
       FindMatchingSocket   0x001bfe    program     static D:\git\70M\Microchip\TCPIP Stack\TCP.c
            SwapTCPHeader   0x001e9c    program     static D:\git\70M\Microchip\TCPIP Stack\TCP.c
              CloseSocket   0x001f18    program     static D:\git\70M\Microchip\TCPIP Stack\TCP.c
             HandleTCPSeg   0x001f96    program     static D:\git\70M\Microchip\TCPIP Stack\TCP.c
             __tmplbl_157   0x002a10    program     static                          
             __tmplbl_155   0x002a10    program     static                          
             __tmplbl_174   0x002a16    program     static                          
             __tmplbl_167   0x002a1e    program     static                          
             __tmplbl_166   0x002a1e    program     static                          
             __tmplbl_164   0x002a1e    program     static                          
             __tmplbl_158   0x002a1e    program     static                          
        TCPAdjustFIFOSize   0x002a2c    program     extern D:\git\70M\Microchip\TCPIP Stack\TCP.c
               TCPRAMCopy   0x002be6    program     static D:\git\70M\Microchip\TCPIP Stack\TCP.c
            TCPRAMCopyROM   0x002c74    program     static D:\git\70M\Microchip\TCPIP Stack\TCP.c
                   __pa_0   0x002d54    program     static D:\git\70M\Microchip\TCPIP Stack\TCP.c
                   __pa_1   0x002d7c    program     static D:\git\70M\Microchip\TCPIP Stack\TCP.c
                   __pa_2   0x002d8a    program     static D:\git\70M\Microchip\TCPIP Stack\TCP.c
             __tmplbl_114   0x002d98    program     static                          
             __tmplbl_118   0x002d98    program     static                          
             __tmplbl_100   0x002d98    program     static                          
             __tmplbl_101   0x002d98    program     static                          
             __tmplbl_117   0x002d98    program     static                          
             __tmplbl_102   0x002d98    program     static                          
             __tmplbl_152   0x002d98    program     static                          
             __tmplbl_151   0x002d98    program     static                          
             __tmplbl_148   0x002d98    program     static                          
             __tmplbl_131   0x002d98    program     static                          
             __tmplbl_130   0x002d98    program     static                          
             __tmplbl_111   0x002d98    program     static                          
             __tmplbl_110   0x002d98    program     static                          
             __tmplbl_103   0x002d98    program     static                          
             __tmplbl_104   0x002d98    program     static                          
             __tmplbl_109   0x002d98    program     static                          
             __tmplbl_108   0x002d98    program     static                          
             __tmplbl_106   0x002d98    program     static                          
              __tmplbl_81   0x002d98    program     static                          
              __tmplbl_85   0x002d98    program     static                          
              __tmplbl_87   0x002d98    program     static                          
              __tmplbl_88   0x002d98    program     static                          
              __tmplbl_79   0x002d98    program     static                          
              __tmplbl_89   0x002d98    program     static                          
              __tmplbl_90   0x002d98    program     static                          
              __tmplbl_91   0x002d98    program     static                          
              __tmplbl_92   0x002d98    program     static                          
              __tmplbl_93   0x002d98    program     static                          
              __tmplbl_95   0x002d98    program     static                          
              __tmplbl_97   0x002d98    program     static                          
              __tmplbl_99   0x002d98    program     static                          
                   __pa_3   0x002d98    program     static D:\git\70M\Microchip\TCPIP Stack\TCP.c
                   __pa_4   0x002da4    program     static D:\git\70M\Microchip\TCPIP Stack\TCP.c
                   __pa_5   0x002dae    program     static D:\git\70M\Microchip\TCPIP Stack\TCP.c
                   __pa_6   0x002e42    program     static D:\git\70M\Microchip\TCPIP Stack\TCP.c
                   __pa_7   0x002e4e    program     static D:\git\70M\Microchip\TCPIP Stack\TCP.c
                   __pa_8   0x002e70    program     static D:\git\70M\Microchip\TCPIP Stack\TCP.c
                   __pa_9   0x002e98    program     static D:\git\70M\Microchip\TCPIP Stack\TCP.c
                  __pa_10   0x002e9e    program     static D:\git\70M\Microchip\TCPIP Stack\TCP.c
                  __pa_11   0x002eca    program     static D:\git\70M\Microchip\TCPIP Stack\TCP.c
                  __pa_12   0x002ed2    program     static D:\git\70M\Microchip\TCPIP Stack\TCP.c
                  __pa_13   0x002eda    program     static D:\git\70M\Microchip\TCPIP Stack\TCP.c
                  __pa_14   0x002ee6    program     static D:\git\70M\Microchip\TCPIP Stack\TCP.c
                  __pa_15   0x002ef0    program     static D:\git\70M\Microchip\TCPIP Stack\TCP.c
                  __pa_16   0x002efa    program     static D:\git\70M\Microchip\TCPIP Stack\TCP.c
                  __pa_17   0x002f06    program     static D:\git\70M\Microchip\TCPIP Stack\TCP.c
                  __pa_18   0x002f14    program     static D:\git\70M\Microchip\TCPIP Stack\TCP.c
                  __pa_19   0x002f1e    program     static D:\git\70M\Microchip\TCPIP Stack\TCP.c
                  __pa_20   0x002f3a    program     static D:\git\70M\Microchip\TCPIP Stack\TCP.c
                  __pa_21   0x002f46    program     static D:\git\70M\Microchip\TCPIP Stack\TCP.c
                  __pa_22   0x002f54    program     static D:\git\70M\Microchip\TCPIP Stack\TCP.c
                  __pa_23   0x002f72    program     static D:\git\70M\Microchip\TCPIP Stack\TCP.c
                  __pa_24   0x002f7c    program     static D:\git\70M\Microchip\TCPIP Stack\TCP.c
                  __pa_25   0x002f86    program     static D:\git\70M\Microchip\TCPIP Stack\TCP.c
                  __pa_26   0x002f92    program     static D:\git\70M\Microchip\TCPIP Stack\TCP.c
                  __pa_27   0x002fa8    program     static D:\git\70M\Microchip\TCPIP Stack\TCP.c
                  __pa_28   0x002fb6    program     static D:\git\70M\Microchip\TCPIP Stack\TCP.c
                  __pa_29   0x002fc4    program     static D:\git\70M\Microchip\TCPIP Stack\TCP.c
                  __pa_30   0x002fd2    program     static D:\git\70M\Microchip\TCPIP Stack\TCP.c
                  __pa_31   0x002fde    program     static D:\git\70M\Microchip\TCPIP Stack\TCP.c
                  __pa_32   0x002fe6    program     static D:\git\70M\Microchip\TCPIP Stack\TCP.c
                  __pa_33   0x003010    program     static D:\git\70M\Microchip\TCPIP Stack\TCP.c
                  __pa_34   0x003024    program     static D:\git\70M\Microchip\TCPIP Stack\TCP.c
                  __pa_35   0x003040    program     static D:\git\70M\Microchip\TCPIP Stack\TCP.c
                  __pa_36   0x00305a    program     static D:\git\70M\Microchip\TCPIP Stack\TCP.c
                  __pa_37   0x003062    program     static D:\git\70M\Microchip\TCPIP Stack\TCP.c
                  __pa_38   0x003072    program     static D:\git\70M\Microchip\TCPIP Stack\TCP.c
                  __pa_39   0x003082    program     static D:\git\70M\Microchip\TCPIP Stack\TCP.c
                  __pa_40   0x003090    program     static D:\git\70M\Microchip\TCPIP Stack\TCP.c
                  __pa_41   0x0030ac    program     static D:\git\70M\Microchip\TCPIP Stack\TCP.c
                  __pa_42   0x0030b4    program     static D:\git\70M\Microchip\TCPIP Stack\TCP.c
                  __pa_43   0x0030cc    program     static D:\git\70M\Microchip\TCPIP Stack\TCP.c
                  __pa_44   0x0030de    program     static D:\git\70M\Microchip\TCPIP Stack\TCP.c
                  __pa_45   0x0030e8    program     static D:\git\70M\Microchip\TCPIP Stack\TCP.c
                  __pa_46   0x0030fa    program     static D:\git\70M\Microchip\TCPIP Stack\TCP.c
                  __pa_47   0x003120    program     static D:\git\70M\Microchip\TCPIP Stack\TCP.c
                  __pa_48   0x00313e    program     static D:\git\70M\Microchip\TCPIP Stack\TCP.c
                  __pa_49   0x00315e    program     static D:\git\70M\Microchip\TCPIP Stack\TCP.c
                  __pa_50   0x003174    program     static D:\git\70M\Microchip\TCPIP Stack\TCP.c
                  __pa_51   0x00318a    program     static D:\git\70M\Microchip\TCPIP Stack\TCP.c
                  __pa_52   0x003196    program     static D:\git\70M\Microchip\TCPIP Stack\TCP.c
                  __pa_53   0x0031a4    program     static D:\git\70M\Microchip\TCPIP Stack\TCP.c
                  __pa_54   0x0031ac    program     static D:\git\70M\Microchip\TCPIP Stack\TCP.c
                  __pa_55   0x0031ba    program     static D:\git\70M\Microchip\TCPIP Stack\TCP.c
                  __pa_56   0x0031c8    program     static D:\git\70M\Microchip\TCPIP Stack\TCP.c
                  __pa_57   0x0031d2    program     static D:\git\70M\Microchip\TCPIP Stack\TCP.c
                  __pa_58   0x0031f0    program     static D:\git\70M\Microchip\TCPIP Stack\TCP.c
                  __pa_59   0x003214    program     static D:\git\70M\Microchip\TCPIP Stack\TCP.c
                  __pa_60   0x003224    program     static D:\git\70M\Microchip\TCPIP Stack\TCP.c
                  __pa_61   0x00322e    program     static D:\git\70M\Microchip\TCPIP Stack\TCP.c
                  __pa_62   0x003238    program     static D:\git\70M\Microchip\TCPIP Stack\TCP.c
                  __pa_63   0x003258    program     static D:\git\70M\Microchip\TCPIP Stack\TCP.c
                  __pa_64   0x00326e    program     static D:\git\70M\Microchip\TCPIP Stack\TCP.c
                  __pa_65   0x003282    program     static D:\git\70M\Microchip\TCPIP Stack\TCP.c
                  __pa_66   0x003298    program     static D:\git\70M\Microchip\TCPIP Stack\TCP.c
                  __pa_67   0x0032b6    program     static D:\git\70M\Microchip\TCPIP Stack\TCP.c
                  __pa_68   0x0032cc    program     static D:\git\70M\Microchip\TCPIP Stack\TCP.c
                  __pa_69   0x0032da    program     static D:\git\70M\Microchip\TCPIP Stack\TCP.c
                  __pa_70   0x0032ec    program     static D:\git\70M\Microchip\TCPIP Stack\TCP.c
                  __pa_71   0x0032fe    program     static D:\git\70M\Microchip\TCPIP Stack\TCP.c
                  __pa_72   0x003310    program     static D:\git\70M\Microchip\TCPIP Stack\TCP.c
                  __pa_73   0x003322    program     static D:\git\70M\Microchip\TCPIP Stack\TCP.c
                  __pa_74   0x00332c    program     static D:\git\70M\Microchip\TCPIP Stack\TCP.c
                  __pa_75   0x00333e    program     static D:\git\70M\Microchip\TCPIP Stack\TCP.c
                  __pa_76   0x003348    program     static D:\git\70M\Microchip\TCPIP Stack\TCP.c
                  __pa_77   0x003356    program     static D:\git\70M\Microchip\TCPIP Stack\TCP.c
                  __pa_78   0x003364    program     static D:\git\70M\Microchip\TCPIP Stack\TCP.c
                  __pa_79   0x003372    program     static D:\git\70M\Microchip\TCPIP Stack\TCP.c
                  __pa_80   0x003380    program     static D:\git\70M\Microchip\TCPIP Stack\TCP.c
                  __pa_81   0x003388    program     static D:\git\70M\Microchip\TCPIP Stack\TCP.c
                  __pa_82   0x003394    program     static D:\git\70M\Microchip\TCPIP Stack\TCP.c
                  __pa_83   0x00339e    program     static D:\git\70M\Microchip\TCPIP Stack\TCP.c
                  __pa_84   0x0033a8    program     static D:\git\70M\Microchip\TCPIP Stack\TCP.c
                  __pa_85   0x0033b2    program     static D:\git\70M\Microchip\TCPIP Stack\TCP.c
                  __pa_86   0x0033bc    program     static D:\git\70M\Microchip\TCPIP Stack\TCP.c
                  __pa_87   0x0033cc    program     static D:\git\70M\Microchip\TCPIP Stack\TCP.c
                  __pa_88   0x0033da    program     static D:\git\70M\Microchip\TCPIP Stack\TCP.c
                  __pa_89   0x0033f4    program     static D:\git\70M\Microchip\TCPIP Stack\TCP.c
                  __pa_90   0x0033fc    program     static D:\git\70M\Microchip\TCPIP Stack\TCP.c
                  __pa_91   0x003406    program     static D:\git\70M\Microchip\TCPIP Stack\TCP.c
                  __pa_92   0x003410    program     static D:\git\70M\Microchip\TCPIP Stack\TCP.c
                  __pa_93   0x00341a    program     static D:\git\70M\Microchip\TCPIP Stack\TCP.c
                  __pa_94   0x003424    program     static D:\git\70M\Microchip\TCPIP Stack\TCP.c
                  __pa_95   0x00342e    program     static D:\git\70M\Microchip\TCPIP Stack\TCP.c
                  __pa_96   0x003446    program     static D:\git\70M\Microchip\TCPIP Stack\TCP.c
                  __pa_97   0x003454    program     static D:\git\70M\Microchip\TCPIP Stack\TCP.c
                  __pa_98   0x00346c    program     static D:\git\70M\Microchip\TCPIP Stack\TCP.c
                  __pa_99   0x00347c    program     static D:\git\70M\Microchip\TCPIP Stack\TCP.c
                 __pa_100   0x003494    program     static D:\git\70M\Microchip\TCPIP Stack\TCP.c
                 __pa_101   0x0034ac    program     static D:\git\70M\Microchip\TCPIP Stack\TCP.c
                 __pa_102   0x0034b8    program     static D:\git\70M\Microchip\TCPIP Stack\TCP.c
                 __pa_103   0x0034c4    program     static D:\git\70M\Microchip\TCPIP Stack\TCP.c
                 __pa_104   0x0034d0    program     static D:\git\70M\Microchip\TCPIP Stack\TCP.c
                 __pa_105   0x0034e6    program     static D:\git\70M\Microchip\TCPIP Stack\TCP.c
                 __pa_106   0x0034f6    program     static D:\git\70M\Microchip\TCPIP Stack\TCP.c
                 __pa_107   0x00350c    program     static D:\git\70M\Microchip\TCPIP Stack\TCP.c
                 __pa_108   0x003522    program     static D:\git\70M\Microchip\TCPIP Stack\TCP.c
                 __pa_109   0x003530    program     static D:\git\70M\Microchip\TCPIP Stack\TCP.c
                 __pa_110   0x00353e    program     static D:\git\70M\Microchip\TCPIP Stack\TCP.c
                 __pa_111   0x003546    program     static D:\git\70M\Microchip\TCPIP Stack\TCP.c
                 __pa_112   0x003554    program     static D:\git\70M\Microchip\TCPIP Stack\TCP.c
                 __pa_113   0x00355c    program     static D:\git\70M\Microchip\TCPIP Stack\TCP.c
                 __pa_114   0x00356a    program     static D:\git\70M\Microchip\TCPIP Stack\TCP.c
                 __pa_115   0x003578    program     static D:\git\70M\Microchip\TCPIP Stack\TCP.c
                 __pa_116   0x003586    program     static D:\git\70M\Microchip\TCPIP Stack\TCP.c
                 __pa_117   0x003590    program     static D:\git\70M\Microchip\TCPIP Stack\TCP.c
                 __pa_118   0x00359a    program     static D:\git\70M\Microchip\TCPIP Stack\TCP.c
                 __pa_119   0x0035a4    program     static D:\git\70M\Microchip\TCPIP Stack\TCP.c
                 __pa_120   0x0035ae    program     static D:\git\70M\Microchip\TCPIP Stack\TCP.c
                 __pa_121   0x0035b8    program     static D:\git\70M\Microchip\TCPIP Stack\TCP.c
                 __pa_122   0x0035c0    program     static D:\git\70M\Microchip\TCPIP Stack\TCP.c
                 __pa_123   0x0035d4    program     static D:\git\70M\Microchip\TCPIP Stack\TCP.c
                 __pa_124   0x0035e8    program     static D:\git\70M\Microchip\TCPIP Stack\TCP.c
                 __pa_125   0x0035fc    program     static D:\git\70M\Microchip\TCPIP Stack\TCP.c
                 __pa_126   0x003604    program     static D:\git\70M\Microchip\TCPIP Stack\TCP.c
                 __pa_127   0x00360e    program     static D:\git\70M\Microchip\TCPIP Stack\TCP.c
                 __pa_128   0x003620    program     static D:\git\70M\Microchip\TCPIP Stack\TCP.c
                 __pa_129   0x003632    program     static D:\git\70M\Microchip\TCPIP Stack\TCP.c
                 __pa_130   0x003644    program     static D:\git\70M\Microchip\TCPIP Stack\TCP.c
                 __pa_131   0x003656    program     static D:\git\70M\Microchip\TCPIP Stack\TCP.c
                 __pa_132   0x003668    program     static D:\git\70M\Microchip\TCPIP Stack\TCP.c
                 __pa_133   0x00367a    program     static D:\git\70M\Microchip\TCPIP Stack\TCP.c
                 __pa_134   0x00368c    program     static D:\git\70M\Microchip\TCPIP Stack\TCP.c
                 __pa_135   0x00369e    program     static D:\git\70M\Microchip\TCPIP Stack\TCP.c
                 __pa_136   0x0036b0    program     static D:\git\70M\Microchip\TCPIP Stack\TCP.c
                 __pa_137   0x0036b8    program     static D:\git\70M\Microchip\TCPIP Stack\TCP.c
                 __pa_138   0x0036c6    program     static D:\git\70M\Microchip\TCPIP Stack\TCP.c
                 __pa_139   0x0036d2    program     static D:\git\70M\Microchip\TCPIP Stack\TCP.c
                 __pa_140   0x0036de    program     static D:\git\70M\Microchip\TCPIP Stack\TCP.c
                 __pa_141   0x0036e8    program     static D:\git\70M\Microchip\TCPIP Stack\TCP.c
                 __pa_142   0x0036f2    program     static D:\git\70M\Microchip\TCPIP Stack\TCP.c
                 __pa_143   0x0036fc    program     static D:\git\70M\Microchip\TCPIP Stack\TCP.c
                 __pa_144   0x00370c    program     static D:\git\70M\Microchip\TCPIP Stack\TCP.c
                 __pa_145   0x00371c    program     static D:\git\70M\Microchip\TCPIP Stack\TCP.c
                 __pa_146   0x00372c    program     static D:\git\70M\Microchip\TCPIP Stack\TCP.c
                 __pa_147   0x00373c    program     static D:\git\70M\Microchip\TCPIP Stack\TCP.c
                 __pa_148   0x00374c    program     static D:\git\70M\Microchip\TCPIP Stack\TCP.c
                 __pa_149   0x003752    program     static D:\git\70M\Microchip\TCPIP Stack\TCP.c
                 __pa_150   0x003760    program     static D:\git\70M\Microchip\TCPIP Stack\TCP.c
                 __pa_151   0x00376e    program     static D:\git\70M\Microchip\TCPIP Stack\TCP.c
                 __pa_152   0x00377c    program     static D:\git\70M\Microchip\TCPIP Stack\TCP.c
                 __pa_153   0x00378a    program     static D:\git\70M\Microchip\TCPIP Stack\TCP.c
                 __pa_154   0x003798    program     static D:\git\70M\Microchip\TCPIP Stack\TCP.c
                 __pa_155   0x0037a6    program     static D:\git\70M\Microchip\TCPIP Stack\TCP.c
                 __pa_156   0x0037b4    program     static D:\git\70M\Microchip\TCPIP Stack\TCP.c
                 __pa_157   0x0037c2    program     static D:\git\70M\Microchip\TCPIP Stack\TCP.c
                 __pa_158   0x0037d0    program     static D:\git\70M\Microchip\TCPIP Stack\TCP.c
                 __pa_159   0x0037de    program     static D:\git\70M\Microchip\TCPIP Stack\TCP.c
                 __pa_160   0x0037ec    program     static D:\git\70M\Microchip\TCPIP Stack\TCP.c
                 __pa_161   0x0037fa    program     static D:\git\70M\Microchip\TCPIP Stack\TCP.c
                 __pa_162   0x003808    program     static D:\git\70M\Microchip\TCPIP Stack\TCP.c
                 __pa_163   0x003816    program     static D:\git\70M\Microchip\TCPIP Stack\TCP.c
                 __pa_164   0x003824    program     static D:\git\70M\Microchip\TCPIP Stack\TCP.c
                 __pa_165   0x00382e    program     static D:\git\70M\Microchip\TCPIP Stack\TCP.c
                 __pa_166   0x003838    program     static D:\git\70M\Microchip\TCPIP Stack\TCP.c
                 __pa_167   0x003842    program     static D:\git\70M\Microchip\TCPIP Stack\TCP.c
                 __pa_168   0x00384c    program     static D:\git\70M\Microchip\TCPIP Stack\TCP.c
                 __pa_169   0x003856    program     static D:\git\70M\Microchip\TCPIP Stack\TCP.c
                 __pa_170   0x003860    program     static D:\git\70M\Microchip\TCPIP Stack\TCP.c
                 __pa_171   0x00386a    program     static D:\git\70M\Microchip\TCPIP Stack\TCP.c
                 __pa_172   0x003874    program     static D:\git\70M\Microchip\TCPIP Stack\TCP.c
                 __pa_173   0x00387c    program     static D:\git\70M\Microchip\TCPIP Stack\TCP.c
                 __pa_174   0x003886    program     static D:\git\70M\Microchip\TCPIP Stack\TCP.c
                 __pa_175   0x003894    program     static D:\git\70M\Microchip\TCPIP Stack\TCP.c
                 __pa_176   0x0038bc    program     static D:\git\70M\Microchip\TCPIP Stack\TCP.c
                 __pa_177   0x0038ca    program     static D:\git\70M\Microchip\TCPIP Stack\TCP.c
                 __pa_178   0x0038d2    program     static D:\git\70M\Microchip\TCPIP Stack\TCP.c
                 __pa_179   0x0038dc    program     static D:\git\70M\Microchip\TCPIP Stack\TCP.c
                 __pa_180   0x0038ea    program     static D:\git\70M\Microchip\TCPIP Stack\TCP.c
                 __pa_181   0x0038f4    program     static D:\git\70M\Microchip\TCPIP Stack\TCP.c
                 __pa_182   0x003902    program     static D:\git\70M\Microchip\TCPIP Stack\TCP.c
                 __pa_183   0x00390e    program     static D:\git\70M\Microchip\TCPIP Stack\TCP.c
                 __pa_184   0x003918    program     static D:\git\70M\Microchip\TCPIP Stack\TCP.c
                 __pa_185   0x003928    program     static D:\git\70M\Microchip\TCPIP Stack\TCP.c
                 __pa_186   0x003932    program     static D:\git\70M\Microchip\TCPIP Stack\TCP.c
                 __pa_187   0x003950    program     static D:\git\70M\Microchip\TCPIP Stack\TCP.c
                 __pa_188   0x003966    program     static D:\git\70M\Microchip\TCPIP Stack\TCP.c
                 __pa_189   0x00397c    program     static D:\git\70M\Microchip\TCPIP Stack\TCP.c
                 __pa_190   0x003998    program     static D:\git\70M\Microchip\TCPIP Stack\TCP.c
                 __pa_191   0x0039b4    program     static D:\git\70M\Microchip\TCPIP Stack\TCP.c
                 __pa_192   0x0039c0    program     static D:\git\70M\Microchip\TCPIP Stack\TCP.c
                 __pa_193   0x0039ce    program     static D:\git\70M\Microchip\TCPIP Stack\TCP.c
                 __pa_194   0x0039d8    program     static D:\git\70M\Microchip\TCPIP Stack\TCP.c
                 __pa_195   0x0039e2    program     static D:\git\70M\Microchip\TCPIP Stack\TCP.c
                 __pa_196   0x0039ea    program     static D:\git\70M\Microchip\TCPIP Stack\TCP.c
                 __pa_197   0x0039f4    program     static D:\git\70M\Microchip\TCPIP Stack\TCP.c
                 __pa_198   0x0039fe    program     static D:\git\70M\Microchip\TCPIP Stack\TCP.c
                 __pa_199   0x003a08    program     static D:\git\70M\Microchip\TCPIP Stack\TCP.c
                 __pa_200   0x003a12    program     static D:\git\70M\Microchip\TCPIP Stack\TCP.c
                 __pa_201   0x003a28    program     static D:\git\70M\Microchip\TCPIP Stack\TCP.c
                 __pa_202   0x003a34    program     static D:\git\70M\Microchip\TCPIP Stack\TCP.c
                 __pa_203   0x003a40    program     static D:\git\70M\Microchip\TCPIP Stack\TCP.c
                 __pa_204   0x003a46    program     static D:\git\70M\Microchip\TCPIP Stack\TCP.c
                 __pa_205   0x003a52    program     static D:\git\70M\Microchip\TCPIP Stack\TCP.c
                 __pa_206   0x003a66    program     static D:\git\70M\Microchip\TCPIP Stack\TCP.c
                 __pa_207   0x003a7a    program     static D:\git\70M\Microchip\TCPIP Stack\TCP.c
                 __pa_208   0x003a88    program     static D:\git\70M\Microchip\TCPIP Stack\TCP.c
                 __pa_209   0x003a92    program     static D:\git\70M\Microchip\TCPIP Stack\TCP.c
                 __pa_210   0x003a9a    program     static D:\git\70M\Microchip\TCPIP Stack\TCP.c
                 __pa_211   0x003aa4    program     static D:\git\70M\Microchip\TCPIP Stack\TCP.c
                 __pa_212   0x003aae    program     static D:\git\70M\Microchip\TCPIP Stack\TCP.c
                 __pa_213   0x003ab6    program     static D:\git\70M\Microchip\TCPIP Stack\TCP.c
                 __pa_214   0x003ac4    program     static D:\git\70M\Microchip\TCPIP Stack\TCP.c
                 __pa_215   0x003ace    program     static D:\git\70M\Microchip\TCPIP Stack\TCP.c
                 __pa_216   0x003ada    program     static D:\git\70M\Microchip\TCPIP Stack\TCP.c
                 __pa_217   0x003aec    program     static D:\git\70M\Microchip\TCPIP Stack\TCP.c
                 __pa_218   0x003af2    program     static D:\git\70M\Microchip\TCPIP Stack\TCP.c
                 __pa_219   0x003afa    program     static D:\git\70M\Microchip\TCPIP Stack\TCP.c
                 __pa_220   0x003b0c    program     static D:\git\70M\Microchip\TCPIP Stack\TCP.c
                 __pa_221   0x003b1a    program     static D:\git\70M\Microchip\TCPIP Stack\TCP.c
                 __pa_222   0x003b24    program     static D:\git\70M\Microchip\TCPIP Stack\TCP.c
                 __pa_223   0x003b2e    program     static D:\git\70M\Microchip\TCPIP Stack\TCP.c
             __tmplbl_214   0x003b2e    program     static                          
                 __pa_224   0x003b38    program     static D:\git\70M\Microchip\TCPIP Stack\TCP.c
                 __pa_225   0x003b40    program     static D:\git\70M\Microchip\TCPIP Stack\TCP.c
                 __pa_226   0x003b4a    program     static D:\git\70M\Microchip\TCPIP Stack\TCP.c
                 __pa_227   0x003b54    program     static D:\git\70M\Microchip\TCPIP Stack\TCP.c
                 __pa_228   0x003b5c    program     static D:\git\70M\Microchip\TCPIP Stack\TCP.c
                 __pa_229   0x003b66    program     static D:\git\70M\Microchip\TCPIP Stack\TCP.c
                 __pa_230   0x003b74    program     static D:\git\70M\Microchip\TCPIP Stack\TCP.c
                 __pa_231   0x003b84    program     static D:\git\70M\Microchip\TCPIP Stack\TCP.c
                 __pa_232   0x003b94    program     static D:\git\70M\Microchip\TCPIP Stack\TCP.c
             __tmplbl_215   0x003ba2    program     static                          
                 __pa_233   0x003ba2    program     static D:\git\70M\Microchip\TCPIP Stack\TCP.c
                 __pa_234   0x003bb0    program     static D:\git\70M\Microchip\TCPIP Stack\TCP.c
                 __pa_235   0x003bbc    program     static D:\git\70M\Microchip\TCPIP Stack\TCP.c
                 __pa_236   0x003bc8    program     static D:\git\70M\Microchip\TCPIP Stack\TCP.c
                 __pa_237   0x003bd2    program     static D:\git\70M\Microchip\TCPIP Stack\TCP.c
                 __pa_238   0x003bde    program     static D:\git\70M\Microchip\TCPIP Stack\TCP.c
                 __pa_239   0x003bec    program     static D:\git\70M\Microchip\TCPIP Stack\TCP.c
                 __pa_240   0x003bfa    program     static D:\git\70M\Microchip\TCPIP Stack\TCP.c
                 __pa_241   0x003c08    program     static D:\git\70M\Microchip\TCPIP Stack\TCP.c
                 __pa_242   0x003c16    program     static D:\git\70M\Microchip\TCPIP Stack\TCP.c
                 __pa_243   0x003c24    program     static D:\git\70M\Microchip\TCPIP Stack\TCP.c
                 __pa_244   0x003c32    program     static D:\git\70M\Microchip\TCPIP Stack\TCP.c
                 __pa_245   0x003c40    program     static D:\git\70M\Microchip\TCPIP Stack\TCP.c
                 __pa_246   0x003c4e    program     static D:\git\70M\Microchip\TCPIP Stack\TCP.c
                 __pa_247   0x003c5c    program     static D:\git\70M\Microchip\TCPIP Stack\TCP.c
                 __pa_248   0x003c6a    program     static D:\git\70M\Microchip\TCPIP Stack\TCP.c
                 __pa_249   0x003c78    program     static D:\git\70M\Microchip\TCPIP Stack\TCP.c
                 __pa_250   0x003c86    program     static D:\git\70M\Microchip\TCPIP Stack\TCP.c
                 __pa_251   0x003c8e    program     static D:\git\70M\Microchip\TCPIP Stack\TCP.c
                 __pa_252   0x003c98    program     static D:\git\70M\Microchip\TCPIP Stack\TCP.c
                 __pa_253   0x003ca2    program     static D:\git\70M\Microchip\TCPIP Stack\TCP.c
                 __pa_254   0x003cac    program     static D:\git\70M\Microchip\TCPIP Stack\TCP.c
                 __pa_255   0x003cb6    program     static D:\git\70M\Microchip\TCPIP Stack\TCP.c
                 __pa_256   0x003cbe    program     static D:\git\70M\Microchip\TCPIP Stack\TCP.c
                 __pa_257   0x003cc8    program     static D:\git\70M\Microchip\TCPIP Stack\TCP.c
                 __pa_258   0x003cd2    program     static D:\git\70M\Microchip\TCPIP Stack\TCP.c
                 __pa_259   0x003cdc    program     static D:\git\70M\Microchip\TCPIP Stack\TCP.c
                 __pa_260   0x003ce6    program     static D:\git\70M\Microchip\TCPIP Stack\TCP.c
                 __pa_261   0x003cee    program     static D:\git\70M\Microchip\TCPIP Stack\TCP.c
                 __pa_262   0x003cfa    program     static D:\git\70M\Microchip\TCPIP Stack\TCP.c
                 __pa_263   0x003d0a    program     static D:\git\70M\Microchip\TCPIP Stack\TCP.c
                 __pa_264   0x003d14    program     static D:\git\70M\Microchip\TCPIP Stack\TCP.c
                 __pa_265   0x003d26    program     static D:\git\70M\Microchip\TCPIP Stack\TCP.c
                 __pa_266   0x003d36    program     static D:\git\70M\Microchip\TCPIP Stack\TCP.c
                 __pa_267   0x003d44    program     static D:\git\70M\Microchip\TCPIP Stack\TCP.c
                 __pa_268   0x003d4a    program     static D:\git\70M\Microchip\TCPIP Stack\TCP.c
                 __pa_269   0x003d58    program     static D:\git\70M\Microchip\TCPIP Stack\TCP.c
                 __pa_270   0x003d60    program     static D:\git\70M\Microchip\TCPIP Stack\TCP.c
                 __pa_271   0x003d6a    program     static D:\git\70M\Microchip\TCPIP Stack\TCP.c
                 __pa_272   0x003d72    program     static D:\git\70M\Microchip\TCPIP Stack\TCP.c
                 __pa_273   0x003d7a    program     static D:\git\70M\Microchip\TCPIP Stack\TCP.c
                 __pa_274   0x003d86    program     static D:\git\70M\Microchip\TCPIP Stack\TCP.c
                 __pa_275   0x003d92    program     static D:\git\70M\Microchip\TCPIP Stack\TCP.c
                 __pa_276   0x003d9e    program     static D:\git\70M\Microchip\TCPIP Stack\TCP.c
             __tmplbl_213   0x003daa    program     static                          
                 __pa_277   0x003daa    program     static D:\git\70M\Microchip\TCPIP Stack\TCP.c
                 __pa_278   0x003db6    program     static D:\git\70M\Microchip\TCPIP Stack\TCP.c
                 __pa_279   0x003dbe    program     static D:\git\70M\Microchip\TCPIP Stack\TCP.c
                 __pa_280   0x003dc6    program     static D:\git\70M\Microchip\TCPIP Stack\TCP.c
                 __pa_281   0x003dce    program     static D:\git\70M\Microchip\TCPIP Stack\TCP.c
                 __pa_282   0x003dd6    program     static D:\git\70M\Microchip\TCPIP Stack\TCP.c
                 __pa_283   0x003de0    program     static D:\git\70M\Microchip\TCPIP Stack\TCP.c
                 __pa_284   0x003de8    program     static D:\git\70M\Microchip\TCPIP Stack\TCP.c
             __tmplbl_216   0x003de8    program     static                          
                 __pa_285   0x003df0    program     static D:\git\70M\Microchip\TCPIP Stack\TCP.c
                 __pa_286   0x003df8    program     static D:\git\70M\Microchip\TCPIP Stack\TCP.c
                 __pa_287   0x003e00    program     static D:\git\70M\Microchip\TCPIP Stack\TCP.c
                HTTPPrint   0x003e0a    program     extern D:\git\70M\Microchip\Include\TCPIP Stack\HTTPPrint.h
               HTTPPrint_   0x00458c    program     extern D:\git\70M\Microchip\Include\TCPIP Stack\HTTPPrint.h
                 HTTPInit   0x00459e    program     extern D:\git\70M\Microchip\TCPIP Stack\HTTP2.c
               HTTPServer   0x004600    program     extern D:\git\70M\Microchip\TCPIP Stack\HTTP2.c
             HTTPLoadConn   0x004682    program     static D:\git\70M\Microchip\TCPIP Stack\HTTP2.c
              HTTPProcess   0x0046ca    program     static D:\git\70M\Microchip\TCPIP Stack\HTTP2.c
             __tmplbl_198   0x0046da    program     static                          
             __tmplbl_175   0x004f8e    program     static                          
             __tmplbl_174   0x004f94    program     static                          
             __tmplbl_173   0x004fc0    program     static                          
             __tmplbl_172   0x005006    program     static                          
             __tmplbl_182   0x005022    program     static                          
             __tmplbl_183   0x005022    program     static                          
             __tmplbl_184   0x005022    program     static                          
             HTTPSendFile   0x00503c    program     static D:\git\70M\Microchip\TCPIP Stack\HTTP2.c
    HTTPHeaderParseLookup   0x0051b4    program     static D:\git\70M\Microchip\TCPIP Stack\HTTP2.c
HTTPHeaderParseAuthorization   0x0051d0    program     static D:\git\70M\Microchip\TCPIP Stack\HTTP2.c
HTTPHeaderParseContentLength   0x0052fc    program     static D:\git\70M\Microchip\TCPIP Stack\HTTP2.c
            HTTPURLDecode   0x005384    program     extern D:\git\70M\Microchip\TCPIP Stack\HTTP2.c
               HTTPGetArg   0x0054be    program     extern D:\git\70M\Microchip\TCPIP Stack\HTTP2.c
            HTTPGetROMArg   0x005504    program     extern D:\git\70M\Microchip\TCPIP Stack\HTTP2.c
         HTTPReadPostName   0x005566    program     extern D:\git\70M\Microchip\TCPIP Stack\HTTP2.c
        HTTPReadPostValue   0x005596    program     extern D:\git\70M\Microchip\TCPIP Stack\HTTP2.c
               HTTPReadTo   0x005606    program     static D:\git\70M\Microchip\TCPIP Stack\HTTP2.c
           HTTPMPFSUpload   0x005792    program     static D:\git\70M\Microchip\TCPIP Stack\HTTP2.c
              HTTPIncFile   0x0059c2    program     extern D:\git\70M\Microchip\TCPIP Stack\HTTP2.c
                   __pa_0   0x005ad4    program     static D:\git\70M\Microchip\TCPIP Stack\HTTP2.c
                   __pa_1   0x005ade    program     static D:\git\70M\Microchip\TCPIP Stack\HTTP2.c
                   __pa_2   0x005b30    program     static D:\git\70M\Microchip\TCPIP Stack\HTTP2.c
                   __pa_3   0x005b3c    program     static D:\git\70M\Microchip\TCPIP Stack\HTTP2.c
             __tmplbl_168   0x005b58    program     static                          
             __tmplbl_169   0x005b58    program     static                          
             __tmplbl_170   0x005b58    program     static                          
             __tmplbl_171   0x005b58    program     static                          
             __tmplbl_199   0x005b58    program     static                          
             __tmplbl_200   0x005b58    program     static                          
             __tmplbl_201   0x005b58    program     static                          
             __tmplbl_203   0x005b58    program     static                          
                   __pa_4   0x005b58    program     static D:\git\70M\Microchip\TCPIP Stack\HTTP2.c
                   __pa_5   0x005b64    program     static D:\git\70M\Microchip\TCPIP Stack\HTTP2.c
                   __pa_6   0x005b8c    program     static D:\git\70M\Microchip\TCPIP Stack\HTTP2.c
                   __pa_7   0x005b94    program     static D:\git\70M\Microchip\TCPIP Stack\HTTP2.c
                   __pa_8   0x005bb0    program     static D:\git\70M\Microchip\TCPIP Stack\HTTP2.c
                   __pa_9   0x005bbe    program     static D:\git\70M\Microchip\TCPIP Stack\HTTP2.c
                  __pa_10   0x005bc4    program     static D:\git\70M\Microchip\TCPIP Stack\HTTP2.c
                  __pa_11   0x005bca    program     static D:\git\70M\Microchip\TCPIP Stack\HTTP2.c
                  __pa_12   0x005bd4    program     static D:\git\70M\Microchip\TCPIP Stack\HTTP2.c
                  __pa_13   0x005bfa    program     static D:\git\70M\Microchip\TCPIP Stack\HTTP2.c
                  __pa_14   0x005c02    program     static D:\git\70M\Microchip\TCPIP Stack\HTTP2.c
                  __pa_15   0x005c0a    program     static D:\git\70M\Microchip\TCPIP Stack\HTTP2.c
                  __pa_16   0x005c18    program     static D:\git\70M\Microchip\TCPIP Stack\HTTP2.c
                  __pa_17   0x005c22    program     static D:\git\70M\Microchip\TCPIP Stack\HTTP2.c
                  __pa_18   0x005c32    program     static D:\git\70M\Microchip\TCPIP Stack\HTTP2.c
                  __pa_19   0x005c40    program     static D:\git\70M\Microchip\TCPIP Stack\HTTP2.c
                  __pa_20   0x005c46    program     static D:\git\70M\Microchip\TCPIP Stack\HTTP2.c
                  __pa_21   0x005c50    program     static D:\git\70M\Microchip\TCPIP Stack\HTTP2.c
                  __pa_22   0x005c5a    program     static D:\git\70M\Microchip\TCPIP Stack\HTTP2.c
                  __pa_23   0x005c6e    program     static D:\git\70M\Microchip\TCPIP Stack\HTTP2.c
                  __pa_24   0x005c7a    program     static D:\git\70M\Microchip\TCPIP Stack\HTTP2.c
                  __pa_25   0x005c80    program     static D:\git\70M\Microchip\TCPIP Stack\HTTP2.c
                  __pa_26   0x005c86    program     static D:\git\70M\Microchip\TCPIP Stack\HTTP2.c
                  __pa_27   0x005c8c    program     static D:\git\70M\Microchip\TCPIP Stack\HTTP2.c
                  __pa_28   0x005c92    program     static D:\git\70M\Microchip\TCPIP Stack\HTTP2.c
                  __pa_29   0x005c9c    program     static D:\git\70M\Microchip\TCPIP Stack\HTTP2.c
                  __pa_30   0x005caa    program     static D:\git\70M\Microchip\TCPIP Stack\HTTP2.c
                  __pa_31   0x005cb4    program     static D:\git\70M\Microchip\TCPIP Stack\HTTP2.c
                  __pa_32   0x005cc4    program     static D:\git\70M\Microchip\TCPIP Stack\HTTP2.c
                  __pa_33   0x005cd2    program     static D:\git\70M\Microchip\TCPIP Stack\HTTP2.c
                  __pa_34   0x005ce6    program     static D:\git\70M\Microchip\TCPIP Stack\HTTP2.c
                  __pa_35   0x005cf6    program     static D:\git\70M\Microchip\TCPIP Stack\HTTP2.c
                  __pa_36   0x005d0a    program     static D:\git\70M\Microchip\TCPIP Stack\HTTP2.c
                  __pa_37   0x005d1a    program     static D:\git\70M\Microchip\TCPIP Stack\HTTP2.c
                  __pa_38   0x005d28    program     static D:\git\70M\Microchip\TCPIP Stack\HTTP2.c
                  __pa_39   0x005d30    program     static D:\git\70M\Microchip\TCPIP Stack\HTTP2.c
                  __pa_40   0x005d3e    program     static D:\git\70M\Microchip\TCPIP Stack\HTTP2.c
                  __pa_41   0x005d4a    program     static D:\git\70M\Microchip\TCPIP Stack\HTTP2.c
                  __pa_42   0x005d56    program     static D:\git\70M\Microchip\TCPIP Stack\HTTP2.c
                  __pa_43   0x005d60    program     static D:\git\70M\Microchip\TCPIP Stack\HTTP2.c
                  __pa_44   0x005d68    program     static D:\git\70M\Microchip\TCPIP Stack\HTTP2.c
                  __pa_45   0x005d78    program     static D:\git\70M\Microchip\TCPIP Stack\HTTP2.c
                  __pa_46   0x005d88    program     static D:\git\70M\Microchip\TCPIP Stack\HTTP2.c
                  __pa_47   0x005d98    program     static D:\git\70M\Microchip\TCPIP Stack\HTTP2.c
                  __pa_48   0x005da8    program     static D:\git\70M\Microchip\TCPIP Stack\HTTP2.c
                  __pa_49   0x005dae    program     static D:\git\70M\Microchip\TCPIP Stack\HTTP2.c
                  __pa_50   0x005dba    program     static D:\git\70M\Microchip\TCPIP Stack\HTTP2.c
                  __pa_51   0x005dc6    program     static D:\git\70M\Microchip\TCPIP Stack\HTTP2.c
                  __pa_52   0x005dd6    program     static D:\git\70M\Microchip\TCPIP Stack\HTTP2.c
                  __pa_53   0x005de6    program     static D:\git\70M\Microchip\TCPIP Stack\HTTP2.c
                  __pa_54   0x005dfc    program     static D:\git\70M\Microchip\TCPIP Stack\HTTP2.c
                  __pa_55   0x005e08    program     static D:\git\70M\Microchip\TCPIP Stack\HTTP2.c
                  __pa_56   0x005e16    program     static D:\git\70M\Microchip\TCPIP Stack\HTTP2.c
                  __pa_57   0x005e24    program     static D:\git\70M\Microchip\TCPIP Stack\HTTP2.c
                  __pa_58   0x005e34    program     static D:\git\70M\Microchip\TCPIP Stack\HTTP2.c
                  __pa_59   0x005e42    program     static D:\git\70M\Microchip\TCPIP Stack\HTTP2.c
                  __pa_60   0x005e56    program     static D:\git\70M\Microchip\TCPIP Stack\HTTP2.c
                  __pa_61   0x005e5e    program     static D:\git\70M\Microchip\TCPIP Stack\HTTP2.c
                  __pa_62   0x005e70    program     static D:\git\70M\Microchip\TCPIP Stack\HTTP2.c
                  __pa_63   0x005e7c    program     static D:\git\70M\Microchip\TCPIP Stack\HTTP2.c
                  __pa_64   0x005e8e    program     static D:\git\70M\Microchip\TCPIP Stack\HTTP2.c
                  __pa_65   0x005e9a    program     static D:\git\70M\Microchip\TCPIP Stack\HTTP2.c
                  __pa_66   0x005ea6    program     static D:\git\70M\Microchip\TCPIP Stack\HTTP2.c
                  __pa_67   0x005eb2    program     static D:\git\70M\Microchip\TCPIP Stack\HTTP2.c
                  __pa_68   0x005eb8    program     static D:\git\70M\Microchip\TCPIP Stack\HTTP2.c
                  __pa_69   0x005ebe    program     static D:\git\70M\Microchip\TCPIP Stack\HTTP2.c
                  __pa_70   0x005ec8    program     static D:\git\70M\Microchip\TCPIP Stack\HTTP2.c
                  __pa_71   0x005ed2    program     static D:\git\70M\Microchip\TCPIP Stack\HTTP2.c
                  __pa_72   0x005ede    program     static D:\git\70M\Microchip\TCPIP Stack\HTTP2.c
                  __pa_73   0x005eee    program     static D:\git\70M\Microchip\TCPIP Stack\HTTP2.c
                  __pa_74   0x005ef8    program     static D:\git\70M\Microchip\TCPIP Stack\HTTP2.c
                  __pa_75   0x005f00    program     static D:\git\70M\Microchip\TCPIP Stack\HTTP2.c
                  __pa_76   0x005f08    program     static D:\git\70M\Microchip\TCPIP Stack\HTTP2.c
                  __pa_77   0x005f10    program     static D:\git\70M\Microchip\TCPIP Stack\HTTP2.c
                  __pa_78   0x005f1e    program     static D:\git\70M\Microchip\TCPIP Stack\HTTP2.c
                  __pa_79   0x005f2c    program     static D:\git\70M\Microchip\TCPIP Stack\HTTP2.c
                  __pa_80   0x005f3a    program     static D:\git\70M\Microchip\TCPIP Stack\HTTP2.c
                  __pa_81   0x005f48    program     static D:\git\70M\Microchip\TCPIP Stack\HTTP2.c
                  __pa_82   0x005f56    program     static D:\git\70M\Microchip\TCPIP Stack\HTTP2.c
                  __pa_83   0x005f64    program     static D:\git\70M\Microchip\TCPIP Stack\HTTP2.c
                  __pa_84   0x005f72    program     static D:\git\70M\Microchip\TCPIP Stack\HTTP2.c
                  __pa_85   0x005f80    program     static D:\git\70M\Microchip\TCPIP Stack\HTTP2.c
                  __pa_86   0x005f8e    program     static D:\git\70M\Microchip\TCPIP Stack\HTTP2.c
                  __pa_87   0x005f98    program     static D:\git\70M\Microchip\TCPIP Stack\HTTP2.c
                  __pa_88   0x005fa2    program     static D:\git\70M\Microchip\TCPIP Stack\HTTP2.c
                  __pa_89   0x005faa    program     static D:\git\70M\Microchip\TCPIP Stack\HTTP2.c
                  __pa_90   0x005fc0    program     static D:\git\70M\Microchip\TCPIP Stack\HTTP2.c
                  __pa_91   0x005fc6    program     static D:\git\70M\Microchip\TCPIP Stack\HTTP2.c
                  __pa_92   0x005fd4    program     static D:\git\70M\Microchip\TCPIP Stack\HTTP2.c
                  __pa_93   0x005fde    program     static D:\git\70M\Microchip\TCPIP Stack\HTTP2.c
                  __pa_94   0x005fe8    program     static D:\git\70M\Microchip\TCPIP Stack\HTTP2.c
                  __pa_95   0x005ff2    program     static D:\git\70M\Microchip\TCPIP Stack\HTTP2.c
                  __pa_96   0x006000    program     static D:\git\70M\Microchip\TCPIP Stack\HTTP2.c
                  __pa_97   0x006008    program     static D:\git\70M\Microchip\TCPIP Stack\HTTP2.c
                  __pa_98   0x006012    program     static D:\git\70M\Microchip\TCPIP Stack\HTTP2.c
                  __pa_99   0x006028    program     static D:\git\70M\Microchip\TCPIP Stack\HTTP2.c
                 __pa_100   0x00602e    program     static D:\git\70M\Microchip\TCPIP Stack\HTTP2.c
                 __pa_101   0x006038    program     static D:\git\70M\Microchip\TCPIP Stack\HTTP2.c
                 __pa_102   0x006040    program     static D:\git\70M\Microchip\TCPIP Stack\HTTP2.c
                 __pa_103   0x00604e    program     static D:\git\70M\Microchip\TCPIP Stack\HTTP2.c
                 __pa_104   0x00605c    program     static D:\git\70M\Microchip\TCPIP Stack\HTTP2.c
                 __pa_105   0x006064    program     static D:\git\70M\Microchip\TCPIP Stack\HTTP2.c
                 __pa_106   0x006072    program     static D:\git\70M\Microchip\TCPIP Stack\HTTP2.c
                 __pa_107   0x00607c    program     static D:\git\70M\Microchip\TCPIP Stack\HTTP2.c
                 __pa_108   0x006088    program     static D:\git\70M\Microchip\TCPIP Stack\HTTP2.c
                 __pa_109   0x006098    program     static D:\git\70M\Microchip\TCPIP Stack\HTTP2.c
                 __pa_110   0x0060a0    program     static D:\git\70M\Microchip\TCPIP Stack\HTTP2.c
                 __pa_111   0x0060aa    program     static D:\git\70M\Microchip\TCPIP Stack\HTTP2.c
                 __pa_112   0x0060b2    program     static D:\git\70M\Microchip\TCPIP Stack\HTTP2.c
                 __pa_113   0x0060c0    program     static D:\git\70M\Microchip\TCPIP Stack\HTTP2.c
                 __pa_114   0x0060c6    program     static D:\git\70M\Microchip\TCPIP Stack\HTTP2.c
                 __pa_115   0x0060cc    program     static D:\git\70M\Microchip\TCPIP Stack\HTTP2.c
                 __pa_116   0x0060d8    program     static D:\git\70M\Microchip\TCPIP Stack\HTTP2.c
                 __pa_117   0x0060e4    program     static D:\git\70M\Microchip\TCPIP Stack\HTTP2.c
                 __pa_118   0x0060f2    program     static D:\git\70M\Microchip\TCPIP Stack\HTTP2.c
                 __pa_119   0x006100    program     static D:\git\70M\Microchip\TCPIP Stack\HTTP2.c
                 __pa_120   0x006108    program     static D:\git\70M\Microchip\TCPIP Stack\HTTP2.c
                 __pa_121   0x00610e    program     static D:\git\70M\Microchip\TCPIP Stack\HTTP2.c
                 __pa_122   0x006118    program     static D:\git\70M\Microchip\TCPIP Stack\HTTP2.c
                 __pa_123   0x006122    program     static D:\git\70M\Microchip\TCPIP Stack\HTTP2.c
                 __pa_124   0x00612c    program     static D:\git\70M\Microchip\TCPIP Stack\HTTP2.c
                 __pa_125   0x006134    program     static D:\git\70M\Microchip\TCPIP Stack\HTTP2.c
                 __pa_126   0x00613c    program     static D:\git\70M\Microchip\TCPIP Stack\HTTP2.c
                 __pa_127   0x006144    program     static D:\git\70M\Microchip\TCPIP Stack\HTTP2.c
                 __pa_128   0x00614a    program     static D:\git\70M\Microchip\TCPIP Stack\HTTP2.c
                 __pa_129   0x006164    program     static D:\git\70M\Microchip\TCPIP Stack\HTTP2.c
                 __pa_130   0x00616c    program     static D:\git\70M\Microchip\TCPIP Stack\HTTP2.c
                 __pa_131   0x006172    program     static D:\git\70M\Microchip\TCPIP Stack\HTTP2.c
                 __pa_132   0x006178    program     static D:\git\70M\Microchip\TCPIP Stack\HTTP2.c
                 __pa_133   0x006188    program     static D:\git\70M\Microchip\TCPIP Stack\HTTP2.c
                 __pa_134   0x006192    program     static D:\git\70M\Microchip\TCPIP Stack\HTTP2.c
                 __pa_135   0x0061a2    program     static D:\git\70M\Microchip\TCPIP Stack\HTTP2.c
                 __pa_136   0x0061ae    program     static D:\git\70M\Microchip\TCPIP Stack\HTTP2.c
                 __pa_137   0x0061b8    program     static D:\git\70M\Microchip\TCPIP Stack\HTTP2.c
                 __pa_138   0x0061c8    program     static D:\git\70M\Microchip\TCPIP Stack\HTTP2.c
                 __pa_139   0x0061d2    program     static D:\git\70M\Microchip\TCPIP Stack\HTTP2.c
                 __pa_140   0x0061de    program     static D:\git\70M\Microchip\TCPIP Stack\HTTP2.c
                 __pa_141   0x0061e8    program     static D:\git\70M\Microchip\TCPIP Stack\HTTP2.c
                 __pa_142   0x0061f6    program     static D:\git\70M\Microchip\TCPIP Stack\HTTP2.c
                 __pa_143   0x006204    program     static D:\git\70M\Microchip\TCPIP Stack\HTTP2.c
                 __pa_144   0x006210    program     static D:\git\70M\Microchip\TCPIP Stack\HTTP2.c
                 __pa_145   0x006218    program     static D:\git\70M\Microchip\TCPIP Stack\HTTP2.c
                 __pa_146   0x00621e    program     static D:\git\70M\Microchip\TCPIP Stack\HTTP2.c
                 __pa_147   0x006224    program     static D:\git\70M\Microchip\TCPIP Stack\HTTP2.c
                 __pa_148   0x00622c    program     static D:\git\70M\Microchip\TCPIP Stack\HTTP2.c
                 __pa_149   0x006234    program     static D:\git\70M\Microchip\TCPIP Stack\HTTP2.c
                 __pa_150   0x00623e    program     static D:\git\70M\Microchip\TCPIP Stack\HTTP2.c
       DisplayCompanyMenu   0x006244    program     extern D:\git\70M\Drivers\External-Peripherals\oled_c2.c
            InitalizeMenu   0x006288    program     extern D:\git\70M\Drivers\External-Peripherals\oled_c2.c
          LCD__u8GetOnOff   0x0063b6    program     extern D:\git\70M\Drivers\External-Peripherals\oled_c2.c
    LCD__u8UpdateToModule   0x0063ca    program     extern D:\git\70M\Drivers\External-Peripherals\oled_c2.c
LCD_u8UpdateDisplayContent   0x006438    program     extern D:\git\70M\Drivers\External-Peripherals\oled_c2.c
      LCD__u8ToParentMenu   0x0064e0    program     static D:\git\70M\Drivers\External-Peripherals\oled_c2.c
       LCD__u8ToChildMenu   0x0064ea    program     static D:\git\70M\Drivers\External-Peripherals\oled_c2.c
         LCD__u8UpkeyEdit   0x0064f4    program     extern D:\git\70M\Drivers\External-Peripherals\oled_c2.c
 LCD__u8UpkeyToParentMenu   0x0065fc    program     static D:\git\70M\Drivers\External-Peripherals\oled_c2.c
      LCD__u8UpKeyProcess   0x006600    program     static D:\git\70M\Drivers\External-Peripherals\oled_c2.c
       LCD__u8DownKeyEdit   0x00660e    program     static D:\git\70M\Drivers\External-Peripherals\oled_c2.c
LCD__u8DownkeyToChildMenu   0x00670a    program     static D:\git\70M\Drivers\External-Peripherals\oled_c2.c
    LCD__u8DownKeyProcess   0x00670e    program     static D:\git\70M\Drivers\External-Peripherals\oled_c2.c
LCDSub_vLeftMoveCursorFreq   0x00671c    program     extern D:\git\70M\Drivers\External-Peripherals\oled_c2.c
LCDSub_vLeftMoveCursorAttn   0x006736    program     extern D:\git\70M\Drivers\External-Peripherals\oled_c2.c
LCDSub_vLeftMoveCursorPower   0x006750    program     extern D:\git\70M\Drivers\External-Peripherals\oled_c2.c
 LCDSub_vLeftMoveCursorIP   0x00676a    program     extern D:\git\70M\Drivers\External-Peripherals\oled_c2.c
 LCD__u8LeftKeyMoveCursor   0x00678a    program     static D:\git\70M\Drivers\External-Peripherals\oled_c2.c
 LCD__u8LeftKeyToLeftMenu   0x00682a    program     static D:\git\70M\Drivers\External-Peripherals\oled_c2.c
    LCD__u8LeftKeyProcess   0x006834    program     static D:\git\70M\Drivers\External-Peripherals\oled_c2.c
LCDSub_vRightMoveCursorFreq   0x006842    program     extern D:\git\70M\Drivers\External-Peripherals\oled_c2.c
LCDSub_vRightMoveCursorAttn   0x00685e    program     extern D:\git\70M\Drivers\External-Peripherals\oled_c2.c
LCDSub_vRightMoveCursorPower   0x006878    program     extern D:\git\70M\Drivers\External-Peripherals\oled_c2.c
LCDSub_vRightMoveCursorIP   0x006894    program     extern D:\git\70M\Drivers\External-Peripherals\oled_c2.c
LCD__u8RightKeyMoveCursor   0x0068b4    program     static D:\git\70M\Drivers\External-Peripherals\oled_c2.c
LCD__u8RightKeyToRightMenu   0x006954    program     static D:\git\70M\Drivers\External-Peripherals\oled_c2.c
   LCD__u8RightKeyProcess   0x00695e    program     static D:\git\70M\Drivers\External-Peripherals\oled_c2.c
  LCD__u8EnterKeySetValue   0x00696c    program     static D:\git\70M\Drivers\External-Peripherals\oled_c2.c
LCD__u8EnterKeyToChildMenu   0x006a04    program     static D:\git\70M\Drivers\External-Peripherals\oled_c2.c
LCD__u8EnterKeyToEditMode   0x006a08    program     static D:\git\70M\Drivers\External-Peripherals\oled_c2.c
   LCD__u8EnterKeyProcess   0x006a26    program     static D:\git\70M\Drivers\External-Peripherals\oled_c2.c
LCD__u8CancelKeyExitEditMode   0x006a46    program     static D:\git\70M\Drivers\External-Peripherals\oled_c2.c
LCD__u8CancelKeyToParentMenu   0x006a56    program     static D:\git\70M\Drivers\External-Peripherals\oled_c2.c
  LCD__u8CancelKeyProcess   0x006a5a    program     static D:\git\70M\Drivers\External-Peripherals\oled_c2.c
            KeyProcessing   0x006a6a    program     extern D:\git\70M\Drivers\External-Peripherals\oled_c2.c
 SYS__u8UpdateUpConverter   0x006aa0    program     static D:\git\70M\Drivers\External-Peripherals\oled_c2.c
SYS__u8UpdateDownConverter   0x007158    program     static D:\git\70M\Drivers\External-Peripherals\oled_c2.c
         SYS__u8UpdateVOL   0x00779c    program     static D:\git\70M\Drivers\External-Peripherals\oled_c2.c
          SYS__u8UpdateLO   0x007dac    program     static D:\git\70M\Drivers\External-Peripherals\oled_c2.c
             UpdateStatus   0x007df0    program     extern D:\git\70M\Drivers\External-Peripherals\oled_c2.c
                   __pa_0   0x007e1a    program     static D:\git\70M\Drivers\External-Peripherals\oled_c2.c
                   __pa_1   0x007e44    program     static D:\git\70M\Drivers\External-Peripherals\oled_c2.c
                   __pa_2   0x007e7a    program     static D:\git\70M\Drivers\External-Peripherals\oled_c2.c
                   __pa_3   0x007eec    program     static D:\git\70M\Drivers\External-Peripherals\oled_c2.c
                   __pa_4   0x007f34    program     static D:\git\70M\Drivers\External-Peripherals\oled_c2.c
                   __pa_5   0x007f70    program     static D:\git\70M\Drivers\External-Peripherals\oled_c2.c
                   __pa_6   0x007fa8    program     static D:\git\70M\Drivers\External-Peripherals\oled_c2.c
                   __pa_7   0x007fb6    program     static D:\git\70M\Drivers\External-Peripherals\oled_c2.c
                   __pa_8   0x007fc4    program     static D:\git\70M\Drivers\External-Peripherals\oled_c2.c
                   __pa_9   0x007fca    program     static D:\git\70M\Drivers\External-Peripherals\oled_c2.c
                  __pa_10   0x007fea    program     static D:\git\70M\Drivers\External-Peripherals\oled_c2.c
                  __pa_11   0x00800c    program     static D:\git\70M\Drivers\External-Peripherals\oled_c2.c
                  __pa_12   0x008018    program     static D:\git\70M\Drivers\External-Peripherals\oled_c2.c
                  __pa_13   0x00802a    program     static D:\git\70M\Drivers\External-Peripherals\oled_c2.c
                  __pa_14   0x008038    program     static D:\git\70M\Drivers\External-Peripherals\oled_c2.c
                  __pa_15   0x008046    program     static D:\git\70M\Drivers\External-Peripherals\oled_c2.c
                  __pa_16   0x008054    program     static D:\git\70M\Drivers\External-Peripherals\oled_c2.c
                  __pa_17   0x00806a    program     static D:\git\70M\Drivers\External-Peripherals\oled_c2.c
                  __pa_18   0x008076    program     static D:\git\70M\Drivers\External-Peripherals\oled_c2.c
                  __pa_19   0x00808c    program     static D:\git\70M\Drivers\External-Peripherals\oled_c2.c
             __tmplbl_112   0x0080a2    program     static                          
             __tmplbl_111   0x0080a2    program     static                          
             __tmplbl_129   0x0080a2    program     static                          
             __tmplbl_139   0x0080a2    program     static                          
                  __pa_20   0x0080a2    program     static D:\git\70M\Drivers\External-Peripherals\oled_c2.c
                  __pa_21   0x0080ae    program     static D:\git\70M\Drivers\External-Peripherals\oled_c2.c
                  __pa_22   0x0080bc    program     static D:\git\70M\Drivers\External-Peripherals\oled_c2.c
             __tmplbl_113   0x0080dc    program     static                          
             __tmplbl_114   0x0080dc    program     static                          
                  __pa_23   0x0080dc    program     static D:\git\70M\Drivers\External-Peripherals\oled_c2.c
             __tmplbl_115   0x0080dc    program     static                          
             __tmplbl_116   0x0080dc    program     static                          
                  __pa_24   0x0080ec    program     static D:\git\70M\Drivers\External-Peripherals\oled_c2.c
                  __pa_25   0x0080f8    program     static D:\git\70M\Drivers\External-Peripherals\oled_c2.c
                  __pa_26   0x00811e    program     static D:\git\70M\Drivers\External-Peripherals\oled_c2.c
                  __pa_27   0x008128    program     static D:\git\70M\Drivers\External-Peripherals\oled_c2.c
                  __pa_28   0x008148    program     static D:\git\70M\Drivers\External-Peripherals\oled_c2.c
                  __pa_29   0x008160    program     static D:\git\70M\Drivers\External-Peripherals\oled_c2.c
                  __pa_30   0x00816e    program     static D:\git\70M\Drivers\External-Peripherals\oled_c2.c
                  __pa_31   0x00817c    program     static D:\git\70M\Drivers\External-Peripherals\oled_c2.c
                  __pa_32   0x00818a    program     static D:\git\70M\Drivers\External-Peripherals\oled_c2.c
                  __pa_33   0x008198    program     static D:\git\70M\Drivers\External-Peripherals\oled_c2.c
                  __pa_34   0x0081a6    program     static D:\git\70M\Drivers\External-Peripherals\oled_c2.c
                  __pa_35   0x0081bc    program     static D:\git\70M\Drivers\External-Peripherals\oled_c2.c
                  __pa_36   0x0081d0    program     static D:\git\70M\Drivers\External-Peripherals\oled_c2.c
                  __pa_37   0x0081de    program     static D:\git\70M\Drivers\External-Peripherals\oled_c2.c
                  __pa_38   0x0081f6    program     static D:\git\70M\Drivers\External-Peripherals\oled_c2.c
                  __pa_39   0x008202    program     static D:\git\70M\Drivers\External-Peripherals\oled_c2.c
                  __pa_40   0x00820a    program     static D:\git\70M\Drivers\External-Peripherals\oled_c2.c
                  __pa_41   0x008216    program     static D:\git\70M\Drivers\External-Peripherals\oled_c2.c
                  __pa_42   0x008224    program     static D:\git\70M\Drivers\External-Peripherals\oled_c2.c
                  __pa_43   0x00822c    program     static D:\git\70M\Drivers\External-Peripherals\oled_c2.c
                  __pa_44   0x008234    program     static D:\git\70M\Drivers\External-Peripherals\oled_c2.c
                  __pa_45   0x008246    program     static D:\git\70M\Drivers\External-Peripherals\oled_c2.c
                  __pa_46   0x008258    program     static D:\git\70M\Drivers\External-Peripherals\oled_c2.c
                  __pa_47   0x008262    program     static D:\git\70M\Drivers\External-Peripherals\oled_c2.c
                  __pa_48   0x00826c    program     static D:\git\70M\Drivers\External-Peripherals\oled_c2.c
             __tmplbl_117   0x008274    program     static                          
             __tmplbl_118   0x008274    program     static                          
                  __pa_49   0x008274    program     static D:\git\70M\Drivers\External-Peripherals\oled_c2.c
                  __pa_50   0x008282    program     static D:\git\70M\Drivers\External-Peripherals\oled_c2.c
                  __pa_51   0x008290    program     static D:\git\70M\Drivers\External-Peripherals\oled_c2.c
                  __pa_52   0x00829e    program     static D:\git\70M\Drivers\External-Peripherals\oled_c2.c
                  __pa_53   0x0082ce    program     static D:\git\70M\Drivers\External-Peripherals\oled_c2.c
                  __pa_54   0x0082e8    program     static D:\git\70M\Drivers\External-Peripherals\oled_c2.c
                  __pa_55   0x0082ee    program     static D:\git\70M\Drivers\External-Peripherals\oled_c2.c
                  __pa_56   0x0082f4    program     static D:\git\70M\Drivers\External-Peripherals\oled_c2.c
                  __pa_57   0x0082fa    program     static D:\git\70M\Drivers\External-Peripherals\oled_c2.c
                  __pa_58   0x008300    program     static D:\git\70M\Drivers\External-Peripherals\oled_c2.c
                  __pa_59   0x00830e    program     static D:\git\70M\Drivers\External-Peripherals\oled_c2.c
                  __pa_60   0x008322    program     static D:\git\70M\Drivers\External-Peripherals\oled_c2.c
                  __pa_61   0x008336    program     static D:\git\70M\Drivers\External-Peripherals\oled_c2.c
                  __pa_62   0x00834a    program     static D:\git\70M\Drivers\External-Peripherals\oled_c2.c
                  __pa_63   0x008354    program     static D:\git\70M\Drivers\External-Peripherals\oled_c2.c
                  __pa_64   0x00835a    program     static D:\git\70M\Drivers\External-Peripherals\oled_c2.c
                  __pa_65   0x00836a    program     static D:\git\70M\Drivers\External-Peripherals\oled_c2.c
                  __pa_66   0x008376    program     static D:\git\70M\Drivers\External-Peripherals\oled_c2.c
                  __pa_67   0x008382    program     static D:\git\70M\Drivers\External-Peripherals\oled_c2.c
                  __pa_68   0x008388    program     static D:\git\70M\Drivers\External-Peripherals\oled_c2.c
                  __pa_69   0x00838e    program     static D:\git\70M\Drivers\External-Peripherals\oled_c2.c
                  __pa_70   0x00839a    program     static D:\git\70M\Drivers\External-Peripherals\oled_c2.c
                  __pa_71   0x0083a6    program     static D:\git\70M\Drivers\External-Peripherals\oled_c2.c
                  __pa_72   0x0083b2    program     static D:\git\70M\Drivers\External-Peripherals\oled_c2.c
                  __pa_73   0x0083be    program     static D:\git\70M\Drivers\External-Peripherals\oled_c2.c
                  __pa_74   0x0083ca    program     static D:\git\70M\Drivers\External-Peripherals\oled_c2.c
                  __pa_75   0x0083d6    program     static D:\git\70M\Drivers\External-Peripherals\oled_c2.c
                  __pa_76   0x0083e4    program     static D:\git\70M\Drivers\External-Peripherals\oled_c2.c
                  __pa_77   0x0083f2    program     static D:\git\70M\Drivers\External-Peripherals\oled_c2.c
                  __pa_78   0x0083fa    program     static D:\git\70M\Drivers\External-Peripherals\oled_c2.c
                  __pa_79   0x008404    program     static D:\git\70M\Drivers\External-Peripherals\oled_c2.c
                  __pa_80   0x00840e    program     static D:\git\70M\Drivers\External-Peripherals\oled_c2.c
                  __pa_81   0x008418    program     static D:\git\70M\Drivers\External-Peripherals\oled_c2.c
                  __pa_82   0x00842a    program     static D:\git\70M\Drivers\External-Peripherals\oled_c2.c
                  __pa_83   0x008436    program     static D:\git\70M\Drivers\External-Peripherals\oled_c2.c
                  __pa_84   0x008442    program     static D:\git\70M\Drivers\External-Peripherals\oled_c2.c
                  __pa_85   0x00844e    program     static D:\git\70M\Drivers\External-Peripherals\oled_c2.c
                  __pa_86   0x00845c    program     static D:\git\70M\Drivers\External-Peripherals\oled_c2.c
    HTTPGet__boInfoConfig   0x00846a    program     static D:\git\70M\App\WebUI\HTTPGetDevInfo.c
 HTTPGet__boNetworkConfig   0x0084b0    program     static D:\git\70M\App\WebUI\HTTPGetDevInfo.c
      HTTPGet__boSetOnOff   0x00853e    program     static D:\git\70M\App\WebUI\HTTPGetDevInfo.c
HTTPGet__u8SetUpCvtRFFreq   0x008586    program     static D:\git\70M\App\WebUI\HTTPGetDevInfo.c
HTTPGet__u8SetDownCvtRFFreq   0x0086d6    program     static D:\git\70M\App\WebUI\HTTPGetDevInfo.c
  HTTPGet__u8SetUpCvtAttn   0x0087ec    program     static D:\git\70M\App\WebUI\HTTPGetDevInfo.c
HTTPGet__u8SetDownCvtAttn   0x0088e2    program     static D:\git\70M\App\WebUI\HTTPGetDevInfo.c
 HTTPGet__u8SetUpCvtPower   0x0089d8    program     static D:\git\70M\App\WebUI\HTTPGetDevInfo.c
HTTPGet__u8SetUpCvtSetPower   0x008aaa    program     static D:\git\70M\App\WebUI\HTTPGetDevInfo.c
HTTPGet__u8SetDownCvtPower   0x008bb2    program     static D:\git\70M\App\WebUI\HTTPGetDevInfo.c
HTTPGet__u8SetDownCvtSetPower   0x008c84    program     static D:\git\70M\App\WebUI\HTTPGetDevInfo.c
   HTTPGet__u8SetUpCvtALC   0x008d8c    program     static D:\git\70M\App\WebUI\HTTPGetDevInfo.c
 HTTPGet__u8SetDownCvtALC   0x008e2c    program     static D:\git\70M\App\WebUI\HTTPGetDevInfo.c
  HTTPGet__u8SetUpCvtMute   0x008ece    program     static D:\git\70M\App\WebUI\HTTPGetDevInfo.c
HTTPGet__u8SetDownCvtMute   0x008f84    program     static D:\git\70M\App\WebUI\HTTPGetDevInfo.c
   HTTPGet__u8SetVOL18VDC   0x00902e    program     static D:\git\70M\App\WebUI\HTTPGetDevInfo.c
   HTTPGet__u8SetVOL24VDC   0x009096    program     static D:\git\70M\App\WebUI\HTTPGetDevInfo.c
     HTTPGet__u8SetBUCREF   0x0090fc    program     static D:\git\70M\App\WebUI\HTTPGetDevInfo.c
     HTTPGet__u8SetLNBREF   0x009162    program     static D:\git\70M\App\WebUI\HTTPGetDevInfo.c
   HTTPGet__u8ClearBUCIAm   0x0091c4    program     static D:\git\70M\App\WebUI\HTTPGetDevInfo.c
   HTTPGet__u8ClearLNBIAm   0x0091f6    program     static D:\git\70M\App\WebUI\HTTPGetDevInfo.c
  HTTPGet__boDeviceConfig   0x009228    program     static D:\git\70M\App\WebUI\HTTPGetDevInfo.c
   HTTPExe_get_deviceinfo   0x009252    program     extern D:\git\70M\App\WebUI\HTTPGetDevInfo.c
                   __pa_0   0x009758    program     static D:\git\70M\App\WebUI\HTTPGetDevInfo.c
                   __pa_1   0x00976e    program     static D:\git\70M\App\WebUI\HTTPGetDevInfo.c
                   __pa_2   0x009788    program     static D:\git\70M\App\WebUI\HTTPGetDevInfo.c
                   __pa_3   0x0097a4    program     static D:\git\70M\App\WebUI\HTTPGetDevInfo.c
                   __pa_4   0x0097b6    program     static D:\git\70M\App\WebUI\HTTPGetDevInfo.c
                   __pa_5   0x0097bc    program     static D:\git\70M\App\WebUI\HTTPGetDevInfo.c
             __tmplbl_110   0x0097c2    program     static                          
             __tmplbl_109   0x0097c2    program     static                          
             __tmplbl_118   0x0097c2    program     static                          
             __tmplbl_111   0x0097c2    program     static                          
             __tmplbl_119   0x0097c2    program     static                          
             __tmplbl_113   0x0097c2    program     static                          
             __tmplbl_114   0x0097c2    program     static                          
             __tmplbl_120   0x0097c2    program     static                          
             __tmplbl_117   0x0097c2    program     static                          
                   __pa_6   0x0097c2    program     static D:\git\70M\App\WebUI\HTTPGetDevInfo.c
             __tmplbl_115   0x0097c2    program     static                          
             __tmplbl_116   0x0097c2    program     static                          
                   __pa_7   0x0097ce    program     static D:\git\70M\App\WebUI\HTTPGetDevInfo.c
                   __pa_8   0x0097d6    program     static D:\git\70M\App\WebUI\HTTPGetDevInfo.c
                   __pa_9   0x009858    program     static D:\git\70M\App\WebUI\HTTPGetDevInfo.c
                  __pa_10   0x00985e    program     static D:\git\70M\App\WebUI\HTTPGetDevInfo.c
                  __pa_11   0x009866    program     static D:\git\70M\App\WebUI\HTTPGetDevInfo.c
                  __pa_12   0x009882    program     static D:\git\70M\App\WebUI\HTTPGetDevInfo.c
                  __pa_13   0x0098a2    program     static D:\git\70M\App\WebUI\HTTPGetDevInfo.c
                  __pa_14   0x0098be    program     static D:\git\70M\App\WebUI\HTTPGetDevInfo.c
                  __pa_15   0x0098c6    program     static D:\git\70M\App\WebUI\HTTPGetDevInfo.c
                  __pa_16   0x0098dc    program     static D:\git\70M\App\WebUI\HTTPGetDevInfo.c
                  __pa_17   0x009912    program     static D:\git\70M\App\WebUI\HTTPGetDevInfo.c
                  __pa_18   0x00992a    program     static D:\git\70M\App\WebUI\HTTPGetDevInfo.c
                  __pa_19   0x00993e    program     static D:\git\70M\App\WebUI\HTTPGetDevInfo.c
                  __pa_20   0x009952    program     static D:\git\70M\App\WebUI\HTTPGetDevInfo.c
                  __pa_21   0x009962    program     static D:\git\70M\App\WebUI\HTTPGetDevInfo.c
                  __pa_22   0x009972    program     static D:\git\70M\App\WebUI\HTTPGetDevInfo.c
                  __pa_23   0x009982    program     static D:\git\70M\App\WebUI\HTTPGetDevInfo.c
                  __pa_24   0x00998c    program     static D:\git\70M\App\WebUI\HTTPGetDevInfo.c
                  __pa_25   0x009994    program     static D:\git\70M\App\WebUI\HTTPGetDevInfo.c
                  __pa_26   0x0099a2    program     static D:\git\70M\App\WebUI\HTTPGetDevInfo.c
                  __pa_27   0x0099ba    program     static D:\git\70M\App\WebUI\HTTPGetDevInfo.c
                  __pa_28   0x0099c6    program     static D:\git\70M\App\WebUI\HTTPGetDevInfo.c
                  __pa_29   0x0099f0    program     static D:\git\70M\App\WebUI\HTTPGetDevInfo.c
                  __pa_30   0x0099fa    program     static D:\git\70M\App\WebUI\HTTPGetDevInfo.c
                  __pa_31   0x009a0a    program     static D:\git\70M\App\WebUI\HTTPGetDevInfo.c
                  __pa_32   0x009a10    program     static D:\git\70M\App\WebUI\HTTPGetDevInfo.c
                  __pa_33   0x009a16    program     static D:\git\70M\App\WebUI\HTTPGetDevInfo.c
                  __pa_34   0x009a20    program     static D:\git\70M\App\WebUI\HTTPGetDevInfo.c
                  __pa_35   0x009a2e    program     static D:\git\70M\App\WebUI\HTTPGetDevInfo.c
                  __pa_36   0x009a36    program     static D:\git\70M\App\WebUI\HTTPGetDevInfo.c
                  __pa_37   0x009a48    program     static D:\git\70M\App\WebUI\HTTPGetDevInfo.c
                  __pa_38   0x009a58    program     static D:\git\70M\App\WebUI\HTTPGetDevInfo.c
                  __pa_39   0x009a74    program     static D:\git\70M\App\WebUI\HTTPGetDevInfo.c
                  __pa_40   0x009a8c    program     static D:\git\70M\App\WebUI\HTTPGetDevInfo.c
                  __pa_41   0x009a9a    program     static D:\git\70M\App\WebUI\HTTPGetDevInfo.c
                  __pa_42   0x009aa8    program     static D:\git\70M\App\WebUI\HTTPGetDevInfo.c
                  __pa_43   0x009ab6    program     static D:\git\70M\App\WebUI\HTTPGetDevInfo.c
                  __pa_44   0x009acc    program     static D:\git\70M\App\WebUI\HTTPGetDevInfo.c
                  __pa_45   0x009ad6    program     static D:\git\70M\App\WebUI\HTTPGetDevInfo.c
                  __pa_46   0x009ae0    program     static D:\git\70M\App\WebUI\HTTPGetDevInfo.c
                  __pa_47   0x009aec    program     static D:\git\70M\App\WebUI\HTTPGetDevInfo.c
                  __pa_48   0x009af8    program     static D:\git\70M\App\WebUI\HTTPGetDevInfo.c
                  __pa_49   0x009b04    program     static D:\git\70M\App\WebUI\HTTPGetDevInfo.c
                  __pa_50   0x009b14    program     static D:\git\70M\App\WebUI\HTTPGetDevInfo.c
                  __pa_51   0x009b1e    program     static D:\git\70M\App\WebUI\HTTPGetDevInfo.c
                  __pa_52   0x009b2e    program     static D:\git\70M\App\WebUI\HTTPGetDevInfo.c
                  __pa_53   0x009b3c    program     static D:\git\70M\App\WebUI\HTTPGetDevInfo.c
                  __pa_54   0x009b46    program     static D:\git\70M\App\WebUI\HTTPGetDevInfo.c
                  __pa_55   0x009b5a    program     static D:\git\70M\App\WebUI\HTTPGetDevInfo.c
                  __pa_56   0x009b6e    program     static D:\git\70M\App\WebUI\HTTPGetDevInfo.c
                  __pa_57   0x009b82    program     static D:\git\70M\App\WebUI\HTTPGetDevInfo.c
                  __pa_58   0x009b8a    program     static D:\git\70M\App\WebUI\HTTPGetDevInfo.c
                  __pa_59   0x009b92    program     static D:\git\70M\App\WebUI\HTTPGetDevInfo.c
                  __pa_60   0x009ba4    program     static D:\git\70M\App\WebUI\HTTPGetDevInfo.c
                  __pa_61   0x009bb6    program     static D:\git\70M\App\WebUI\HTTPGetDevInfo.c
                  __pa_62   0x009bc2    program     static D:\git\70M\App\WebUI\HTTPGetDevInfo.c
                  __pa_63   0x009bce    program     static D:\git\70M\App\WebUI\HTTPGetDevInfo.c
                  __pa_64   0x009bda    program     static D:\git\70M\App\WebUI\HTTPGetDevInfo.c
                  __pa_65   0x009bea    program     static D:\git\70M\App\WebUI\HTTPGetDevInfo.c
                  __pa_66   0x009bf8    program     static D:\git\70M\App\WebUI\HTTPGetDevInfo.c
                  __pa_67   0x009c06    program     static D:\git\70M\App\WebUI\HTTPGetDevInfo.c
                  __pa_68   0x009c14    program     static D:\git\70M\App\WebUI\HTTPGetDevInfo.c
                  __pa_69   0x009c22    program     static D:\git\70M\App\WebUI\HTTPGetDevInfo.c
                  __pa_70   0x009c30    program     static D:\git\70M\App\WebUI\HTTPGetDevInfo.c
                  __pa_71   0x009c38    program     static D:\git\70M\App\WebUI\HTTPGetDevInfo.c
                  __pa_72   0x009c46    program     static D:\git\70M\App\WebUI\HTTPGetDevInfo.c
                  __pa_73   0x009c4e    program     static D:\git\70M\App\WebUI\HTTPGetDevInfo.c
                  __pa_74   0x009c56    program     static D:\git\70M\App\WebUI\HTTPGetDevInfo.c
                  __pa_75   0x009c60    program     static D:\git\70M\App\WebUI\HTTPGetDevInfo.c
                  __pa_76   0x009c6a    program     static D:\git\70M\App\WebUI\HTTPGetDevInfo.c
                  __pa_77   0x009c74    program     static D:\git\70M\App\WebUI\HTTPGetDevInfo.c
                  __pa_78   0x009c7e    program     static D:\git\70M\App\WebUI\HTTPGetDevInfo.c
                  __pa_79   0x009c88    program     static D:\git\70M\App\WebUI\HTTPGetDevInfo.c
                  __pa_80   0x009cc6    program     static D:\git\70M\App\WebUI\HTTPGetDevInfo.c
                  __pa_81   0x009cea    program     static D:\git\70M\App\WebUI\HTTPGetDevInfo.c
                  __pa_82   0x009cfa    program     static D:\git\70M\App\WebUI\HTTPGetDevInfo.c
                  __pa_83   0x009d08    program     static D:\git\70M\App\WebUI\HTTPGetDevInfo.c
             __tmplbl_127   0x009d0e    program     static                          
             __tmplbl_126   0x009d0e    program     static                          
             __tmplbl_125   0x009d0e    program     static                          
             __tmplbl_124   0x009d0e    program     static                          
             __tmplbl_123   0x009d0e    program     static                          
             __tmplbl_122   0x009d0e    program     static                          
             __tmplbl_121   0x009d0e    program     static                          
                  __pa_84   0x009d0e    program     static D:\git\70M\App\WebUI\HTTPGetDevInfo.c
             __tmplbl_130   0x009d0e    program     static                          
             __tmplbl_129   0x009d0e    program     static                          
             __tmplbl_128   0x009d0e    program     static                          
                  __pa_85   0x009d16    program     static D:\git\70M\App\WebUI\HTTPGetDevInfo.c
                  __pa_86   0x009d2a    program     static D:\git\70M\App\WebUI\HTTPGetDevInfo.c
                  __pa_87   0x009d34    program     static D:\git\70M\App\WebUI\HTTPGetDevInfo.c
                  __pa_88   0x009d42    program     static D:\git\70M\App\WebUI\HTTPGetDevInfo.c
                  __pa_89   0x009d50    program     static D:\git\70M\App\WebUI\HTTPGetDevInfo.c
                  __pa_90   0x009d5e    program     static D:\git\70M\App\WebUI\HTTPGetDevInfo.c
                  __pa_91   0x009d68    program     static D:\git\70M\App\WebUI\HTTPGetDevInfo.c
                  __pa_92   0x009d72    program     static D:\git\70M\App\WebUI\HTTPGetDevInfo.c
                  __pa_93   0x009d86    program     static D:\git\70M\App\WebUI\HTTPGetDevInfo.c
                  __pa_94   0x009d98    program     static D:\git\70M\App\WebUI\HTTPGetDevInfo.c
                  __pa_95   0x009daa    program     static D:\git\70M\App\WebUI\HTTPGetDevInfo.c
                  __pa_96   0x009db6    program     static D:\git\70M\App\WebUI\HTTPGetDevInfo.c
                  __pa_97   0x009dc0    program     static D:\git\70M\App\WebUI\HTTPGetDevInfo.c
                  __pa_98   0x009dce    program     static D:\git\70M\App\WebUI\HTTPGetDevInfo.c
                  __pa_99   0x009dd8    program     static D:\git\70M\App\WebUI\HTTPGetDevInfo.c
                 __pa_100   0x009de2    program     static D:\git\70M\App\WebUI\HTTPGetDevInfo.c
                 __pa_101   0x009df0    program     static D:\git\70M\App\WebUI\HTTPGetDevInfo.c
                 __pa_102   0x009dfe    program     static D:\git\70M\App\WebUI\HTTPGetDevInfo.c
                 __pa_103   0x009e0c    program     static D:\git\70M\App\WebUI\HTTPGetDevInfo.c
                 __pa_104   0x009e1a    program     static D:\git\70M\App\WebUI\HTTPGetDevInfo.c
                 __pa_105   0x009e22    program     static D:\git\70M\App\WebUI\HTTPGetDevInfo.c
                 __pa_106   0x009e28    program     static D:\git\70M\App\WebUI\HTTPGetDevInfo.c
                 __pa_107   0x009e2e    program     static D:\git\70M\App\WebUI\HTTPGetDevInfo.c
                 __pa_108   0x009e34    program     static D:\git\70M\App\WebUI\HTTPGetDevInfo.c
                 __pa_109   0x009e40    program     static D:\git\70M\App\WebUI\HTTPGetDevInfo.c
                 __pa_110   0x009e46    program     static D:\git\70M\App\WebUI\HTTPGetDevInfo.c
                 __pa_111   0x009e4c    program     static D:\git\70M\App\WebUI\HTTPGetDevInfo.c
                 __pa_112   0x009e54    program     static D:\git\70M\App\WebUI\HTTPGetDevInfo.c
                 __pa_113   0x009e5c    program     static D:\git\70M\App\WebUI\HTTPGetDevInfo.c
                 __pa_114   0x009e6a    program     static D:\git\70M\App\WebUI\HTTPGetDevInfo.c
                 __pa_115   0x009e78    program     static D:\git\70M\App\WebUI\HTTPGetDevInfo.c
                 __pa_116   0x009e86    program     static D:\git\70M\App\WebUI\HTTPGetDevInfo.c
                 __pa_117   0x009e90    program     static D:\git\70M\App\WebUI\HTTPGetDevInfo.c
                 __pa_118   0x009e98    program     static D:\git\70M\App\WebUI\HTTPGetDevInfo.c
                 __pa_119   0x009ea0    program     static D:\git\70M\App\WebUI\HTTPGetDevInfo.c
                 __pa_120   0x009eb4    program     static D:\git\70M\App\WebUI\HTTPGetDevInfo.c
                 __pa_121   0x009ebe    program     static D:\git\70M\App\WebUI\HTTPGetDevInfo.c
                 __pa_122   0x009ecc    program     static D:\git\70M\App\WebUI\HTTPGetDevInfo.c
                 MPFSInit   0x009ed4    program     extern D:\git\70M\Microchip\TCPIP Stack\MPFS2.c
                 MPFSOpen   0x009f0a    program     extern D:\git\70M\Microchip\TCPIP Stack\MPFS2.c
              MPFSOpenROM   0x00a058    program     extern D:\git\70M\Microchip\TCPIP Stack\MPFS2.c
               MPFSOpenID   0x00a19c    program     extern D:\git\70M\Microchip\TCPIP Stack\MPFS2.c
                MPFSClose   0x00a21a    program     extern D:\git\70M\Microchip\TCPIP Stack\MPFS2.c
                  MPFSGet   0x00a232    program     extern D:\git\70M\Microchip\TCPIP Stack\MPFS2.c
             MPFSGetArray   0x00a2d8    program     extern D:\git\70M\Microchip\TCPIP Stack\MPFS2.c
              MPFSGetLong   0x00a368    program     extern D:\git\70M\Microchip\TCPIP Stack\MPFS2.c
                 MPFSSeek   0x00a3a8    program     extern D:\git\70M\Microchip\TCPIP Stack\MPFS2.c
               MPFSFormat   0x00a4c6    program     extern D:\git\70M\Microchip\TCPIP Stack\MPFS2.c
             MPFSPutArray   0x00a548    program     extern D:\git\70M\Microchip\TCPIP Stack\MPFS2.c
               MPFSPutEnd   0x00a5ce    program     extern D:\git\70M\Microchip\TCPIP Stack\MPFS2.c
           _LoadFATRecord   0x00a5ea    program     static D:\git\70M\Microchip\TCPIP Stack\MPFS2.c
         MPFSGetTimestamp   0x00a676    program     extern D:\git\70M\Microchip\TCPIP Stack\MPFS2.c
         MPFSGetMicrotime   0x00a6a8    program     extern D:\git\70M\Microchip\TCPIP Stack\MPFS2.c
             MPFSGetFlags   0x00a6da    program     extern D:\git\70M\Microchip\TCPIP Stack\MPFS2.c
              MPFSGetSize   0x00a706    program     extern D:\git\70M\Microchip\TCPIP Stack\MPFS2.c
          MPFSGetBytesRem   0x00a738    program     extern D:\git\70M\Microchip\TCPIP Stack\MPFS2.c
         MPFSGetStartAddr   0x00a762    program     extern D:\git\70M\Microchip\TCPIP Stack\MPFS2.c
           MPFSGetEndAddr   0x00a79e    program     extern D:\git\70M\Microchip\TCPIP Stack\MPFS2.c
          MPFSGetFilename   0x00a7ec    program     extern D:\git\70M\Microchip\TCPIP Stack\MPFS2.c
          MPFSGetPosition   0x00a872    program     extern D:\git\70M\Microchip\TCPIP Stack\MPFS2.c
                MPFSGetID   0x00a8a4    program     extern D:\git\70M\Microchip\TCPIP Stack\MPFS2.c
                _Validate   0x00a8b6    program     static D:\git\70M\Microchip\TCPIP Stack\MPFS2.c
                   __pa_0   0x00a92e    program     static D:\git\70M\Microchip\TCPIP Stack\MPFS2.c
                   __pa_1   0x00a934    program     static D:\git\70M\Microchip\TCPIP Stack\MPFS2.c
                   __pa_2   0x00a93a    program     static D:\git\70M\Microchip\TCPIP Stack\MPFS2.c
              __tmplbl_61   0x00a93e    program     static                          
              __tmplbl_60   0x00a93e    program     static                          
                   __pa_3   0x00a93e    program     static D:\git\70M\Microchip\TCPIP Stack\MPFS2.c
                   __pa_4   0x00a94a    program     static D:\git\70M\Microchip\TCPIP Stack\MPFS2.c
                   __pa_5   0x00a95c    program     static D:\git\70M\Microchip\TCPIP Stack\MPFS2.c
                   __pa_6   0x00a97e    program     static D:\git\70M\Microchip\TCPIP Stack\MPFS2.c
                   __pa_7   0x00a9c2    program     static D:\git\70M\Microchip\TCPIP Stack\MPFS2.c
                   __pa_8   0x00a9ca    program     static D:\git\70M\Microchip\TCPIP Stack\MPFS2.c
                   __pa_9   0x00a9d0    program     static D:\git\70M\Microchip\TCPIP Stack\MPFS2.c
                  __pa_10   0x00a9da    program     static D:\git\70M\Microchip\TCPIP Stack\MPFS2.c
                  __pa_11   0x00a9f0    program     static D:\git\70M\Microchip\TCPIP Stack\MPFS2.c
                  __pa_12   0x00a9fa    program     static D:\git\70M\Microchip\TCPIP Stack\MPFS2.c
                  __pa_13   0x00aa04    program     static D:\git\70M\Microchip\TCPIP Stack\MPFS2.c
                  __pa_14   0x00aa18    program     static D:\git\70M\Microchip\TCPIP Stack\MPFS2.c
                  __pa_15   0x00aa2a    program     static D:\git\70M\Microchip\TCPIP Stack\MPFS2.c
                  __pa_16   0x00aa50    program     static D:\git\70M\Microchip\TCPIP Stack\MPFS2.c
                  __pa_17   0x00aa6a    program     static D:\git\70M\Microchip\TCPIP Stack\MPFS2.c
                  __pa_18   0x00aa7e    program     static D:\git\70M\Microchip\TCPIP Stack\MPFS2.c
                  __pa_19   0x00aa88    program     static D:\git\70M\Microchip\TCPIP Stack\MPFS2.c
                  __pa_20   0x00aa96    program     static D:\git\70M\Microchip\TCPIP Stack\MPFS2.c
                  __pa_21   0x00aab8    program     static D:\git\70M\Microchip\TCPIP Stack\MPFS2.c
                  __pa_22   0x00aad8    program     static D:\git\70M\Microchip\TCPIP Stack\MPFS2.c
                  __pa_23   0x00aaea    program     static D:\git\70M\Microchip\TCPIP Stack\MPFS2.c
                  __pa_24   0x00aafc    program     static D:\git\70M\Microchip\TCPIP Stack\MPFS2.c
                  __pa_25   0x00ab0a    program     static D:\git\70M\Microchip\TCPIP Stack\MPFS2.c
                  __pa_26   0x00ab26    program     static D:\git\70M\Microchip\TCPIP Stack\MPFS2.c
                  __pa_27   0x00ab40    program     static D:\git\70M\Microchip\TCPIP Stack\MPFS2.c
                  __pa_28   0x00ab5a    program     static D:\git\70M\Microchip\TCPIP Stack\MPFS2.c
                  __pa_29   0x00ab74    program     static D:\git\70M\Microchip\TCPIP Stack\MPFS2.c
                  __pa_30   0x00ab84    program     static D:\git\70M\Microchip\TCPIP Stack\MPFS2.c
                  __pa_31   0x00ab9c    program     static D:\git\70M\Microchip\TCPIP Stack\MPFS2.c
                  __pa_32   0x00abae    program     static D:\git\70M\Microchip\TCPIP Stack\MPFS2.c
                  __pa_33   0x00abc4    program     static D:\git\70M\Microchip\TCPIP Stack\MPFS2.c
                  __pa_34   0x00abd2    program     static D:\git\70M\Microchip\TCPIP Stack\MPFS2.c
                  __pa_35   0x00abe0    program     static D:\git\70M\Microchip\TCPIP Stack\MPFS2.c
                  __pa_36   0x00abee    program     static D:\git\70M\Microchip\TCPIP Stack\MPFS2.c
                  __pa_37   0x00abf8    program     static D:\git\70M\Microchip\TCPIP Stack\MPFS2.c
                  __pa_38   0x00ac0a    program     static D:\git\70M\Microchip\TCPIP Stack\MPFS2.c
                  __pa_39   0x00ac18    program     static D:\git\70M\Microchip\TCPIP Stack\MPFS2.c
                  __pa_40   0x00ac26    program     static D:\git\70M\Microchip\TCPIP Stack\MPFS2.c
                  __pa_41   0x00ac30    program     static D:\git\70M\Microchip\TCPIP Stack\MPFS2.c
                  __pa_42   0x00ac3a    program     static D:\git\70M\Microchip\TCPIP Stack\MPFS2.c
                  __pa_43   0x00ac4c    program     static D:\git\70M\Microchip\TCPIP Stack\MPFS2.c
                  __pa_44   0x00ac74    program     static D:\git\70M\Microchip\TCPIP Stack\MPFS2.c
                  __pa_45   0x00ac7e    program     static D:\git\70M\Microchip\TCPIP Stack\MPFS2.c
                  __pa_46   0x00ac98    program     static D:\git\70M\Microchip\TCPIP Stack\MPFS2.c
                  __pa_47   0x00aca0    program     static D:\git\70M\Microchip\TCPIP Stack\MPFS2.c
                  __pa_48   0x00acb0    program     static D:\git\70M\Microchip\TCPIP Stack\MPFS2.c
                  __pa_49   0x00acc8    program     static D:\git\70M\Microchip\TCPIP Stack\MPFS2.c
                  __pa_50   0x00acd6    program     static D:\git\70M\Microchip\TCPIP Stack\MPFS2.c
                  __pa_51   0x00acdc    program     static D:\git\70M\Microchip\TCPIP Stack\MPFS2.c
                  __pa_52   0x00acf8    program     static D:\git\70M\Microchip\TCPIP Stack\MPFS2.c
                  __pa_53   0x00ad08    program     static D:\git\70M\Microchip\TCPIP Stack\MPFS2.c
                  __pa_54   0x00ad20    program     static D:\git\70M\Microchip\TCPIP Stack\MPFS2.c
                  __pa_55   0x00ad2e    program     static D:\git\70M\Microchip\TCPIP Stack\MPFS2.c
                  __pa_56   0x00ad42    program     static D:\git\70M\Microchip\TCPIP Stack\MPFS2.c
                  __pa_57   0x00ad50    program     static D:\git\70M\Microchip\TCPIP Stack\MPFS2.c
                  __pa_58   0x00ad62    program     static D:\git\70M\Microchip\TCPIP Stack\MPFS2.c
                  __pa_59   0x00ad6c    program     static D:\git\70M\Microchip\TCPIP Stack\MPFS2.c
                  __pa_60   0x00ad78    program     static D:\git\70M\Microchip\TCPIP Stack\MPFS2.c
                  __pa_61   0x00ad86    program     static D:\git\70M\Microchip\TCPIP Stack\MPFS2.c
                  __pa_62   0x00ad94    program     static D:\git\70M\Microchip\TCPIP Stack\MPFS2.c
                  __pa_63   0x00ad9c    program     static D:\git\70M\Microchip\TCPIP Stack\MPFS2.c
                  __pa_64   0x00ada6    program     static D:\git\70M\Microchip\TCPIP Stack\MPFS2.c
                  __pa_65   0x00adac    program     static D:\git\70M\Microchip\TCPIP Stack\MPFS2.c
                  __pa_66   0x00adc6    program     static D:\git\70M\Microchip\TCPIP Stack\MPFS2.c
                  __pa_67   0x00add4    program     static D:\git\70M\Microchip\TCPIP Stack\MPFS2.c
                  __pa_68   0x00adde    program     static D:\git\70M\Microchip\TCPIP Stack\MPFS2.c
    HTTPPrint_DeviceModel   0x00ade6    program     extern D:\git\70M\App\WebUI\HTTPPrint.c
   HTTPPrint_DeviceSerial   0x00adf2    program     extern D:\git\70M\App\WebUI\HTTPPrint.c
    HTTPPrint_dhcp_status   0x00adfe    program     extern D:\git\70M\App\WebUI\HTTPPrint.c
              HTTPPrintIP   0x00ae26    program     extern D:\git\70M\App\WebUI\HTTPPrint.c
            HTTPPrint_MIP   0x00ae82    program     extern D:\git\70M\App\WebUI\HTTPPrint.c
      HTTPPrint_static_ip   0x00ae96    program     extern D:\git\70M\App\WebUI\HTTPPrint.c
      HTTPPrint_config_ip   0x00aeb6    program     extern D:\git\70M\App\WebUI\HTTPPrint.c
  HTTPPrint_config_subnet   0x00aebe    program     extern D:\git\70M\App\WebUI\HTTPPrint.c
      HTTPPrint_config_gw   0x00aed2    program     extern D:\git\70M\App\WebUI\HTTPPrint.c
    HTTPPrint_Devicefwver   0x00aee6    program     extern D:\git\70M\App\WebUI\HTTPPrint.c
                 GetPower   0x00af06    program     extern D:\git\70M\App\WebUI\HTTPPrint.c
            GetWORDString   0x00af60    program     extern D:\git\70M\App\WebUI\HTTPPrint.c
           GetDWORDString   0x00afee    program     extern D:\git\70M\App\WebUI\HTTPPrint.c
HTTPPrint_converterarffreq   0x00b1ea    program     extern D:\git\70M\App\WebUI\HTTPPrint.c
HTTPPrint_converterbrffreq   0x00b222    program     extern D:\git\70M\App\WebUI\HTTPPrint.c
HTTPPrint_converteraatten   0x00b25a    program     extern D:\git\70M\App\WebUI\HTTPPrint.c
HTTPPrint_converterbatten   0x00b292    program     extern D:\git\70M\App\WebUI\HTTPPrint.c
         HTTPPrint_swmode   0x00b2ca    program     extern D:\git\70M\App\WebUI\HTTPPrint.c
   HTTPPrint_converteralo   0x00b2cc    program     extern D:\git\70M\App\WebUI\HTTPPrint.c
   HTTPPrint_outputpowera   0x00b2ec    program     extern D:\git\70M\App\WebUI\HTTPPrint.c
      HTTPPrint_setpowera   0x00b30c    program     extern D:\git\70M\App\WebUI\HTTPPrint.c
           HTTPPrint_ALCa   0x00b32c    program     extern D:\git\70M\App\WebUI\HTTPPrint.c
          HTTPPrint_Mutea   0x00b33a    program     extern D:\git\70M\App\WebUI\HTTPPrint.c
   HTTPPrint_converterblo   0x00b358    program     extern D:\git\70M\App\WebUI\HTTPPrint.c
   HTTPPrint_outputpowerb   0x00b376    program     extern D:\git\70M\App\WebUI\HTTPPrint.c
      HTTPPrint_setpowerb   0x00b394    program     extern D:\git\70M\App\WebUI\HTTPPrint.c
           HTTPPrint_ALCb   0x00b3b2    program     extern D:\git\70M\App\WebUI\HTTPPrint.c
          HTTPPrint_Muteb   0x00b3c0    program     extern D:\git\70M\App\WebUI\HTTPPrint.c
        HTTPPrint_24Vctrl   0x00b3de    program     extern D:\git\70M\App\WebUI\HTTPPrint.c
        HTTPPrint_18Vctrl   0x00b3ec    program     extern D:\git\70M\App\WebUI\HTTPPrint.c
HTTPPrint_config_dhcpchecked   0x00b3fa    program     extern D:\git\70M\App\WebUI\HTTPPrint.c
   HTTPPrint_ALCaSelected   0x00b420    program     extern D:\git\70M\App\WebUI\HTTPPrint.c
  HTTPPrint_MuteaSelected   0x00b438    program     extern D:\git\70M\App\WebUI\HTTPPrint.c
   HTTPPrint_ALCbSelected   0x00b450    program     extern D:\git\70M\App\WebUI\HTTPPrint.c
  HTTPPrint_MutebSelected   0x00b468    program     extern D:\git\70M\App\WebUI\HTTPPrint.c
  HTTPPrint_DC18VSelected   0x00b480    program     extern D:\git\70M\App\WebUI\HTTPPrint.c
  HTTPPrint_DC24VSelected   0x00b498    program     extern D:\git\70M\App\WebUI\HTTPPrint.c
 HTTPPrint_LNBREFSelected   0x00b4b0    program     extern D:\git\70M\App\WebUI\HTTPPrint.c
 HTTPPrint_BUCREFSelected   0x00b4c8    program     extern D:\git\70M\App\WebUI\HTTPPrint.c
         HTTPPrint_BUCREF   0x00b4e0    program     extern D:\git\70M\App\WebUI\HTTPPrint.c
         HTTPPrint_LNBREF   0x00b4ee    program     extern D:\git\70M\App\WebUI\HTTPPrint.c
         HTTPPrint_EXTREF   0x00b4fc    program     extern D:\git\70M\App\WebUI\HTTPPrint.c
     HTTPPrint_BUCCurrent   0x00b51a    program     extern D:\git\70M\App\WebUI\HTTPPrint.c
     HTTPPrint_LNBCurrent   0x00b544    program     extern D:\git\70M\App\WebUI\HTTPPrint.c
      HTTPPrint_rdi2cdata   0x00b56e    program     extern D:\git\70M\App\WebUI\HTTPPrint.c
      HTTPPrint_wri2cdata   0x00b59e    program     extern D:\git\70M\App\WebUI\HTTPPrint.c
   HTTPPrint_setpasscolor   0x00b5ce    program     extern D:\git\70M\App\WebUI\HTTPPrint.c
        HTTPPrint_setpass   0x00b60e    program     extern D:\git\70M\App\WebUI\HTTPPrint.c
HTTPPrint_converteraalarm   0x00b6aa    program     extern D:\git\70M\App\WebUI\HTTPPrint.c
HTTPPrint_converterbalarm   0x00b6c0    program     extern D:\git\70M\App\WebUI\HTTPPrint.c
        HTTPPrint_BUCIAlm   0x00b6d6    program     extern D:\git\70M\App\WebUI\HTTPPrint.c
        HTTPPrint_LNBIAlm   0x00b6f4    program     extern D:\git\70M\App\WebUI\HTTPPrint.c
   HTTPPrint_ClearBUCIAlm   0x00b712    program     extern D:\git\70M\App\WebUI\HTTPPrint.c
   HTTPPrint_ClearLNBIAlm   0x00b718    program     extern D:\git\70M\App\WebUI\HTTPPrint.c
            HTTPPrint_led   0x00b71e    program     extern D:\git\70M\App\WebUI\HTTPPrint.c
            HTTPPrint_ned   0x00b782    program     extern D:\git\70M\App\WebUI\HTTPPrint.c
            HTTPPrint_maf   0x00b7e6    program     extern D:\git\70M\App\WebUI\HTTPPrint.c
            HTTPPrint_mas   0x00b800    program     extern D:\git\70M\App\WebUI\HTTPPrint.c
     HTTPPrint_config_mac   0x00b81a    program     extern D:\git\70M\App\WebUI\HTTPPrint.c
      HTTPPrint_read_comm   0x00b876    program     extern D:\git\70M\App\WebUI\HTTPPrint.c
     HTTPPrint_write_comm   0x00b87a    program     extern D:\git\70M\App\WebUI\HTTPPrint.c
                   __pa_0   0x00b87e    program     static D:\git\70M\App\WebUI\HTTPPrint.c
                   __pa_1   0x00b89c    program     static D:\git\70M\App\WebUI\HTTPPrint.c
                   __pa_2   0x00b8a4    program     static D:\git\70M\App\WebUI\HTTPPrint.c
                   __pa_3   0x00b8be    program     static D:\git\70M\App\WebUI\HTTPPrint.c
                   __pa_4   0x00b8ca    program     static D:\git\70M\App\WebUI\HTTPPrint.c
                   __pa_5   0x00b8da    program     static D:\git\70M\App\WebUI\HTTPPrint.c
                   __pa_6   0x00b8ea    program     static D:\git\70M\App\WebUI\HTTPPrint.c
              __tmplbl_67   0x00b8f4    program     static                          
              __tmplbl_60   0x00b8f4    program     static                          
              __tmplbl_68   0x00b8f4    program     static                          
                   __pa_7   0x00b8f4    program     static D:\git\70M\App\WebUI\HTTPPrint.c
                   __pa_8   0x00b900    program     static D:\git\70M\App\WebUI\HTTPPrint.c
                   __pa_9   0x00b906    program     static D:\git\70M\App\WebUI\HTTPPrint.c
                  __pa_10   0x00b91c    program     static D:\git\70M\App\WebUI\HTTPPrint.c
                  __pa_11   0x00b928    program     static D:\git\70M\App\WebUI\HTTPPrint.c
                  __pa_12   0x00b93a    program     static D:\git\70M\App\WebUI\HTTPPrint.c
                  __pa_13   0x00b94c    program     static D:\git\70M\App\WebUI\HTTPPrint.c
                  __pa_14   0x00b956    program     static D:\git\70M\App\WebUI\HTTPPrint.c
                  __pa_15   0x00b95e    program     static D:\git\70M\App\WebUI\HTTPPrint.c
                  __pa_16   0x00b974    program     static D:\git\70M\App\WebUI\HTTPPrint.c
                  __pa_17   0x00b98c    program     static D:\git\70M\App\WebUI\HTTPPrint.c
                  __pa_18   0x00b992    program     static D:\git\70M\App\WebUI\HTTPPrint.c
                  __pa_19   0x00b9a2    program     static D:\git\70M\App\WebUI\HTTPPrint.c
              __tmplbl_64   0x00b9a2    program     static                          
              __tmplbl_65   0x00b9a2    program     static                          
              __tmplbl_63   0x00b9a2    program     static                          
              __tmplbl_61   0x00b9a2    program     static                          
              __tmplbl_66   0x00b9a2    program     static                          
                  __pa_20   0x00b9a8    program     static D:\git\70M\App\WebUI\HTTPPrint.c
                  __pa_21   0x00b9b6    program     static D:\git\70M\App\WebUI\HTTPPrint.c
                  __pa_22   0x00b9c2    program     static D:\git\70M\App\WebUI\HTTPPrint.c
                  __pa_23   0x00b9ce    program     static D:\git\70M\App\WebUI\HTTPPrint.c
                  __pa_24   0x00b9e8    program     static D:\git\70M\App\WebUI\HTTPPrint.c
                  __pa_25   0x00b9f4    program     static D:\git\70M\App\WebUI\HTTPPrint.c
                  __pa_26   0x00ba00    program     static D:\git\70M\App\WebUI\HTTPPrint.c
                  __pa_27   0x00ba0a    program     static D:\git\70M\App\WebUI\HTTPPrint.c
                  __pa_28   0x00ba16    program     static D:\git\70M\App\WebUI\HTTPPrint.c
                  __pa_29   0x00ba1c    program     static D:\git\70M\App\WebUI\HTTPPrint.c
                  __pa_30   0x00ba2a    program     static D:\git\70M\App\WebUI\HTTPPrint.c
                  __pa_31   0x00ba3e    program     static D:\git\70M\App\WebUI\HTTPPrint.c
                  __pa_32   0x00ba50    program     static D:\git\70M\App\WebUI\HTTPPrint.c
                  __pa_33   0x00ba62    program     static D:\git\70M\App\WebUI\HTTPPrint.c
                  __pa_34   0x00ba74    program     static D:\git\70M\App\WebUI\HTTPPrint.c
                  __pa_35   0x00ba86    program     static D:\git\70M\App\WebUI\HTTPPrint.c
                  __pa_36   0x00ba92    program     static D:\git\70M\App\WebUI\HTTPPrint.c
                  __pa_37   0x00ba9c    program     static D:\git\70M\App\WebUI\HTTPPrint.c
                  __pa_38   0x00baa2    program     static D:\git\70M\App\WebUI\HTTPPrint.c
                  __pa_39   0x00bab2    program     static D:\git\70M\App\WebUI\HTTPPrint.c
                  __pa_40   0x00bac2    program     static D:\git\70M\App\WebUI\HTTPPrint.c
                  __pa_41   0x00bad2    program     static D:\git\70M\App\WebUI\HTTPPrint.c
                  __pa_42   0x00bae2    program     static D:\git\70M\App\WebUI\HTTPPrint.c
                  __pa_43   0x00baf0    program     static D:\git\70M\App\WebUI\HTTPPrint.c
                  __pa_44   0x00bb04    program     static D:\git\70M\App\WebUI\HTTPPrint.c
                  __pa_45   0x00bb12    program     static D:\git\70M\App\WebUI\HTTPPrint.c
                  __pa_46   0x00bb16    program     static D:\git\70M\App\WebUI\HTTPPrint.c
              __tmplbl_58   0x00bb16    program     static                          
              __tmplbl_69   0x00bb16    program     static                          
                  __pa_47   0x00bb1a    program     static D:\git\70M\App\WebUI\HTTPPrint.c
                  __pa_48   0x00bb1e    program     static D:\git\70M\App\WebUI\HTTPPrint.c
                  __pa_49   0x00bb26    program     static D:\git\70M\App\WebUI\HTTPPrint.c
                  __pa_50   0x00bb38    program     static D:\git\70M\App\WebUI\HTTPPrint.c
                  __pa_51   0x00bb3e    program     static D:\git\70M\App\WebUI\HTTPPrint.c
                  __pa_52   0x00bb48    program     static D:\git\70M\App\WebUI\HTTPPrint.c
                  __pa_53   0x00bb56    program     static D:\git\70M\App\WebUI\HTTPPrint.c
                  __pa_54   0x00bb64    program     static D:\git\70M\App\WebUI\HTTPPrint.c
                  __pa_55   0x00bb74    program     static D:\git\70M\App\WebUI\HTTPPrint.c
                  __pa_56   0x00bb7a    program     static D:\git\70M\App\WebUI\HTTPPrint.c
                  __pa_57   0x00bb8a    program     static D:\git\70M\App\WebUI\HTTPPrint.c
                  __pa_58   0x00bb98    program     static D:\git\70M\App\WebUI\HTTPPrint.c
                  __pa_59   0x00bba6    program     static D:\git\70M\App\WebUI\HTTPPrint.c
                  __pa_60   0x00bbae    program     static D:\git\70M\App\WebUI\HTTPPrint.c
                  __pa_61   0x00bbb4    program     static D:\git\70M\App\WebUI\HTTPPrint.c
                  __pa_62   0x00bbc4    program     static D:\git\70M\App\WebUI\HTTPPrint.c
                  __pa_63   0x00bbd4    program     static D:\git\70M\App\WebUI\HTTPPrint.c
                  __pa_64   0x00bbde    program     static D:\git\70M\App\WebUI\HTTPPrint.c
                  __pa_65   0x00bbe6    program     static D:\git\70M\App\WebUI\HTTPPrint.c
                  __pa_66   0x00bbf2    program     static D:\git\70M\App\WebUI\HTTPPrint.c
                  __pa_67   0x00bbfc    program     static D:\git\70M\App\WebUI\HTTPPrint.c
                  __pa_68   0x00bc06    program     static D:\git\70M\App\WebUI\HTTPPrint.c
                  __pa_69   0x00bc10    program     static D:\git\70M\App\WebUI\HTTPPrint.c
                  __pa_70   0x00bc28    program     static D:\git\70M\App\WebUI\HTTPPrint.c
              __tmplbl_55   0x00bc3e    program     static                          
              __tmplbl_56   0x00bc3e    program     static                          
                  __pa_71   0x00bc3e    program     static D:\git\70M\App\WebUI\HTTPPrint.c
                  __pa_72   0x00bc44    program     static D:\git\70M\App\WebUI\HTTPPrint.c
                  __pa_73   0x00bc4c    program     static D:\git\70M\App\WebUI\HTTPPrint.c
                  __pa_74   0x00bc56    program     static D:\git\70M\App\WebUI\HTTPPrint.c
                  __pa_75   0x00bc5e    program     static D:\git\70M\App\WebUI\HTTPPrint.c
                  __pa_76   0x00bc66    program     static D:\git\70M\App\WebUI\HTTPPrint.c
                  __pa_77   0x00bc78    program     static D:\git\70M\App\WebUI\HTTPPrint.c
                  __pa_78   0x00bc8a    program     static D:\git\70M\App\WebUI\HTTPPrint.c
                  __pa_79   0x00bc94    program     static D:\git\70M\App\WebUI\HTTPPrint.c
                  __pa_80   0x00bc9a    program     static D:\git\70M\App\WebUI\HTTPPrint.c
                  __pa_81   0x00bca8    program     static D:\git\70M\App\WebUI\HTTPPrint.c
                  __pa_82   0x00bcb4    program     static D:\git\70M\App\WebUI\HTTPPrint.c
                  __pa_83   0x00bcba    program     static D:\git\70M\App\WebUI\HTTPPrint.c
         Util_u16ByteSwap   0x00bcc4    program     extern D:\git\70M\SysLib\util.c 
        Util_u16DWORDSwap   0x00bd50    program     extern D:\git\70M\SysLib\util.c 
      Util_u8String2int16   0x00bf38    program     extern D:\git\70M\SysLib\util.c 
      Util_u8String2DWORD   0x00c004    program     extern D:\git\70M\SysLib\util.c 
      Util_u8Float2String   0x00c09c    program     extern D:\git\70M\SysLib\util.c 
      Util_u8String2Float   0x00c156    program     extern D:\git\70M\SysLib\util.c 
     Util_u8String2NFloat   0x00c228    program     extern D:\git\70M\SysLib\util.c 
                ASC2toHEX   0x00c314    program     extern D:\git\70M\SysLib\util.c 
                HEXto2ASC   0x00c38c    program     extern D:\git\70M\SysLib\util.c 
                  DelayMS   0x00c3d4    program     extern D:\git\70M\SysLib\util.c 
                  Hex2Int   0x00c404    program     extern D:\git\70M\SysLib\util.c 
                  Int2Hex   0x00c446    program     extern D:\git\70M\SysLib\util.c 
                    atof5   0x00c4ae    program     extern D:\git\70M\SysLib\util.c 
                    atof1   0x00c544    program     extern D:\git\70M\SysLib\util.c 
            SaveAppConfig   0x00c5de    program     extern D:\git\70M\SysLib\util.c 
              SaveSetting   0x00c602    program     extern D:\git\70M\SysLib\util.c 
           DisplayIPValue   0x00c650    program     extern D:\git\70M\SysLib\util.c 
                   __pa_0   0x00c6d4    program     static D:\git\70M\SysLib\util.c 
                   __pa_1   0x00c6de    program     static D:\git\70M\SysLib\util.c 
                   __pa_2   0x00c6e4    program     static D:\git\70M\SysLib\util.c 
              __tmplbl_24   0x00c6f0    program     static                          
                   __pa_3   0x00c6f0    program     static D:\git\70M\SysLib\util.c 
                   __pa_4   0x00c6fc    program     static D:\git\70M\SysLib\util.c 
                   __pa_5   0x00c716    program     static D:\git\70M\SysLib\util.c 
                   __pa_6   0x00c720    program     static D:\git\70M\SysLib\util.c 
                   __pa_7   0x00c754    program     static D:\git\70M\SysLib\util.c 
                   __pa_8   0x00c75c    program     static D:\git\70M\SysLib\util.c 
                   __pa_9   0x00c78e    program     static D:\git\70M\SysLib\util.c 
                  __pa_10   0x00c794    program     static D:\git\70M\SysLib\util.c 
                  __pa_11   0x00c7a6    program     static D:\git\70M\SysLib\util.c 
                  __pa_12   0x00c7b2    program     static D:\git\70M\SysLib\util.c 
                  __pa_13   0x00c7c0    program     static D:\git\70M\SysLib\util.c 
                  __pa_14   0x00c7da    program     static D:\git\70M\SysLib\util.c 
                  __pa_15   0x00c7f4    program     static D:\git\70M\SysLib\util.c 
                  __pa_16   0x00c7fe    program     static D:\git\70M\SysLib\util.c 
                  __pa_17   0x00c814    program     static D:\git\70M\SysLib\util.c 
                  __pa_18   0x00c828    program     static D:\git\70M\SysLib\util.c 
                  __pa_19   0x00c83c    program     static D:\git\70M\SysLib\util.c 
                  __pa_20   0x00c844    program     static D:\git\70M\SysLib\util.c 
                  __pa_21   0x00c856    program     static D:\git\70M\SysLib\util.c 
                  __pa_22   0x00c864    program     static D:\git\70M\SysLib\util.c 
                  __pa_23   0x00c87e    program     static D:\git\70M\SysLib\util.c 
                  __pa_24   0x00c88a    program     static D:\git\70M\SysLib\util.c 
                  __pa_25   0x00c896    program     static D:\git\70M\SysLib\util.c 
                  __pa_26   0x00c8a4    program     static D:\git\70M\SysLib\util.c 
                  __pa_27   0x00c8b2    program     static D:\git\70M\SysLib\util.c 
                  __pa_28   0x00c8bc    program     static D:\git\70M\SysLib\util.c 
                  __pa_29   0x00c8d0    program     static D:\git\70M\SysLib\util.c 
                  __pa_30   0x00c8dc    program     static D:\git\70M\SysLib\util.c 
                  __pa_31   0x00c8e4    program     static D:\git\70M\SysLib\util.c 
                  __pa_32   0x00c8f0    program     static D:\git\70M\SysLib\util.c 
                  __pa_33   0x00c8fa    program     static D:\git\70M\SysLib\util.c 
                  __pa_34   0x00c90a    program     static D:\git\70M\SysLib\util.c 
                  __pa_35   0x00c918    program     static D:\git\70M\SysLib\util.c 
                  __pa_36   0x00c926    program     static D:\git\70M\SysLib\util.c 
                  __pa_37   0x00c934    program     static D:\git\70M\SysLib\util.c 
                  __pa_38   0x00c93e    program     static D:\git\70M\SysLib\util.c 
                  __pa_39   0x00c948    program     static D:\git\70M\SysLib\util.c 
                  __pa_40   0x00c952    program     static D:\git\70M\SysLib\util.c 
                  __pa_41   0x00c95c    program     static D:\git\70M\SysLib\util.c 
                  __pa_42   0x00c980    program     static D:\git\70M\SysLib\util.c 
                  __pa_43   0x00c988    program     static D:\git\70M\SysLib\util.c 
                  __pa_44   0x00c98e    program     static D:\git\70M\SysLib\util.c 
                  __pa_45   0x00c9a0    program     static D:\git\70M\SysLib\util.c 
                  __pa_46   0x00c9ae    program     static D:\git\70M\SysLib\util.c 
                  __pa_47   0x00c9bc    program     static D:\git\70M\SysLib\util.c 
                  __pa_48   0x00c9c6    program     static D:\git\70M\SysLib\util.c 
                  __pa_49   0x00c9d8    program     static D:\git\70M\SysLib\util.c 
                  __pa_50   0x00c9e0    program     static D:\git\70M\SysLib\util.c 
                  __pa_51   0x00c9ea    program     static D:\git\70M\SysLib\util.c 
                  __pa_52   0x00c9f0    program     static D:\git\70M\SysLib\util.c 
                  __pa_53   0x00c9fe    program     static D:\git\70M\SysLib\util.c 
                  __pa_54   0x00ca0c    program     static D:\git\70M\SysLib\util.c 
                  __pa_55   0x00ca18    program     static D:\git\70M\SysLib\util.c 
                  __pa_56   0x00ca22    program     static D:\git\70M\SysLib\util.c 
                  __pa_57   0x00ca28    program     static D:\git\70M\SysLib\util.c 
                  __pa_58   0x00ca30    program     static D:\git\70M\SysLib\util.c 
                  __pa_59   0x00ca3a    program     static D:\git\70M\SysLib\util.c 
                  __pa_60   0x00ca44    program     static D:\git\70M\SysLib\util.c 
                  __pa_61   0x00ca4e    program     static D:\git\70M\SysLib\util.c 
                  __pa_62   0x00ca6c    program     static D:\git\70M\SysLib\util.c 
                  __pa_63   0x00ca8a    program     static D:\git\70M\SysLib\util.c 
                  __pa_64   0x00ca9c    program     static D:\git\70M\SysLib\util.c 
                  __pa_65   0x00caae    program     static D:\git\70M\SysLib\util.c 
                  __pa_66   0x00cabc    program     static D:\git\70M\SysLib\util.c 
      GenerateRandomDWORD   0x00cac2    program     extern D:\git\70M\Microchip\TCPIP Stack\Helpers.c
              __tmplbl_39   0x00cb3a    program     static                          
        ___while_lbl00001   0x00cb52    program     static                          
        ___while_lbl00003   0x00cb5a    program     static                          
        ___while_lbl00004   0x00cb5e    program     static                          
               __tmplbl_0   0x00cbc2    program     static                          
              __tmplbl_40   0x00cbde    program     static                          
              __tmplbl_41   0x00cc1e    program     static                          
              __tmplbl_42   0x00cc82    program     static                          
           ___if_lbl00005   0x00ccc4    program     static                          
           ___if_lbl00006   0x00cce2    program     static                          
           ___if_lbl00007   0x00cd7c    program     static                          
           ___if_lbl00008   0x00cd82    program     static                          
        ___while_lbl00002   0x00cd84    program     static                          
       ___return_lbl00000   0x00cdcc    program     static                          
        StringToIPAddress   0x00cde4    program     extern D:\git\70M\Microchip\TCPIP Stack\Helpers.c
     ROMStringToIPAddress   0x00ceb4    program     extern D:\git\70M\Microchip\TCPIP Stack\Helpers.c
             Base64Decode   0x00cf96    program     extern D:\git\70M\Microchip\TCPIP Stack\Helpers.c
                    uitoa   0x00d106    program     extern D:\git\70M\Microchip\TCPIP Stack\Helpers.c
                  hexatob   0x00d1fc    program     extern D:\git\70M\Microchip\TCPIP Stack\Helpers.c
             btohexa_high   0x00d246    program     extern D:\git\70M\Microchip\TCPIP Stack\Helpers.c
              btohexa_low   0x00d26e    program     extern D:\git\70M\Microchip\TCPIP Stack\Helpers.c
           stricmppgm2ram   0x00d292    program     extern D:\git\70M\Microchip\TCPIP Stack\Helpers.c
                    swaps   0x00d342    program     extern D:\git\70M\Microchip\TCPIP Stack\Helpers.c
                    swapl   0x00d380    program     extern D:\git\70M\Microchip\TCPIP Stack\Helpers.c
           CalcIPChecksum   0x00d3ce    program     extern D:\git\70M\Microchip\TCPIP Stack\Helpers.c
          leftRotateDWORD   0x00d4ea    program     extern D:\git\70M\Microchip\TCPIP Stack\Helpers.c
          ___for_lbl00124   0x00d51c    program     static                          
          ___for_lbl00122   0x00d53a    program     static                          
          ___for_lbl00123   0x00d540    program     static                          
          ___for_lbl00127   0x00d540    program     static                          
          ___for_lbl00125   0x00d554    program     static                          
          ___for_lbl00126   0x00d558    program     static                          
       ___return_lbl00121   0x00d56a    program     static                          
        FormatNetBIOSName   0x00d57a    program     extern D:\git\70M\Microchip\TCPIP Stack\Helpers.c
                  strnchr   0x00d5c2    program     extern D:\git\70M\Microchip\TCPIP Stack\Helpers.c
                   __pa_0   0x00d602    program     static D:\git\70M\Microchip\TCPIP Stack\Helpers.c
                   __pa_1   0x00d614    program     static D:\git\70M\Microchip\TCPIP Stack\Helpers.c
                   __pa_2   0x00d630    program     static D:\git\70M\Microchip\TCPIP Stack\Helpers.c
                   __pa_3   0x00d63c    program     static D:\git\70M\Microchip\TCPIP Stack\Helpers.c
                   __pa_4   0x00d65e    program     static D:\git\70M\Microchip\TCPIP Stack\Helpers.c
                   __pa_5   0x00d66c    program     static D:\git\70M\Microchip\TCPIP Stack\Helpers.c
                   __pa_6   0x00d692    program     static D:\git\70M\Microchip\TCPIP Stack\Helpers.c
                   __pa_7   0x00d6b4    program     static D:\git\70M\Microchip\TCPIP Stack\Helpers.c
                   __pa_8   0x00d6c6    program     static D:\git\70M\Microchip\TCPIP Stack\Helpers.c
                   __pa_9   0x00d6d0    program     static D:\git\70M\Microchip\TCPIP Stack\Helpers.c
                  __pa_10   0x00d6ea    program     static D:\git\70M\Microchip\TCPIP Stack\Helpers.c
                  __pa_11   0x00d704    program     static D:\git\70M\Microchip\TCPIP Stack\Helpers.c
                  __pa_12   0x00d714    program     static D:\git\70M\Microchip\TCPIP Stack\Helpers.c
                  __pa_13   0x00d724    program     static D:\git\70M\Microchip\TCPIP Stack\Helpers.c
                  __pa_14   0x00d73c    program     static D:\git\70M\Microchip\TCPIP Stack\Helpers.c
                  __pa_15   0x00d752    program     static D:\git\70M\Microchip\TCPIP Stack\Helpers.c
                  __pa_16   0x00d75c    program     static D:\git\70M\Microchip\TCPIP Stack\Helpers.c
                  __pa_17   0x00d76e    program     static D:\git\70M\Microchip\TCPIP Stack\Helpers.c
                  __pa_18   0x00d77e    program     static D:\git\70M\Microchip\TCPIP Stack\Helpers.c
                  __pa_19   0x00d78e    program     static D:\git\70M\Microchip\TCPIP Stack\Helpers.c
                  __pa_20   0x00d79e    program     static D:\git\70M\Microchip\TCPIP Stack\Helpers.c
                  __pa_21   0x00d7a6    program     static D:\git\70M\Microchip\TCPIP Stack\Helpers.c
                  __pa_22   0x00d7b4    program     static D:\git\70M\Microchip\TCPIP Stack\Helpers.c
                  __pa_23   0x00d7c2    program     static D:\git\70M\Microchip\TCPIP Stack\Helpers.c
                  __pa_24   0x00d7d6    program     static D:\git\70M\Microchip\TCPIP Stack\Helpers.c
                  __pa_25   0x00d7e0    program     static D:\git\70M\Microchip\TCPIP Stack\Helpers.c
                  __pa_26   0x00d7ee    program     static D:\git\70M\Microchip\TCPIP Stack\Helpers.c
                  __pa_27   0x00d7fc    program     static D:\git\70M\Microchip\TCPIP Stack\Helpers.c
                  __pa_28   0x00d80c    program     static D:\git\70M\Microchip\TCPIP Stack\Helpers.c
                  __pa_29   0x00d81a    program     static D:\git\70M\Microchip\TCPIP Stack\Helpers.c
                  __pa_30   0x00d824    program     static D:\git\70M\Microchip\TCPIP Stack\Helpers.c
                  __pa_31   0x00d82c    program     static D:\git\70M\Microchip\TCPIP Stack\Helpers.c
            s_put_n_chars   0x00d83a    program     static C:\Program Files\mcc18\src\traditional\stdclib\vfprintf.c
                 vfprintf   0x00d866    program     extern C:\Program Files\mcc18\src\traditional\stdclib\vfprintf.c
              __tmplbl_85   0x00d890    program     static                          
              __tmplbl_44   0x00e13e    program     static                          
              __tmplbl_43   0x00e158    program     static                          
                   __pa_0   0x00e17a    program     static C:\Program Files\mcc18\src\traditional\stdclib\vfprintf.c
                   __pa_1   0x00e182    program     static C:\Program Files\mcc18\src\traditional\stdclib\vfprintf.c
                   __pa_2   0x00e18c    program     static C:\Program Files\mcc18\src\traditional\stdclib\vfprintf.c
                   __pa_3   0x00e196    program     static C:\Program Files\mcc18\src\traditional\stdclib\vfprintf.c
                   __pa_4   0x00e1ae    program     static C:\Program Files\mcc18\src\traditional\stdclib\vfprintf.c
                   __pa_5   0x00e1c2    program     static C:\Program Files\mcc18\src\traditional\stdclib\vfprintf.c
                   __pa_6   0x00e1de    program     static C:\Program Files\mcc18\src\traditional\stdclib\vfprintf.c
                   __pa_7   0x00e1e8    program     static C:\Program Files\mcc18\src\traditional\stdclib\vfprintf.c
                   __pa_8   0x00e1f4    program     static C:\Program Files\mcc18\src\traditional\stdclib\vfprintf.c
                   __pa_9   0x00e216    program     static C:\Program Files\mcc18\src\traditional\stdclib\vfprintf.c
                  __pa_10   0x00e236    program     static C:\Program Files\mcc18\src\traditional\stdclib\vfprintf.c
                  __pa_11   0x00e244    program     static C:\Program Files\mcc18\src\traditional\stdclib\vfprintf.c
                  __pa_12   0x00e25a    program     static C:\Program Files\mcc18\src\traditional\stdclib\vfprintf.c
                  __pa_13   0x00e274    program     static C:\Program Files\mcc18\src\traditional\stdclib\vfprintf.c
                  __pa_14   0x00e28c    program     static C:\Program Files\mcc18\src\traditional\stdclib\vfprintf.c
                  __pa_15   0x00e29c    program     static C:\Program Files\mcc18\src\traditional\stdclib\vfprintf.c
                  __pa_16   0x00e2b2    program     static C:\Program Files\mcc18\src\traditional\stdclib\vfprintf.c
                  __pa_17   0x00e2c4    program     static C:\Program Files\mcc18\src\traditional\stdclib\vfprintf.c
                  __pa_18   0x00e2d6    program     static C:\Program Files\mcc18\src\traditional\stdclib\vfprintf.c
                  __pa_19   0x00e2e0    program     static C:\Program Files\mcc18\src\traditional\stdclib\vfprintf.c
                  __pa_20   0x00e2f0    program     static C:\Program Files\mcc18\src\traditional\stdclib\vfprintf.c
                  __pa_21   0x00e300    program     static C:\Program Files\mcc18\src\traditional\stdclib\vfprintf.c
                  __pa_22   0x00e310    program     static C:\Program Files\mcc18\src\traditional\stdclib\vfprintf.c
              __tmplbl_42   0x00e310    program     static                          
                  __pa_23   0x00e31c    program     static C:\Program Files\mcc18\src\traditional\stdclib\vfprintf.c
                  __pa_24   0x00e32a    program     static C:\Program Files\mcc18\src\traditional\stdclib\vfprintf.c
                  __pa_25   0x00e332    program     static C:\Program Files\mcc18\src\traditional\stdclib\vfprintf.c
                  __pa_26   0x00e33c    program     static C:\Program Files\mcc18\src\traditional\stdclib\vfprintf.c
                  __pa_27   0x00e346    program     static C:\Program Files\mcc18\src\traditional\stdclib\vfprintf.c
                  __pa_28   0x00e34e    program     static C:\Program Files\mcc18\src\traditional\stdclib\vfprintf.c
                  __pa_29   0x00e35c    program     static C:\Program Files\mcc18\src\traditional\stdclib\vfprintf.c
                  __pa_30   0x00e378    program     static C:\Program Files\mcc18\src\traditional\stdclib\vfprintf.c
                  __pa_31   0x00e392    program     static C:\Program Files\mcc18\src\traditional\stdclib\vfprintf.c
                  __pa_32   0x00e3ac    program     static C:\Program Files\mcc18\src\traditional\stdclib\vfprintf.c
                  __pa_33   0x00e3c4    program     static C:\Program Files\mcc18\src\traditional\stdclib\vfprintf.c
                  __pa_34   0x00e3ce    program     static C:\Program Files\mcc18\src\traditional\stdclib\vfprintf.c
                  __pa_35   0x00e3dc    program     static C:\Program Files\mcc18\src\traditional\stdclib\vfprintf.c
                  __pa_36   0x00e3e4    program     static C:\Program Files\mcc18\src\traditional\stdclib\vfprintf.c
                  __pa_37   0x00e3ee    program     static C:\Program Files\mcc18\src\traditional\stdclib\vfprintf.c
                  __pa_38   0x00e3fe    program     static C:\Program Files\mcc18\src\traditional\stdclib\vfprintf.c
                  __pa_39   0x00e40c    program     static C:\Program Files\mcc18\src\traditional\stdclib\vfprintf.c
                  __pa_40   0x00e418    program     static C:\Program Files\mcc18\src\traditional\stdclib\vfprintf.c
                  __pa_41   0x00e424    program     static C:\Program Files\mcc18\src\traditional\stdclib\vfprintf.c
                  __pa_42   0x00e42c    program     static C:\Program Files\mcc18\src\traditional\stdclib\vfprintf.c
                  __pa_43   0x00e436    program     static C:\Program Files\mcc18\src\traditional\stdclib\vfprintf.c
                  __pa_44   0x00e43c    program     static C:\Program Files\mcc18\src\traditional\stdclib\vfprintf.c
                  __pa_45   0x00e446    program     static C:\Program Files\mcc18\src\traditional\stdclib\vfprintf.c
                  __pa_46   0x00e452    program     static C:\Program Files\mcc18\src\traditional\stdclib\vfprintf.c
               __string_1   0x00e45c    program     static D:\git\70M\Bootstrap\Initialization.c
               __string_0   0x00e466    program     static D:\git\70M\Bootstrap\Initialization.c
              __string_53   0x00e46c    program     static D:\git\70M\Microchip\TCPIP Stack\HTTP2.c
              __string_52   0x00e477    program     static D:\git\70M\Microchip\TCPIP Stack\HTTP2.c
              __string_51   0x00e47c    program     static D:\git\70M\Microchip\TCPIP Stack\HTTP2.c
              __string_50   0x00e480    program     static D:\git\70M\Microchip\TCPIP Stack\HTTP2.c
              __string_49   0x00e489    program     static D:\git\70M\Microchip\TCPIP Stack\HTTP2.c
              __string_48   0x00e492    program     static D:\git\70M\Microchip\TCPIP Stack\HTTP2.c
              __string_47   0x00e4a2    program     static D:\git\70M\Microchip\TCPIP Stack\HTTP2.c
              __string_46   0x00e4bb    program     static D:\git\70M\Microchip\TCPIP Stack\HTTP2.c
              __string_45   0x00e4ca    program     static D:\git\70M\Microchip\TCPIP Stack\HTTP2.c
              __string_44   0x00e4dd    program     static D:\git\70M\Microchip\TCPIP Stack\HTTP2.c
              __string_43   0x00e4e7    program     static D:\git\70M\Microchip\TCPIP Stack\HTTP2.c
              __string_42   0x00e4f2    program     static D:\git\70M\Microchip\TCPIP Stack\HTTP2.c
              __string_41   0x00e4f7    program     static D:\git\70M\Microchip\TCPIP Stack\HTTP2.c
              __string_40   0x00e4fb    program     static D:\git\70M\Microchip\TCPIP Stack\HTTP2.c
              __string_39   0x00e50b    program     static D:\git\70M\Microchip\TCPIP Stack\HTTP2.c
              __string_38   0x00e51a    program     static D:\git\70M\Microchip\TCPIP Stack\HTTP2.c
              __string_37   0x00e522    program     static D:\git\70M\Microchip\TCPIP Stack\HTTP2.c
              __string_36   0x00e579    program     static D:\git\70M\Microchip\TCPIP Stack\HTTP2.c
              __string_35   0x00e5ab    program     static D:\git\70M\Microchip\TCPIP Stack\HTTP2.c
              __string_34   0x00e67e    program     static D:\git\70M\Microchip\TCPIP Stack\HTTP2.c
              __string_33   0x00e72b    program     static D:\git\70M\Microchip\TCPIP Stack\HTTP2.c
              __string_32   0x00e84b    program     static D:\git\70M\Microchip\TCPIP Stack\HTTP2.c
              __string_31   0x00e8b1    program     static D:\git\70M\Microchip\TCPIP Stack\HTTP2.c
              __string_30   0x00e921    program     static D:\git\70M\Microchip\TCPIP Stack\HTTP2.c
              __string_29   0x00e98e    program     static D:\git\70M\Microchip\TCPIP Stack\HTTP2.c
              __string_28   0x00ea2c    program     static D:\git\70M\Microchip\TCPIP Stack\HTTP2.c
              __string_27   0x00eaad    program     static D:\git\70M\Microchip\TCPIP Stack\HTTP2.c
              __string_26   0x00eb0b    program     static D:\git\70M\Microchip\TCPIP Stack\HTTP2.c
              __string_25   0x00eb30    program     static D:\git\70M\Microchip\TCPIP Stack\HTTP2.c
              __string_24   0x00eb31    program     static D:\git\70M\Microchip\TCPIP Stack\HTTP2.c
              __string_23   0x00eb3e    program     static D:\git\70M\Microchip\TCPIP Stack\HTTP2.c
              __string_22   0x00eb52    program     static D:\git\70M\Microchip\TCPIP Stack\HTTP2.c
              __string_21   0x00eb5d    program     static D:\git\70M\Microchip\TCPIP Stack\HTTP2.c
              __string_20   0x00eb67    program     static D:\git\70M\Microchip\TCPIP Stack\HTTP2.c
              __string_19   0x00eb71    program     static D:\git\70M\Microchip\TCPIP Stack\HTTP2.c
              __string_18   0x00eb7a    program     static D:\git\70M\Microchip\TCPIP Stack\HTTP2.c
              __string_17   0x00eb83    program     static D:\git\70M\Microchip\TCPIP Stack\HTTP2.c
              __string_16   0x00eb8d    program     static D:\git\70M\Microchip\TCPIP Stack\HTTP2.c
              __string_15   0x00eb98    program     static D:\git\70M\Microchip\TCPIP Stack\HTTP2.c
              __string_14   0x00eb9c    program     static D:\git\70M\Microchip\TCPIP Stack\HTTP2.c
              __string_13   0x00eba0    program     static D:\git\70M\Microchip\TCPIP Stack\HTTP2.c
              __string_12   0x00eba4    program     static D:\git\70M\Microchip\TCPIP Stack\HTTP2.c
              __string_11   0x00eba8    program     static D:\git\70M\Microchip\TCPIP Stack\HTTP2.c
              __string_10   0x00ebac    program     static D:\git\70M\Microchip\TCPIP Stack\HTTP2.c
               __string_9   0x00ebb0    program     static D:\git\70M\Microchip\TCPIP Stack\HTTP2.c
               __string_8   0x00ebb4    program     static D:\git\70M\Microchip\TCPIP Stack\HTTP2.c
               __string_7   0x00ebb8    program     static D:\git\70M\Microchip\TCPIP Stack\HTTP2.c
               __string_6   0x00ebbc    program     static D:\git\70M\Microchip\TCPIP Stack\HTTP2.c
               __string_5   0x00ebc1    program     static D:\git\70M\Microchip\TCPIP Stack\HTTP2.c
               __string_4   0x00ebc5    program     static D:\git\70M\Microchip\TCPIP Stack\HTTP2.c
               __string_2   0x00ebc9    program     static D:\git\70M\Microchip\TCPIP Stack\HTTP2.c
               __string_1   0x00ebce    program     static D:\git\70M\Microchip\TCPIP Stack\HTTP2.c
               __string_0   0x00ebd9    program     static D:\git\70M\Microchip\TCPIP Stack\HTTP2.c
               __string_0   0x00ebe4    program     static D:\git\70M\Microchip\TCPIP Stack\MPFS2.c
               __string_0   0x00ebeb    program     static D:\git\70M\SysLib\util.c 
              __string_16   0x00ebf1    program     static D:\git\70M\App\WebUI\HTTPApp.c
              __string_15   0x00ec05    program     static D:\git\70M\App\WebUI\HTTPApp.c
              __string_14   0x00ec1a    program     static D:\git\70M\App\WebUI\HTTPApp.c
              __string_13   0x00ec1f    program     static D:\git\70M\App\WebUI\HTTPApp.c
              __string_12   0x00ec24    program     static D:\git\70M\App\WebUI\HTTPApp.c
              __string_11   0x00ec28    program     static D:\git\70M\App\WebUI\HTTPApp.c
              __string_10   0x00ec2d    program     static D:\git\70M\App\WebUI\HTTPApp.c
               __string_9   0x00ec32    program     static D:\git\70M\App\WebUI\HTTPApp.c
               __string_8   0x00ec36    program     static D:\git\70M\App\WebUI\HTTPApp.c
               __string_7   0x00ec39    program     static D:\git\70M\App\WebUI\HTTPApp.c
               __string_6   0x00ec3c    program     static D:\git\70M\App\WebUI\HTTPApp.c
               __string_5   0x00ec45    program     static D:\git\70M\App\WebUI\HTTPApp.c
               __string_4   0x00ec49    program     static D:\git\70M\App\WebUI\HTTPApp.c
               __string_3   0x00ec59    program     static D:\git\70M\App\WebUI\HTTPApp.c
               __string_2   0x00ec6c    program     static D:\git\70M\App\WebUI\HTTPApp.c
               __string_1   0x00ec72    program     static D:\git\70M\App\WebUI\HTTPApp.c
               __string_0   0x00ec77    program     static D:\git\70M\App\WebUI\HTTPApp.c
               __string_2   0x00ec7f    program     static D:\git\70M\Devices\DownConverter_c1.c
               __string_1   0x00ec87    program     static D:\git\70M\Devices\DownConverter_c1.c
               __string_0   0x00ec90    program     static D:\git\70M\Devices\DownConverter_c1.c
               __string_8   0x00ec99    program     static D:\git\70M\Devices\MainControl_c1.c
               __string_7   0x00ec9e    program     static D:\git\70M\Devices\MainControl_c1.c
               __string_6   0x00eca2    program     static D:\git\70M\Devices\MainControl_c1.c
               __string_5   0x00ecab    program     static D:\git\70M\Devices\MainControl_c1.c
               __string_4   0x00ecb4    program     static D:\git\70M\Devices\MainControl_c1.c
               __string_3   0x00ecbb    program     static D:\git\70M\Devices\MainControl_c1.c
               __string_2   0x00ecc2    program     static D:\git\70M\Devices\MainControl_c1.c
               __string_1   0x00ecc7    program     static D:\git\70M\Devices\MainControl_c1.c
               __string_0   0x00ecce    program     static D:\git\70M\Devices\MainControl_c1.c
               __string_2   0x00ecd2    program     static D:\git\70M\Devices\UpConverter_c1.c
               __string_1   0x00ecda    program     static D:\git\70M\Devices\UpConverter_c1.c
               __string_0   0x00ece3    program     static D:\git\70M\Devices\UpConverter_c1.c
               __string_4   0x00ecec    program     static D:\git\70M\Devices\VOLDC_c1 .c
               __string_3   0x00ecef    program     static D:\git\70M\Devices\VOLDC_c1 .c
               __string_2   0x00ecf5    program     static D:\git\70M\Devices\VOLDC_c1 .c
               __string_1   0x00ecfb    program     static D:\git\70M\Devices\VOLDC_c1 .c
               __string_0   0x00ed04    program     static D:\git\70M\Devices\VOLDC_c1 .c
              __string_62   0x00ed0d    program     static D:\git\70M\Drivers\External-Peripherals\oled_c2.c
              __string_61   0x00ed1b    program     static D:\git\70M\Drivers\External-Peripherals\oled_c2.c
              __string_60   0x00ed29    program     static D:\git\70M\Drivers\External-Peripherals\oled_c2.c
              __string_59   0x00ed35    program     static D:\git\70M\Drivers\External-Peripherals\oled_c2.c
              __string_58   0x00ed44    program     static D:\git\70M\Drivers\External-Peripherals\oled_c2.c
              __string_57   0x00ed4e    program     static D:\git\70M\Drivers\External-Peripherals\oled_c2.c
              __string_56   0x00ed57    program     static D:\git\70M\Drivers\External-Peripherals\oled_c2.c
              __string_55   0x00ed5d    program     static D:\git\70M\Drivers\External-Peripherals\oled_c2.c
              __string_54   0x00ed63    program     static D:\git\70M\Drivers\External-Peripherals\oled_c2.c
              __string_53   0x00ed67    program     static D:\git\70M\Drivers\External-Peripherals\oled_c2.c
              __string_52   0x00ed90    program     static D:\git\70M\Drivers\External-Peripherals\oled_c2.c
              __string_10   0x00edb9    program     static D:\git\70M\Drivers\External-Peripherals\oled_c2.c
               __string_7   0x00edc2    program     static D:\git\70M\Drivers\External-Peripherals\oled_c2.c
              __string_43   0x00edc6    program     static D:\git\70M\App\WebUI\HTTPGetDevInfo.c
              __string_42   0x00edca    program     static D:\git\70M\App\WebUI\HTTPGetDevInfo.c
              __string_41   0x00edcf    program     static D:\git\70M\App\WebUI\HTTPGetDevInfo.c
              __string_40   0x00edd4    program     static D:\git\70M\App\WebUI\HTTPGetDevInfo.c
              __string_39   0x00ede1    program     static D:\git\70M\App\WebUI\HTTPGetDevInfo.c
              __string_38   0x00edeb    program     static D:\git\70M\App\WebUI\HTTPGetDevInfo.c
              __string_37   0x00edf5    program     static D:\git\70M\App\WebUI\HTTPGetDevInfo.c
              __string_36   0x00edfb    program     static D:\git\70M\App\WebUI\HTTPGetDevInfo.c
              __string_35   0x00ee00    program     static D:\git\70M\App\WebUI\HTTPGetDevInfo.c
              __string_34   0x00ee05    program     static D:\git\70M\App\WebUI\HTTPGetDevInfo.c
              __string_33   0x00ee15    program     static D:\git\70M\App\WebUI\HTTPGetDevInfo.c
              __string_32   0x00ee19    program     static D:\git\70M\App\WebUI\HTTPGetDevInfo.c
              __string_31   0x00ee2d    program     static D:\git\70M\App\WebUI\HTTPGetDevInfo.c
              __string_30   0x00ee40    program     static D:\git\70M\App\WebUI\HTTPGetDevInfo.c
              __string_29   0x00ee4d    program     static D:\git\70M\App\WebUI\HTTPGetDevInfo.c
              __string_28   0x00ee5a    program     static D:\git\70M\App\WebUI\HTTPGetDevInfo.c
              __string_27   0x00ee61    program     static D:\git\70M\App\WebUI\HTTPGetDevInfo.c
              __string_26   0x00ee68    program     static D:\git\70M\App\WebUI\HTTPGetDevInfo.c
              __string_25   0x00ee70    program     static D:\git\70M\App\WebUI\HTTPGetDevInfo.c
              __string_24   0x00ee78    program     static D:\git\70M\App\WebUI\HTTPGetDevInfo.c
              __string_23   0x00ee7e    program     static D:\git\70M\App\WebUI\HTTPGetDevInfo.c
              __string_22   0x00ee87    program     static D:\git\70M\App\WebUI\HTTPGetDevInfo.c
              __string_21   0x00ee90    program     static D:\git\70M\App\WebUI\HTTPGetDevInfo.c
              __string_20   0x00ee96    program     static D:\git\70M\App\WebUI\HTTPGetDevInfo.c
              __string_19   0x00ee9b    program     static D:\git\70M\App\WebUI\HTTPGetDevInfo.c
              __string_18   0x00ee9f    program     static D:\git\70M\App\WebUI\HTTPGetDevInfo.c
              __string_17   0x00eea3    program     static D:\git\70M\App\WebUI\HTTPGetDevInfo.c
              __string_16   0x00eea8    program     static D:\git\70M\App\WebUI\HTTPGetDevInfo.c
              __string_15   0x00eeb2    program     static D:\git\70M\App\WebUI\HTTPGetDevInfo.c
              __string_14   0x00eebf    program     static D:\git\70M\App\WebUI\HTTPGetDevInfo.c
              __string_13   0x00eecd    program     static D:\git\70M\App\WebUI\HTTPGetDevInfo.c
              __string_12   0x00eedb    program     static D:\git\70M\App\WebUI\HTTPGetDevInfo.c
              __string_11   0x00eee5    program     static D:\git\70M\App\WebUI\HTTPGetDevInfo.c
              __string_10   0x00eeef    program     static D:\git\70M\App\WebUI\HTTPGetDevInfo.c
               __string_9   0x00eef9    program     static D:\git\70M\App\WebUI\HTTPGetDevInfo.c
               __string_8   0x00ef06    program     static D:\git\70M\App\WebUI\HTTPGetDevInfo.c
               __string_7   0x00ef16    program     static D:\git\70M\App\WebUI\HTTPGetDevInfo.c
               __string_6   0x00ef26    program     static D:\git\70M\App\WebUI\HTTPGetDevInfo.c
               __string_5   0x00ef37    program     static D:\git\70M\App\WebUI\HTTPGetDevInfo.c
               __string_4   0x00ef48    program     static D:\git\70M\App\WebUI\HTTPGetDevInfo.c
               __string_3   0x00ef4f    program     static D:\git\70M\App\WebUI\HTTPGetDevInfo.c
               __string_2   0x00ef57    program     static D:\git\70M\App\WebUI\HTTPGetDevInfo.c
               __string_1   0x00ef5b    program     static D:\git\70M\App\WebUI\HTTPGetDevInfo.c
               __string_0   0x00ef62    program     static D:\git\70M\App\WebUI\HTTPGetDevInfo.c
              __string_22   0x00ef65    program     static D:\git\70M\App\WebUI\HTTPPrint.c
              __string_21   0x00ef6a    program     static D:\git\70M\App\WebUI\HTTPPrint.c
              __string_20   0x00ef88    program     static D:\git\70M\App\WebUI\HTTPPrint.c
              __string_19   0x00ef9c    program     static D:\git\70M\App\WebUI\HTTPPrint.c
              __string_18   0x00efaf    program     static D:\git\70M\App\WebUI\HTTPPrint.c
              __string_17   0x00efcc    program     static D:\git\70M\App\WebUI\HTTPPrint.c
              __string_16   0x00efdc    program     static D:\git\70M\App\WebUI\HTTPPrint.c
              __string_15   0x00efe2    program     static D:\git\70M\App\WebUI\HTTPPrint.c
              __string_14   0x00efe6    program     static D:\git\70M\App\WebUI\HTTPPrint.c
              __string_13   0x00efe9    program     static D:\git\70M\App\WebUI\HTTPPrint.c
              __string_12   0x00eff2    program     static D:\git\70M\App\WebUI\HTTPPrint.c
              __string_11   0x00effb    program     static D:\git\70M\App\WebUI\HTTPPrint.c
              __string_10   0x00f004    program     static D:\git\70M\App\WebUI\HTTPPrint.c
               __string_9   0x00f00e    program     static D:\git\70M\App\WebUI\HTTPPrint.c
               __string_8   0x00f016    program     static D:\git\70M\App\WebUI\HTTPPrint.c
               __string_7   0x00f01d    program     static D:\git\70M\App\WebUI\HTTPPrint.c
               __string_6   0x00f026    program     static D:\git\70M\App\WebUI\HTTPPrint.c
               __string_5   0x00f02f    program     static D:\git\70M\App\WebUI\HTTPPrint.c
               __string_4   0x00f033    program     static D:\git\70M\App\WebUI\HTTPPrint.c
               __string_3   0x00f036    program     static D:\git\70M\App\WebUI\HTTPPrint.c
               __string_2   0x00f03d    program     static D:\git\70M\App\WebUI\HTTPPrint.c
               __string_1   0x00f042    program     static D:\git\70M\App\WebUI\HTTPPrint.c
               __string_0   0x00f04b    program     static D:\git\70M\App\WebUI\HTTPPrint.c
                  MACInit   0x00f054    program     extern D:\git\70M\Microchip\TCPIP Stack\ETH97J60.c
        ___while_lbl00001   0x00f06e    program     static                          
        ___while_lbl00002   0x00f074    program     static                          
       ___return_lbl00000   0x00f15c    program     static                          
              MACIsLinked   0x00f16a    program     extern D:\git\70M\Microchip\TCPIP Stack\ETH97J60.c
             MACIsTxReady   0x00f17e    program     extern D:\git\70M\Microchip\TCPIP Stack\ETH97J60.c
             MACDiscardRx   0x00f1a6    program     extern D:\git\70M\Microchip\TCPIP Stack\ETH97J60.c
         MACGetFreeRxSize   0x00f206    program     extern D:\git\70M\Microchip\TCPIP Stack\ETH97J60.c
             MACGetHeader   0x00f2ce    program     extern D:\git\70M\Microchip\TCPIP Stack\ETH97J60.c
           ___if_lbl00020   0x00f2f4    program     static                          
           ___if_lbl00021   0x00f300    program     static                          
              __tmplbl_11   0x00f366    program     static                          
              __tmplbl_10   0x00f368    program     static                          
               __tmplbl_9   0x00f376    program     static                          
               __tmplbl_8   0x00f38e    program     static                          
               __tmplbl_7   0x00f3a4    program     static                          
               __tmplbl_6   0x00f3bc    program     static                          
               __tmplbl_5   0x00f3d2    program     static                          
           ___if_lbl00027   0x00f3d4    program     static                          
              __tmplbl_13   0x00f434    program     static                          
              __tmplbl_14   0x00f43a    program     static                          
              __tmplbl_12   0x00f442    program     static                          
           ___if_lbl00030   0x00f454    program     static                          
       ___return_lbl00019   0x00f45c    program     static                          
             MACPutHeader   0x00f478    program     extern D:\git\70M\Microchip\TCPIP Stack\ETH97J60.c
                 MACFlush   0x00f4dc    program     extern D:\git\70M\Microchip\TCPIP Stack\ETH97J60.c
        MACSetReadPtrInRx   0x00f504    program     extern D:\git\70M\Microchip\TCPIP Stack\ETH97J60.c
           MACSetWritePtr   0x00f51c    program     extern D:\git\70M\Microchip\TCPIP Stack\ETH97J60.c
            MACSetReadPtr   0x00f530    program     extern D:\git\70M\Microchip\TCPIP Stack\ETH97J60.c
        MACCalcRxChecksum   0x00f548    program     extern D:\git\70M\Microchip\TCPIP Stack\ETH97J60.c
     CalcIPBufferChecksum   0x00f594    program     extern D:\git\70M\Microchip\TCPIP Stack\ETH97J60.c
          MACMemCopyAsync   0x00f704    program     extern D:\git\70M\Microchip\TCPIP Stack\ETH97J60.c
         MACIsMemCopyDone   0x00f852    program     extern D:\git\70M\Microchip\TCPIP Stack\ETH97J60.c
                   MACGet   0x00f85e    program     extern D:\git\70M\Microchip\TCPIP Stack\ETH97J60.c
              MACGetArray   0x00f862    program     extern D:\git\70M\Microchip\TCPIP Stack\ETH97J60.c
                   MACPut   0x00f8bc    program     extern D:\git\70M\Microchip\TCPIP Stack\ETH97J60.c
       ___return_lbl00079   0x00f8d6    program     static                          
              MACPutArray   0x00f8e2    program     extern D:\git\70M\Microchip\TCPIP Stack\ETH97J60.c
        ___while_lbl00081   0x00f8f2    program     static                          
        ___while_lbl00082   0x00f926    program     static                          
       ___return_lbl00080   0x00f926    program     static                          
           MACPutROMArray   0x00f932    program     extern D:\git\70M\Microchip\TCPIP Stack\ETH97J60.c
        ___while_lbl00084   0x00f942    program     static                          
        ___while_lbl00085   0x00f988    program     static                          
       ___return_lbl00083   0x00f988    program     static                          
               ReadPHYReg   0x00f994    program     extern D:\git\70M\Microchip\TCPIP Stack\ETH97J60.c
        ___while_lbl00087   0x00f9b8    program     static                          
        ___while_lbl00088   0x00f9be    program     static                          
       ___return_lbl00086   0x00f9e2    program     static                          
              WritePHYReg   0x00f9f2    program     extern D:\git\70M\Microchip\TCPIP Stack\ETH97J60.c
        ___while_lbl00090   0x00fa2e    program     static                          
       ___return_lbl00089   0x00fa34    program     static                          
        ___while_lbl00091   0x00fa34    program     static                          
             MACPowerDown   0x00fa42    program     extern D:\git\70M\Microchip\TCPIP Stack\ETH97J60.c
               MACPowerUp   0x00fa54    program     extern D:\git\70M\Microchip\TCPIP Stack\ETH97J60.c
                   __pa_0   0x00fa62    program     static D:\git\70M\Microchip\TCPIP Stack\ETH97J60.c
                   __pa_1   0x00fa74    program     static D:\git\70M\Microchip\TCPIP Stack\ETH97J60.c
              __tmplbl_25   0x00fa74    program     static                          
                   __pa_2   0x00fa80    program     static D:\git\70M\Microchip\TCPIP Stack\ETH97J60.c
                   __pa_3   0x00fa9e    program     static D:\git\70M\Microchip\TCPIP Stack\ETH97J60.c
                   __pa_4   0x00fab6    program     static D:\git\70M\Microchip\TCPIP Stack\ETH97J60.c
                   __pa_5   0x00fac0    program     static D:\git\70M\Microchip\TCPIP Stack\ETH97J60.c
                   __pa_6   0x00fac4    program     static D:\git\70M\Microchip\TCPIP Stack\ETH97J60.c
                   __pa_7   0x00faca    program     static D:\git\70M\Microchip\TCPIP Stack\ETH97J60.c
                   __pa_8   0x00fad4    program     static D:\git\70M\Microchip\TCPIP Stack\ETH97J60.c
                   __pa_9   0x00fae2    program     static D:\git\70M\Microchip\TCPIP Stack\ETH97J60.c
                  __pa_10   0x00faf4    program     static D:\git\70M\Microchip\TCPIP Stack\ETH97J60.c
                  __pa_11   0x00fb04    program     static D:\git\70M\Microchip\TCPIP Stack\ETH97J60.c
                  __pa_12   0x00fb10    program     static D:\git\70M\Microchip\TCPIP Stack\ETH97J60.c
                  __pa_13   0x00fb1e    program     static D:\git\70M\Microchip\TCPIP Stack\ETH97J60.c
                  __pa_14   0x00fb2c    program     static D:\git\70M\Microchip\TCPIP Stack\ETH97J60.c
                  __pa_15   0x00fb3a    program     static D:\git\70M\Microchip\TCPIP Stack\ETH97J60.c
                  __pa_16   0x00fb48    program     static D:\git\70M\Microchip\TCPIP Stack\ETH97J60.c
                  __pa_17   0x00fb56    program     static D:\git\70M\Microchip\TCPIP Stack\ETH97J60.c
                  __pa_18   0x00fb5e    program     static D:\git\70M\Microchip\TCPIP Stack\ETH97J60.c
                  __pa_19   0x00fb68    program     static D:\git\70M\Microchip\TCPIP Stack\ETH97J60.c
                  __pa_20   0x00fb72    program     static D:\git\70M\Microchip\TCPIP Stack\ETH97J60.c
                  __pa_21   0x00fb8a    program     static D:\git\70M\Microchip\TCPIP Stack\ETH97J60.c
                  __pa_22   0x00fb92    program     static D:\git\70M\Microchip\TCPIP Stack\ETH97J60.c
                  __pa_23   0x00fba0    program     static D:\git\70M\Microchip\TCPIP Stack\ETH97J60.c
                  __pa_24   0x00fba8    program     static D:\git\70M\Microchip\TCPIP Stack\ETH97J60.c
                  __pa_25   0x00fbb8    program     static D:\git\70M\Microchip\TCPIP Stack\ETH97J60.c
                  __pa_26   0x00fbc4    program     static D:\git\70M\Microchip\TCPIP Stack\ETH97J60.c
                  __pa_27   0x00fbd2    program     static D:\git\70M\Microchip\TCPIP Stack\ETH97J60.c
                  __pa_28   0x00fbe2    program     static D:\git\70M\Microchip\TCPIP Stack\ETH97J60.c
                  __pa_29   0x00fbec    program     static D:\git\70M\Microchip\TCPIP Stack\ETH97J60.c
                  __pa_30   0x00fbf6    program     static D:\git\70M\Microchip\TCPIP Stack\ETH97J60.c
                  __pa_31   0x00fbfe    program     static D:\git\70M\Microchip\TCPIP Stack\ETH97J60.c
            stMenuDisplay   0x00fc06    program     extern D:\git\70M\Drivers\External-Peripherals\oled_c2.c
               acLCDTitle   0x00fe22    program     extern D:\git\70M\Drivers\External-Peripherals\oled_c2.c
          acLCDBlinkTitle   0x0102d2    program     extern D:\git\70M\Drivers\External-Peripherals\oled_c2.c
                 FLO0832U   0x01066a    program     extern C:\Program Files\mcc18\src\traditional\math\cast08FP.asm
                 FLO0832S   0x01066e    program     extern C:\Program Files\mcc18\src\traditional\math\cast08FP.asm
                jI2F08Beg   0x010678    program     static C:\Program Files\mcc18\src\traditional\math\cast08FP.asm
                 FLO1632U   0x01068c    program     extern C:\Program Files\mcc18\src\traditional\math\cast16FP.asm
                 FLO1632S   0x010690    program     extern C:\Program Files\mcc18\src\traditional\math\cast16FP.asm
                jI2F16Beg   0x0106a0    program     static C:\Program Files\mcc18\src\traditional\math\cast16FP.asm
                    FPS32   0x0106b6    program     extern C:\Program Files\mcc18\src\traditional\math\addFP.asm
                    FPA32   0x0106b8    program     extern C:\Program Files\mcc18\src\traditional\math\addFP.asm
                jBANotInf   0x0106d6    program     static C:\Program Files\mcc18\src\traditional\math\addFP.asm
                 jANotInf   0x0106e0    program     static C:\Program Files\mcc18\src\traditional\math\addFP.asm
                 jBNotInf   0x0106ee    program     static C:\Program Files\mcc18\src\traditional\math\addFP.asm
            jDifOrPosSign   0x010702    program     static C:\Program Files\mcc18\src\traditional\math\addFP.asm
             jNotBothZero   0x010706    program     static C:\Program Files\mcc18\src\traditional\math\addFP.asm
                 jAltBexp   0x010732    program     static C:\Program Files\mcc18\src\traditional\math\addFP.asm
              jAandWsetup   0x010744    program     static C:\Program Files\mcc18\src\traditional\math\addFP.asm
                 jANotNeg   0x010774    program     static C:\Program Files\mcc18\src\traditional\math\addFP.asm
                 jWNotNeg   0x010788    program     static C:\Program Files\mcc18\src\traditional\math\addFP.asm
               jShiftLoop   0x01078e    program     static C:\Program Files\mcc18\src\traditional\math\addFP.asm
               jShiftDone   0x01079c    program     static C:\Program Files\mcc18\src\traditional\math\addFP.asm
                jSignDone   0x0107cc    program     static C:\Program Files\mcc18\src\traditional\math\addFP.asm
               jFinalSign   0x0107dc    program     static C:\Program Files\mcc18\src\traditional\math\addFP.asm
                    FPD32   0x0107e4    program     extern C:\Program Files\mcc18\src\traditional\math\divFP.asm
                 jANotInf   0x010802    program     static C:\Program Files\mcc18\src\traditional\math\divFP.asm
              jSignedZero   0x01080c    program     static C:\Program Files\mcc18\src\traditional\math\divFP.asm
                jANotZero   0x010816    program     static C:\Program Files\mcc18\src\traditional\math\divFP.asm
                    jLoop   0x01083e    program     static C:\Program Files\mcc18\src\traditional\math\divFP.asm
                jNoAdjust   0x010862    program     static C:\Program Files\mcc18\src\traditional\math\divFP.asm
                    jNext   0x010864    program     static C:\Program Files\mcc18\src\traditional\math\divFP.asm
                    FPM32   0x01088a    program     extern C:\Program Files\mcc18\src\traditional\math\mulFP.asm
                 jANotInf   0x0108a8    program     static C:\Program Files\mcc18\src\traditional\math\mulFP.asm
              jBothFinite   0x0108b6    program     static C:\Program Files\mcc18\src\traditional\math\mulFP.asm
                jHaveZero   0x0108be    program     static C:\Program Files\mcc18\src\traditional\math\mulFP.asm
             jBothNotZero   0x0108c2    program     static C:\Program Files\mcc18\src\traditional\math\mulFP.asm
                 FXD1616S   0x010964    program     extern C:\Program Files\mcc18\src\traditional\math\fxd1616s.asm
                  DA1616S   0x010976    program     static C:\Program Files\mcc18\src\traditional\math\fxd1616s.asm
                   D1616S   0x010986    program     static C:\Program Files\mcc18\src\traditional\math\fxd1616s.asm
                 D1616SOK   0x010990    program     static C:\Program Files\mcc18\src\traditional\math\fxd1616s.asm
                D1616SNEG   0x010994    program     static C:\Program Files\mcc18\src\traditional\math\fxd1616s.asm
                  D1616SX   0x0109a6    program     static C:\Program Files\mcc18\src\traditional\math\fxd1616s.asm
                 FXM1616S   0x0109b0    program     extern C:\Program Files\mcc18\src\traditional\math\fxm1616s.asm
               TSIGN1616A   0x0109fc    program     static C:\Program Files\mcc18\src\traditional\math\fxm1616s.asm
                 FXM1616U   0x010a0a    program     extern C:\Program Files\mcc18\src\traditional\math\fxm1616u.asm
                 FXM2424U   0x010a46    program     extern C:\Program Files\mcc18\src\traditional\math\fxm2424u.asm
                  INT3216   0x010ad8    program     extern C:\Program Files\mcc18\src\traditional\math\castFP16.asm
                     jMax   0x010ae8    program     static C:\Program Files\mcc18\src\traditional\math\castFP16.asm
                  jMaxPos   0x010aec    program     static C:\Program Files\mcc18\src\traditional\math\castFP16.asm
                  jMaxNeg   0x010af6    program     static C:\Program Files\mcc18\src\traditional\math\castFP16.asm
                    jZero   0x010afe    program     static C:\Program Files\mcc18\src\traditional\math\castFP16.asm
                  jNotInf   0x010b04    program     static C:\Program Files\mcc18\src\traditional\math\castFP16.asm
                    jLoop   0x010b14    program     static C:\Program Files\mcc18\src\traditional\math\castFP16.asm
                jLoopExit   0x010b24    program     static C:\Program Files\mcc18\src\traditional\math\castFP16.asm
                    jExit   0x010b34    program     static C:\Program Files\mcc18\src\traditional\math\castFP16.asm
                  INT3232   0x010b36    program     extern C:\Program Files\mcc18\src\traditional\math\castFP32.asm
                     jMax   0x010b46    program     static C:\Program Files\mcc18\src\traditional\math\castFP32.asm
                  jMaxPos   0x010b4a    program     static C:\Program Files\mcc18\src\traditional\math\castFP32.asm
                   jWr123   0x010b50    program     static C:\Program Files\mcc18\src\traditional\math\castFP32.asm
                  jMaxNeg   0x010b58    program     static C:\Program Files\mcc18\src\traditional\math\castFP32.asm
                    jZero   0x010b5e    program     static C:\Program Files\mcc18\src\traditional\math\castFP32.asm
                  jWrZ123   0x010b60    program     static C:\Program Files\mcc18\src\traditional\math\castFP32.asm
                  jNotInf   0x010b64    program     static C:\Program Files\mcc18\src\traditional\math\castFP32.asm
                    jLoop   0x010b76    program     static C:\Program Files\mcc18\src\traditional\math\castFP32.asm
                jLoopExit   0x010b8a    program     static C:\Program Files\mcc18\src\traditional\math\castFP32.asm
                    jExit   0x010ba2    program     static C:\Program Files\mcc18\src\traditional\math\castFP32.asm
                  TAGTB32   0x010ba4    program     extern C:\Program Files\mcc18\src\traditional\math\gtFP.asm
                  TALTB32   0x010bb6    program     extern C:\Program Files\mcc18\src\traditional\math\ltFP.asm
              __FpCompare   0x010bc8    program     extern C:\Program Files\mcc18\src\traditional\math\compFP.asm
             jBothNotZero   0x010be6    program     static C:\Program Files\mcc18\src\traditional\math\compFP.asm
                 jSignsEQ   0x010bea    program     static C:\Program Files\mcc18\src\traditional\math\compFP.asm
                      jEQ   0x010c02    program     static C:\Program Files\mcc18\src\traditional\math\compFP.asm
                      jNE   0x010c06    program     static C:\Program Files\mcc18\src\traditional\math\compFP.asm
                    jExch   0x010c0e    program     static C:\Program Files\mcc18\src\traditional\math\compFP.asm
                  jNoExch   0x010c2e    program     static C:\Program Files\mcc18\src\traditional\math\compFP.asm
                   jFinal   0x010c38    program     static C:\Program Files\mcc18\src\traditional\math\compFP.asm
                  jAisNeg   0x010c44    program     static C:\Program Files\mcc18\src\traditional\math\compFP.asm
                   jShift   0x010c4a    program     static C:\Program Files\mcc18\src\traditional\math\compFP.asm
                   jExpEQ   0x010c54    program     static C:\Program Files\mcc18\src\traditional\math\compFP.asm
                  jRotate   0x010c60    program     static C:\Program Files\mcc18\src\traditional\math\compFP.asm
            __FpReturnNaN   0x010c72    program     extern C:\Program Files\mcc18\src\traditional\math\packFP.asm
                 __FpExit   0x010c7e    program     extern C:\Program Files\mcc18\src\traditional\math\packFP.asm
        __FpReturnSignInf   0x010c80    program     extern C:\Program Files\mcc18\src\traditional\math\packFP.asm
         __FpReturnNegInf   0x010c84    program     extern C:\Program Files\mcc18\src\traditional\math\packFP.asm
         __FpReturnPosInf   0x010c8a    program     extern C:\Program Files\mcc18\src\traditional\math\packFP.asm
           jReturnPosInf0   0x010c8e    program     static C:\Program Files\mcc18\src\traditional\math\packFP.asm
               jZero1and2   0x010c92    program     static C:\Program Files\mcc18\src\traditional\math\packFP.asm
       __FpReturnSignZero   0x010c98    program     extern C:\Program Files\mcc18\src\traditional\math\packFP.asm
        __FpReturnNegZero   0x010c9c    program     extern C:\Program Files\mcc18\src\traditional\math\packFP.asm
        __FpReturnPosZero   0x010ca4    program     extern C:\Program Files\mcc18\src\traditional\math\packFP.asm
                 __FpPack   0x010caa    program     extern C:\Program Files\mcc18\src\traditional\math\packFP.asm
                  jPkLoop   0x010cb8    program     static C:\Program Files\mcc18\src\traditional\math\packFP.asm
             jPkShiftDone   0x010cd4    program     static C:\Program Files\mcc18\src\traditional\math\packFP.asm
               jPkRoundIt   0x010cea    program     static C:\Program Files\mcc18\src\traditional\math\packFP.asm
              __FpReturnW   0x010d02    program     extern C:\Program Files\mcc18\src\traditional\math\packFP.asm
             jPkRoundDone   0x010d02    program     static C:\Program Files\mcc18\src\traditional\math\packFP.asm
              __FpUnPackA   0x010d22    program     extern C:\Program Files\mcc18\src\traditional\math\UnpackFP.asm
                  jUnpkA1   0x010d2c    program     static C:\Program Files\mcc18\src\traditional\math\UnpackFP.asm
                 jUnpkANZ   0x010d3a    program     static C:\Program Files\mcc18\src\traditional\math\UnpackFP.asm
                  jUnpkA2   0x010d44    program     static C:\Program Files\mcc18\src\traditional\math\UnpackFP.asm
                 jUnpkNaN   0x010d4e    program     static C:\Program Files\mcc18\src\traditional\math\UnpackFP.asm
              __FpUnPackB   0x010d52    program     extern C:\Program Files\mcc18\src\traditional\math\UnpackFP.asm
                  jUnpkB1   0x010d5c    program     static C:\Program Files\mcc18\src\traditional\math\UnpackFP.asm
                 jUnpkBNZ   0x010d6a    program     static C:\Program Files\mcc18\src\traditional\math\UnpackFP.asm
                  jUnpkB2   0x010d74    program     static C:\Program Files\mcc18\src\traditional\math\UnpackFP.asm
           OLED_vSetKepad   0x010d7e    program     extern D:\git\70M\Drivers\External-Peripherals\oled_c1.c
              OLED_vSetIO   0x010d90    program     extern D:\git\70M\Drivers\External-Peripherals\oled_c1.c
    OLED_vEnableInterrupt   0x010da8    program     extern D:\git\70M\Drivers\External-Peripherals\oled_c1.c
                CheckBusy   0x010dbe    program     extern D:\git\70M\Drivers\External-Peripherals\oled_c1.c
           ___do_lbl00006   0x010dd8    program     static                          
           ___do_lbl00004   0x010de8    program     static                          
           ___do_lbl00005   0x010dec    program     static                          
       ___return_lbl00003   0x010dee    program     static                          
                 WriteIns   0x010dfc    program     extern D:\git\70M\Drivers\External-Peripherals\oled_c1.c
       ___return_lbl00007   0x010e1e    program     static                          
                WriteData   0x010e2a    program     extern D:\git\70M\Drivers\External-Peripherals\oled_c1.c
       ___return_lbl00008   0x010e50    program     static                          
                 ReadData   0x010e5c    program     extern D:\git\70M\Drivers\External-Peripherals\oled_c1.c
       ___return_lbl00009   0x010e86    program     static                          
              WriteString   0x010e94    program     extern D:\git\70M\Drivers\External-Peripherals\oled_c1.c
           LCDWriteString   0x010ec4    program     extern D:\git\70M\Drivers\External-Peripherals\oled_c1.c
          DRI_vPrintCGRAM   0x010efc    program     extern D:\git\70M\Drivers\External-Peripherals\oled_c1.c
            DRI_vLCDClear   0x010f52    program     extern D:\git\70M\Drivers\External-Peripherals\oled_c1.c
       DRI_vLCDReturnhome   0x010f56    program     extern D:\git\70M\Drivers\External-Peripherals\oled_c1.c
        DRI_vLCDEntryMode   0x010f5a    program     extern D:\git\70M\Drivers\External-Peripherals\oled_c1.c
          DRI_vLCDDisplay   0x010f5e    program     extern D:\git\70M\Drivers\External-Peripherals\oled_c1.c
              Initial_LCD   0x010f88    program     extern D:\git\70M\Drivers\External-Peripherals\oled_c1.c
          PrintCompanyLCD   0x010fa8    program     extern D:\git\70M\Drivers\External-Peripherals\oled_c1.c
        PrintLCDWholePage   0x010ff4    program     extern D:\git\70M\Drivers\External-Peripherals\oled_c1.c
          ___for_lbl00050   0x011016    program     static                          
               __tmplbl_9   0x0110a0    program     static                          
               __tmplbl_8   0x0110a8    program     static                          
           ___if_lbl00049   0x0110b2    program     static                          
          ___for_lbl00046   0x0110b2    program     static                          
          ___for_lbl00047   0x0110b6    program     static                          
          ___for_lbl00055   0x0110c2    program     static                          
              __tmplbl_11   0x0110ea    program     static                          
              __tmplbl_10   0x0110f2    program     static                          
           ___if_lbl00054   0x0110fc    program     static                          
          ___for_lbl00051   0x0110fc    program     static                          
          ___for_lbl00052   0x011100    program     static                          
       ___return_lbl00045   0x011124    program     static                          
           ___if_lbl00056   0x011124    program     static                          
       PrintBlinkMenuText   0x011136    program     extern D:\git\70M\Drivers\External-Peripherals\oled_c1.c
            PrintNewValue   0x0111e2    program     extern D:\git\70M\Drivers\External-Peripherals\oled_c1.c
        PrintEditPosition   0x01120c    program     extern D:\git\70M\Drivers\External-Peripherals\oled_c1.c
            PrintBlinkLCD   0x01127e    program     extern D:\git\70M\Drivers\External-Peripherals\oled_c1.c
                   __pa_0   0x0112d8    program     static D:\git\70M\Drivers\External-Peripherals\oled_c1.c
                   __pa_1   0x0112e4    program     static D:\git\70M\Drivers\External-Peripherals\oled_c1.c
                   __pa_2   0x0112fe    program     static D:\git\70M\Drivers\External-Peripherals\oled_c1.c
                   __pa_3   0x011312    program     static D:\git\70M\Drivers\External-Peripherals\oled_c1.c
                   __pa_4   0x011316    program     static D:\git\70M\Drivers\External-Peripherals\oled_c1.c
                   __pa_5   0x011322    program     static D:\git\70M\Drivers\External-Peripherals\oled_c1.c
                   __pa_6   0x011364    program     static D:\git\70M\Drivers\External-Peripherals\oled_c1.c
                   __pa_7   0x011386    program     static D:\git\70M\Drivers\External-Peripherals\oled_c1.c
                   __pa_8   0x0113b2    program     static D:\git\70M\Drivers\External-Peripherals\oled_c1.c
                   __pa_9   0x0113cc    program     static D:\git\70M\Drivers\External-Peripherals\oled_c1.c
                  __pa_10   0x0113d2    program     static D:\git\70M\Drivers\External-Peripherals\oled_c1.c
                  __pa_11   0x0113ee    program     static D:\git\70M\Drivers\External-Peripherals\oled_c1.c
                  __pa_12   0x0113fe    program     static D:\git\70M\Drivers\External-Peripherals\oled_c1.c
                  __pa_13   0x011402    program     static D:\git\70M\Drivers\External-Peripherals\oled_c1.c
                  __pa_14   0x011408    program     static D:\git\70M\Drivers\External-Peripherals\oled_c1.c
                  __pa_15   0x011410    program     static D:\git\70M\Drivers\External-Peripherals\oled_c1.c
                  __pa_16   0x01141a    program     static D:\git\70M\Drivers\External-Peripherals\oled_c1.c
                  __pa_17   0x01142a    program     static D:\git\70M\Drivers\External-Peripherals\oled_c1.c
                  __pa_18   0x011432    program     static D:\git\70M\Drivers\External-Peripherals\oled_c1.c
                  __pa_19   0x011442    program     static D:\git\70M\Drivers\External-Peripherals\oled_c1.c
                  __pa_20   0x01144e    program     static D:\git\70M\Drivers\External-Peripherals\oled_c1.c
                  __pa_21   0x011456    program     static D:\git\70M\Drivers\External-Peripherals\oled_c1.c
            HTTPNeedsAuth   0x011462    program     extern D:\git\70M\App\WebUI\HTTPApp.c
            HTTPCheckAuth   0x0114a4    program     extern D:\git\70M\App\WebUI\HTTPApp.c
           HTTPExecuteGet   0x0114ec    program     extern D:\git\70M\App\WebUI\HTTPApp.c
          HTTPExecutePost   0x0114f0    program     extern D:\git\70M\App\WebUI\HTTPApp.c
              HTTPPostlut   0x01156e    program     static D:\git\70M\App\WebUI\HTTPApp.c
           HTTPPostConfig   0x011606    program     static D:\git\70M\App\WebUI\HTTPApp.c
                   __pa_0   0x011a1e    program     static D:\git\70M\App\WebUI\HTTPApp.c
                   __pa_1   0x011a2e    program     static D:\git\70M\App\WebUI\HTTPApp.c
                   __pa_2   0x011a3a    program     static D:\git\70M\App\WebUI\HTTPApp.c
                   __pa_3   0x011a48    program     static D:\git\70M\App\WebUI\HTTPApp.c
                   __pa_4   0x011a66    program     static D:\git\70M\App\WebUI\HTTPApp.c
                   __pa_5   0x011a72    program     static D:\git\70M\App\WebUI\HTTPApp.c
                   __pa_6   0x011a82    program     static D:\git\70M\App\WebUI\HTTPApp.c
                   __pa_7   0x011a8e    program     static D:\git\70M\App\WebUI\HTTPApp.c
                   __pa_8   0x011a9a    program     static D:\git\70M\App\WebUI\HTTPApp.c
                   __pa_9   0x011aa2    program     static D:\git\70M\App\WebUI\HTTPApp.c
                  __pa_10   0x011aa6    program     static D:\git\70M\App\WebUI\HTTPApp.c
                  __pa_11   0x011ab4    program     static D:\git\70M\App\WebUI\HTTPApp.c
                  __pa_12   0x011aba    program     static D:\git\70M\App\WebUI\HTTPApp.c
                  __pa_13   0x011ac8    program     static D:\git\70M\App\WebUI\HTTPApp.c
                  __pa_14   0x011ad0    program     static D:\git\70M\App\WebUI\HTTPApp.c
                  __pa_15   0x011ad8    program     static D:\git\70M\App\WebUI\HTTPApp.c
                  __pa_16   0x011ae0    program     static D:\git\70M\App\WebUI\HTTPApp.c
                  __pa_17   0x011aee    program     static D:\git\70M\App\WebUI\HTTPApp.c
                  __pa_18   0x011af8    program     static D:\git\70M\App\WebUI\HTTPApp.c
                  __pa_19   0x011b02    program     static D:\git\70M\App\WebUI\HTTPApp.c
                  __pa_20   0x011b0c    program     static D:\git\70M\App\WebUI\HTTPApp.c
                  __pa_21   0x011b1c    program     static D:\git\70M\App\WebUI\HTTPApp.c
                  __pa_22   0x011b28    program     static D:\git\70M\App\WebUI\HTTPApp.c
                  __pa_23   0x011b32    program     static D:\git\70M\App\WebUI\HTTPApp.c
                  __pa_24   0x011b38    program     static D:\git\70M\App\WebUI\HTTPApp.c
         UpCvt_vPrintFreq   0x011b44    program     extern D:\git\70M\Devices\UpConverter_c1.c
        UpCvt_vPrintPower   0x011b5e    program     extern D:\git\70M\Devices\UpConverter_c1.c
        UpCvt_vPrintStPwr   0x011b78    program     extern D:\git\70M\Devices\UpConverter_c1.c
           UpCvt_vPrintLo   0x011b92    program     extern D:\git\70M\Devices\UpConverter_c1.c
         UpCvt_vPrintAttn   0x011bc4    program     extern D:\git\70M\Devices\UpConverter_c1.c
          UpCvt_vPrintALC   0x011bde    program     extern D:\git\70M\Devices\UpConverter_c1.c
         UpCvt_vPrintMute   0x011bf8    program     extern D:\git\70M\Devices\UpConverter_c1.c
           UpCvt_vSendI2C   0x011c3c    program     extern D:\git\70M\Devices\UpConverter_c1.c
           UpCvt_vSetFreq   0x011c4c    program     extern D:\git\70M\Devices\UpConverter_c1.c
           UpCvt_vSetAttn   0x011dc4    program     extern D:\git\70M\Devices\UpConverter_c1.c
          UpCvt_vSetPower   0x011eb4    program     extern D:\git\70M\Devices\UpConverter_c1.c
          UpCvt_vSetStPwr   0x011eb6    program     extern D:\git\70M\Devices\UpConverter_c1.c
            UpCvt_vSetALC   0x011ff4    program     extern D:\git\70M\Devices\UpConverter_c1.c
           UpCvt_vSetMute   0x012038    program     extern D:\git\70M\Devices\UpConverter_c1.c
                   __pa_0   0x0120c4    program     static D:\git\70M\Devices\UpConverter_c1.c
                   __pa_1   0x0120d0    program     static D:\git\70M\Devices\UpConverter_c1.c
                   __pa_2   0x0120e2    program     static D:\git\70M\Devices\UpConverter_c1.c
                   __pa_3   0x0120ea    program     static D:\git\70M\Devices\UpConverter_c1.c
                   __pa_4   0x0120f6    program     static D:\git\70M\Devices\UpConverter_c1.c
                   __pa_5   0x012100    program     static D:\git\70M\Devices\UpConverter_c1.c
                   __pa_6   0x012116    program     static D:\git\70M\Devices\UpConverter_c1.c
                   __pa_7   0x012126    program     static D:\git\70M\Devices\UpConverter_c1.c
                   __pa_8   0x012130    program     static D:\git\70M\Devices\UpConverter_c1.c
                   __pa_9   0x012142    program     static D:\git\70M\Devices\UpConverter_c1.c
                  __pa_10   0x012150    program     static D:\git\70M\Devices\UpConverter_c1.c
                  __pa_11   0x012158    program     static D:\git\70M\Devices\UpConverter_c1.c
                  __pa_12   0x012166    program     static D:\git\70M\Devices\UpConverter_c1.c
                  __pa_13   0x012178    program     static D:\git\70M\Devices\UpConverter_c1.c
       DownCvt_vPrintFreq   0x012182    program     extern D:\git\70M\Devices\DownConverter_c1.c
      DownCvt_vPrintPower   0x01219c    program     extern D:\git\70M\Devices\DownConverter_c1.c
      DownCvt_vPrintStPwr   0x0121b6    program     extern D:\git\70M\Devices\DownConverter_c1.c
         DownCvt_vPrintLo   0x0121d0    program     extern D:\git\70M\Devices\DownConverter_c1.c
       DownCvt_vPrintAttn   0x012202    program     extern D:\git\70M\Devices\DownConverter_c1.c
        DownCvt_vPrintALC   0x01221c    program     extern D:\git\70M\Devices\DownConverter_c1.c
       DownCvt_vPrintMute   0x012236    program     extern D:\git\70M\Devices\DownConverter_c1.c
         DownCvt_vSendI2C   0x01227a    program     extern D:\git\70M\Devices\DownConverter_c1.c
         DownCvt_vSetFreq   0x01228c    program     extern D:\git\70M\Devices\DownConverter_c1.c
         DownCvt_vSetAttn   0x0123be    program     extern D:\git\70M\Devices\DownConverter_c1.c
        DownCvt_vSetPower   0x0124ae    program     extern D:\git\70M\Devices\DownConverter_c1.c
        DownCvt_vSetStPwr   0x0124b0    program     extern D:\git\70M\Devices\DownConverter_c1.c
          DownCvt_vSetALC   0x0125ee    program     extern D:\git\70M\Devices\DownConverter_c1.c
         DownCvt_vSetMute   0x012636    program     extern D:\git\70M\Devices\DownConverter_c1.c
                   __pa_0   0x0126b8    program     static D:\git\70M\Devices\DownConverter_c1.c
                   __pa_1   0x0126c4    program     static D:\git\70M\Devices\DownConverter_c1.c
                   __pa_2   0x0126d6    program     static D:\git\70M\Devices\DownConverter_c1.c
                   __pa_3   0x0126de    program     static D:\git\70M\Devices\DownConverter_c1.c
                   __pa_4   0x0126ea    program     static D:\git\70M\Devices\DownConverter_c1.c
                   __pa_5   0x012700    program     static D:\git\70M\Devices\DownConverter_c1.c
                   __pa_6   0x012710    program     static D:\git\70M\Devices\DownConverter_c1.c
                   __pa_7   0x01271a    program     static D:\git\70M\Devices\DownConverter_c1.c
                   __pa_8   0x012724    program     static D:\git\70M\Devices\DownConverter_c1.c
                   __pa_9   0x012736    program     static D:\git\70M\Devices\DownConverter_c1.c
                  __pa_10   0x012744    program     static D:\git\70M\Devices\DownConverter_c1.c
                  __pa_11   0x01274c    program     static D:\git\70M\Devices\DownConverter_c1.c
                  __pa_12   0x01275a    program     static D:\git\70M\Devices\DownConverter_c1.c
                  __pa_13   0x01276c    program     static D:\git\70M\Devices\DownConverter_c1.c
                   ARPPut   0x012776    program     static D:\git\70M\Microchip\TCPIP Stack\ARP.c
                  ARPInit   0x01283e    program     extern D:\git\70M\Microchip\TCPIP Stack\ARP.c
               ARPProcess   0x012856    program     extern D:\git\70M\Microchip\TCPIP Stack\ARP.c
               ARPResolve   0x0129ec    program     extern D:\git\70M\Microchip\TCPIP Stack\ARP.c
            ARPIsResolved   0x012a96    program     extern D:\git\70M\Microchip\TCPIP Stack\ARP.c
            SwapARPPacket   0x012b38    program     extern D:\git\70M\Microchip\TCPIP Stack\ARP.c
                   __pa_0   0x012b60    program     static D:\git\70M\Microchip\TCPIP Stack\ARP.c
                   __pa_1   0x012b6e    program     static D:\git\70M\Microchip\TCPIP Stack\ARP.c
                   __pa_2   0x012b7a    program     static D:\git\70M\Microchip\TCPIP Stack\ARP.c
                   __pa_3   0x012b86    program     static D:\git\70M\Microchip\TCPIP Stack\ARP.c
                   __pa_4   0x012b9a    program     static D:\git\70M\Microchip\TCPIP Stack\ARP.c
                   __pa_5   0x012ba4    program     static D:\git\70M\Microchip\TCPIP Stack\ARP.c
                   __pa_6   0x012bb4    program     static D:\git\70M\Microchip\TCPIP Stack\ARP.c
                   __pa_7   0x012bc0    program     static D:\git\70M\Microchip\TCPIP Stack\ARP.c
                   __pa_8   0x012bce    program     static D:\git\70M\Microchip\TCPIP Stack\ARP.c
                   __pa_9   0x012bdc    program     static D:\git\70M\Microchip\TCPIP Stack\ARP.c
                  __pa_10   0x012bf8    program     static D:\git\70M\Microchip\TCPIP Stack\ARP.c
                  __pa_11   0x012c00    program     static D:\git\70M\Microchip\TCPIP Stack\ARP.c
                   memchr   0x012c0a    program     extern C:\Program Files\mcc18\src\traditional\stdclib\memchr.asm
                    jLoop   0x012c16    program     static C:\Program Files\mcc18\src\traditional\stdclib\memchr.asm
              _2jContinue   0x012c22    program     static C:\Program Files\mcc18\src\traditional\stdclib\memchr.asm
                   _3jEnd   0x012c2c    program     static C:\Program Files\mcc18\src\traditional\stdclib\memchr.asm
                 jNoMatch   0x012c40    program     static C:\Program Files\mcc18\src\traditional\stdclib\memchr.asm
                     jEnd   0x012c44    program     static C:\Program Files\mcc18\src\traditional\stdclib\memchr.asm
            memcmppgm2ram   0x012c46    program     extern C:\Program Files\mcc18\src\traditional\stdclib\mcmpp2r.asm
                    jLoop   0x012c64    program     static C:\Program Files\mcc18\src\traditional\stdclib\mcmpp2r.asm
              _3jContinue   0x012c70    program     static C:\Program Files\mcc18\src\traditional\stdclib\mcmpp2r.asm
                   _4jEnd   0x012c7a    program     static C:\Program Files\mcc18\src\traditional\stdclib\mcmpp2r.asm
                     jEnd   0x012c82    program     static C:\Program Files\mcc18\src\traditional\stdclib\mcmpp2r.asm
                   memcpy   0x012c84    program     extern C:\Program Files\mcc18\src\traditional\stdclib\memcpy.asm
                    jLoop   0x012cac    program     static C:\Program Files\mcc18\src\traditional\stdclib\memcpy.asm
              _4jContinue   0x012cb8    program     static C:\Program Files\mcc18\src\traditional\stdclib\memcpy.asm
                   _5jEnd   0x012cc2    program     static C:\Program Files\mcc18\src\traditional\stdclib\memcpy.asm
                     jEnd   0x012cc8    program     static C:\Program Files\mcc18\src\traditional\stdclib\memcpy.asm
            memcpypgm2ram   0x012cda    program     extern C:\Program Files\mcc18\src\traditional\stdclib\mcpyp2r.asm
                    jLoop   0x012d00    program     static C:\Program Files\mcc18\src\traditional\stdclib\mcpyp2r.asm
              _3jContinue   0x012d0c    program     static C:\Program Files\mcc18\src\traditional\stdclib\mcpyp2r.asm
                   _4jEnd   0x012d16    program     static C:\Program Files\mcc18\src\traditional\stdclib\mcpyp2r.asm
                     jEnd   0x012d1e    program     static C:\Program Files\mcc18\src\traditional\stdclib\mcpyp2r.asm
                   memset   0x012d20    program     extern C:\Program Files\mcc18\src\traditional\stdclib\memset.asm
                    jLoop   0x012d34    program     static C:\Program Files\mcc18\src\traditional\stdclib\memset.asm
              _2jContinue   0x012d40    program     static C:\Program Files\mcc18\src\traditional\stdclib\memset.asm
                   _3jEnd   0x012d4a    program     static C:\Program Files\mcc18\src\traditional\stdclib\memset.asm
                     jEnd   0x012d52    program     static C:\Program Files\mcc18\src\traditional\stdclib\memset.asm
                   strcat   0x012d54    program     extern C:\Program Files\mcc18\src\traditional\stdclib\strcat.asm
                jNullLoop   0x012d7c    program     static C:\Program Files\mcc18\src\traditional\stdclib\strcat.asm
                    jLoop   0x012d82    program     static C:\Program Files\mcc18\src\traditional\stdclib\strcat.asm
            strcatpgm2ram   0x012d9c    program     extern C:\Program Files\mcc18\src\traditional\stdclib\scatp2r.asm
                jNullLoop   0x012dc2    program     static C:\Program Files\mcc18\src\traditional\stdclib\scatp2r.asm
                    jLoop   0x012dc8    program     static C:\Program Files\mcc18\src\traditional\stdclib\scatp2r.asm
                     jEnd   0x012dd2    program     static C:\Program Files\mcc18\src\traditional\stdclib\scatp2r.asm
                   strchr   0x012dd4    program     extern C:\Program Files\mcc18\src\traditional\stdclib\strchr.asm
                    jLoop   0x012de0    program     static C:\Program Files\mcc18\src\traditional\stdclib\strchr.asm
                   jMatch   0x012df2    program     static C:\Program Files\mcc18\src\traditional\stdclib\strchr.asm
                     jEnd   0x012dfa    program     static C:\Program Files\mcc18\src\traditional\stdclib\strchr.asm
                   strcmp   0x012dfc    program     extern C:\Program Files\mcc18\src\traditional\stdclib\strcmp.asm
                    jLoop   0x012e1c    program     static C:\Program Files\mcc18\src\traditional\stdclib\strcmp.asm
                     jEnd   0x012e26    program     static C:\Program Files\mcc18\src\traditional\stdclib\strcmp.asm
            strcmppgm2ram   0x012e3c    program     extern C:\Program Files\mcc18\src\traditional\stdclib\scmpp2r.asm
                    jLoop   0x012e5a    program     static C:\Program Files\mcc18\src\traditional\stdclib\scmpp2r.asm
                     jEnd   0x012e66    program     static C:\Program Files\mcc18\src\traditional\stdclib\scmpp2r.asm
                   strcpy   0x012e68    program     extern C:\Program Files\mcc18\src\traditional\stdclib\strcpy.asm
                    jLoop   0x012e90    program     static C:\Program Files\mcc18\src\traditional\stdclib\strcpy.asm
            strcpypgm2ram   0x012eaa    program     extern C:\Program Files\mcc18\src\traditional\stdclib\scpyp2r.asm
                    jLoop   0x012ed0    program     static C:\Program Files\mcc18\src\traditional\stdclib\scpyp2r.asm
                     jEnd   0x012eda    program     static C:\Program Files\mcc18\src\traditional\stdclib\scpyp2r.asm
                   strlen   0x012edc    program     extern C:\Program Files\mcc18\src\traditional\stdclib\strlen.asm
                    jLoop   0x012eec    program     static C:\Program Files\mcc18\src\traditional\stdclib\strlen.asm
                     jEnd   0x012ef6    program     static C:\Program Files\mcc18\src\traditional\stdclib\strlen.asm
                strlenpgm   0x012ef8    program     extern C:\Program Files\mcc18\src\traditional\stdclib\slenpgm.asm
                    jLoop   0x012f16    program     static C:\Program Files\mcc18\src\traditional\stdclib\slenpgm.asm
                   _2jEnd   0x012f2c    program     static C:\Program Files\mcc18\src\traditional\stdclib\slenpgm.asm
                     jEnd   0x012f2e    program     static C:\Program Files\mcc18\src\traditional\stdclib\slenpgm.asm
                  strncat   0x012f42    program     extern C:\Program Files\mcc18\src\traditional\stdclib\strncat.asm
                jNullLoop   0x012f6a    program     static C:\Program Files\mcc18\src\traditional\stdclib\strncat.asm
                    jLoop   0x012f70    program     static C:\Program Files\mcc18\src\traditional\stdclib\strncat.asm
              _4jContinue   0x012f7c    program     static C:\Program Files\mcc18\src\traditional\stdclib\strncat.asm
                   _5jEnd   0x012f86    program     static C:\Program Files\mcc18\src\traditional\stdclib\strncat.asm
                    jTerm   0x012f90    program     static C:\Program Files\mcc18\src\traditional\stdclib\strncat.asm
                     jEnd   0x012f92    program     static C:\Program Files\mcc18\src\traditional\stdclib\strncat.asm
                  strncpy   0x012fa4    program     extern C:\Program Files\mcc18\src\traditional\stdclib\strncpy.asm
                    jLoop   0x012fcc    program     static C:\Program Files\mcc18\src\traditional\stdclib\strncpy.asm
              _4jContinue   0x012fd8    program     static C:\Program Files\mcc18\src\traditional\stdclib\strncpy.asm
                   _5jEnd   0x012fe2    program     static C:\Program Files\mcc18\src\traditional\stdclib\strncpy.asm
                     jEnd   0x012fee    program     static C:\Program Files\mcc18\src\traditional\stdclib\strncpy.asm
           strncpypgm2ram   0x013000    program     extern C:\Program Files\mcc18\src\traditional\stdclib\sncpyp2r.asm
                    jLoop   0x013026    program     static C:\Program Files\mcc18\src\traditional\stdclib\sncpyp2r.asm
              _3jContinue   0x013032    program     static C:\Program Files\mcc18\src\traditional\stdclib\sncpyp2r.asm
                   _4jEnd   0x01303c    program     static C:\Program Files\mcc18\src\traditional\stdclib\sncpyp2r.asm
                     jEnd   0x01304a    program     static C:\Program Files\mcc18\src\traditional\stdclib\sncpyp2r.asm
                   strupr   0x01304c    program     extern C:\Program Files\mcc18\src\traditional\stdclib\strupr.asm
                    jLoop   0x013060    program     static C:\Program Files\mcc18\src\traditional\stdclib\strupr.asm
                    jSkip   0x013070    program     static C:\Program Files\mcc18\src\traditional\stdclib\strupr.asm
                     jEnd   0x013074    program     static C:\Program Files\mcc18\src\traditional\stdclib\strupr.asm
   Main_vPrintUpConverter   0x013076    program     extern D:\git\70M\Devices\MainControl_c1.c
 Main_vPrintDownConverter   0x0130dc    program     extern D:\git\70M\Devices\MainControl_c1.c
       Main_vPrintVolCtrl   0x013142    program     extern D:\git\70M\Devices\MainControl_c1.c
    Main_vPrintDeviceInfo   0x013186    program     extern D:\git\70M\Devices\MainControl_c1.c
            Main_vPrintIP   0x013276    program     extern D:\git\70M\Devices\MainControl_c1.c
       Main_vPrintModelNo   0x013290    program     extern D:\git\70M\Devices\MainControl_c1.c
      Main_vPrintSerialNo   0x0132a0    program     extern D:\git\70M\Devices\MainControl_c1.c
              Main_vSetIP   0x0132ba    program     extern D:\git\70M\Devices\MainControl_c1.c
              Main_vLEDLO   0x013320    program     extern D:\git\70M\Devices\MainControl_c1.c
              Main_vLEDTX   0x013334    program     extern D:\git\70M\Devices\MainControl_c1.c
              Main_vLEDRX   0x013348    program     extern D:\git\70M\Devices\MainControl_c1.c
            Main_vLEDInit   0x01335c    program     extern D:\git\70M\Devices\MainControl_c1.c
                   __pa_0   0x013364    program     static D:\git\70M\Devices\MainControl_c1.c
                   __pa_1   0x013370    program     static D:\git\70M\Devices\MainControl_c1.c
                   __pa_2   0x01337c    program     static D:\git\70M\Devices\MainControl_c1.c
                   __pa_3   0x013388    program     static D:\git\70M\Devices\MainControl_c1.c
                   __pa_4   0x013394    program     static D:\git\70M\Devices\MainControl_c1.c
                   __pa_5   0x0133a0    program     static D:\git\70M\Devices\MainControl_c1.c
                   __pa_6   0x0133ac    program     static D:\git\70M\Devices\MainControl_c1.c
                   __pa_7   0x0133b8    program     static D:\git\70M\Devices\MainControl_c1.c
                   __pa_8   0x0133c4    program     static D:\git\70M\Devices\MainControl_c1.c
                   __pa_9   0x0133d0    program     static D:\git\70M\Devices\MainControl_c1.c
                  __pa_10   0x0133da    program     static D:\git\70M\Devices\MainControl_c1.c
                  __pa_11   0x0133e0    program     static D:\git\70M\Devices\MainControl_c1.c
                  __pa_12   0x0133e6    program     static D:\git\70M\Devices\MainControl_c1.c
                  __pa_13   0x0133f0    program     static D:\git\70M\Devices\MainControl_c1.c
                  __pa_14   0x0133fe    program     static D:\git\70M\Devices\MainControl_c1.c
                  __pa_15   0x013404    program     static D:\git\70M\Devices\MainControl_c1.c
                  __pa_16   0x01340e    program     static D:\git\70M\Devices\MainControl_c1.c
                  __pa_17   0x013416    program     static D:\git\70M\Devices\MainControl_c1.c
                  __pa_18   0x013428    program     static D:\git\70M\Devices\MainControl_c1.c
                  __pa_19   0x01343a    program     static D:\git\70M\Devices\MainControl_c1.c
                  __pa_20   0x01344a    program     static D:\git\70M\Devices\MainControl_c1.c
                  __pa_21   0x013458    program     static D:\git\70M\Devices\MainControl_c1.c
                  __pa_22   0x013466    program     static D:\git\70M\Devices\MainControl_c1.c
                 InitData   0x01346c    program     extern D:\git\70M\Bootstrap\Initialization.c
          InitializeBoard   0x013564    program     extern D:\git\70M\Bootstrap\Initialization.c
            InitAppConfig   0x0135ac    program     extern D:\git\70M\Bootstrap\Initialization.c
          SetDefaultValue   0x013664    program     extern D:\git\70M\Bootstrap\Initialization.c
                   __pa_0   0x0136e6    program     static D:\git\70M\Bootstrap\Initialization.c
                   __pa_1   0x013706    program     static D:\git\70M\Bootstrap\Initialization.c
                   __pa_2   0x01375e    program     static D:\git\70M\Bootstrap\Initialization.c
                   __pa_3   0x01376e    program     static D:\git\70M\Bootstrap\Initialization.c
                   __pa_4   0x013798    program     static D:\git\70M\Bootstrap\Initialization.c
                   __pa_5   0x0137a6    program     static D:\git\70M\Bootstrap\Initialization.c
                   __pa_6   0x0137b4    program     static D:\git\70M\Bootstrap\Initialization.c
                   __pa_7   0x0137be    program     static D:\git\70M\Bootstrap\Initialization.c
                   __pa_8   0x0137cc    program     static D:\git\70M\Bootstrap\Initialization.c
                   __pa_9   0x0137d8    program     static D:\git\70M\Bootstrap\Initialization.c
                  __pa_10   0x0137e2    program     static D:\git\70M\Bootstrap\Initialization.c
        VOLCTRL_vPrint18V   0x0137ee    program     extern D:\git\70M\Devices\VOLDC_c1 .c
        VOLCTRL_vPrint24V   0x01380a    program     extern D:\git\70M\Devices\VOLDC_c1 .c
     VOLCTRL_vPrintLNBREF   0x013826    program     extern D:\git\70M\Devices\VOLDC_c1 .c
     VOLCTRL_vPrintBUCREF   0x013842    program     extern D:\git\70M\Devices\VOLDC_c1 .c
     VOLCTRL_vPrintEXTREF   0x01385e    program     extern D:\git\70M\Devices\VOLDC_c1 .c
       VOLCTRL_vPrintBUCI   0x013898    program     extern D:\git\70M\Devices\VOLDC_c1 .c
       VOLCTRL_vPrintLNBI   0x0138cc    program     extern D:\git\70M\Devices\VOLDC_c1 .c
     VOLCTRL_vPrintBUCAlm   0x013900    program     extern D:\git\70M\Devices\VOLDC_c1 .c
     VOLCTRL_vPrintLNBAlm   0x01391c    program     extern D:\git\70M\Devices\VOLDC_c1 .c
         VOLCTRL_vSendI2C   0x013938    program     extern D:\git\70M\Devices\VOLDC_c1 .c
          VOLCTRL_vSet18V   0x01394e    program     extern D:\git\70M\Devices\VOLDC_c1 .c
          VOLCTRL_vSet24V   0x01397c    program     extern D:\git\70M\Devices\VOLDC_c1 .c
       VOLCTRL_vSetLNBREF   0x0139aa    program     extern D:\git\70M\Devices\VOLDC_c1 .c
       VOLCTRL_vSetBUCREF   0x0139d8    program     extern D:\git\70M\Devices\VOLDC_c1 .c
     VOLCTRL_vClearBUCAlm   0x013a06    program     extern D:\git\70M\Devices\VOLDC_c1 .c
     VOLCTRL_vClearLNBAlm   0x013a26    program     extern D:\git\70M\Devices\VOLDC_c1 .c
                   __pa_0   0x013a46    program     static D:\git\70M\Devices\VOLDC_c1 .c
                   __pa_1   0x013a5c    program     static D:\git\70M\Devices\VOLDC_c1 .c
                   __pa_2   0x013a66    program     static D:\git\70M\Devices\VOLDC_c1 .c
                   __pa_3   0x013a74    program     static D:\git\70M\Devices\VOLDC_c1 .c
                   __pa_4   0x013a80    program     static D:\git\70M\Devices\VOLDC_c1 .c
                   __pa_5   0x013a8c    program     static D:\git\70M\Devices\VOLDC_c1 .c
                   __pa_6   0x013a96    program     static D:\git\70M\Devices\VOLDC_c1 .c
                   __pa_7   0x013a9c    program     static D:\git\70M\Devices\VOLDC_c1 .c
                   __pa_8   0x013aa4    program     static D:\git\70M\Devices\VOLDC_c1 .c
                   __pa_9   0x013aac    program     static D:\git\70M\Devices\VOLDC_c1 .c
                  __pa_10   0x013ab4    program     static D:\git\70M\Devices\VOLDC_c1 .c
                  __pa_11   0x013abc    program     static D:\git\70M\Devices\VOLDC_c1 .c
                  __pa_12   0x013ac6    program     static D:\git\70M\Devices\VOLDC_c1 .c
                  __pa_13   0x013ad8    program     static D:\git\70M\Devices\VOLDC_c1 .c
                  __pa_14   0x013af0    program     static D:\git\70M\Devices\VOLDC_c1 .c
                  __pa_15   0x013b04    program     static D:\git\70M\Devices\VOLDC_c1 .c
                  __pa_16   0x013b0e    program     static D:\git\70M\Devices\VOLDC_c1 .c
                  __pa_17   0x013b18    program     static D:\git\70M\Devices\VOLDC_c1 .c
                  __pa_18   0x013b20    program     static D:\git\70M\Devices\VOLDC_c1 .c
                  __pa_19   0x013b30    program     static D:\git\70M\Devices\VOLDC_c1 .c
        DRI__vHitWatchDog   0x013b3c    program     static D:\git\70M\Main\Main.c   
       ___return_lbl00000   0x013b3e    program     static                          
    DRI__vEnableGlobalInt   0x013b40    program     static D:\git\70M\Main\Main.c   
          DRI__vConfigSPI   0x013b4a    program     static D:\git\70M\Main\Main.c   
         SYS__vStatusTask   0x013b5a    program     static D:\git\70M\Main\Main.c   
       SYS__vLcdBlinkTask   0x013ba4    program     static D:\git\70M\Main\Main.c   
      SYS__vLcdKeyPadTask   0x013c0a    program     static D:\git\70M\Main\Main.c   
   HTTP_vClearWebPassword   0x013c70    program     static D:\git\70M\Main\Main.c   
          SYS__u8InitData   0x013cc6    program     static D:\git\70M\Main\Main.c   
                     main   0x013d7e    program     extern D:\git\70M\Main\Main.c   
              IPGetHeader   0x013e82    program     extern D:\git\70M\Microchip\TCPIP Stack\IP.c
              IPPutHeader   0x013fbe    program     extern D:\git\70M\Microchip\TCPIP Stack\IP.c
            IPSetRxBuffer   0x0140c4    program     extern D:\git\70M\Microchip\TCPIP Stack\IP.c
             SwapIPHeader   0x0140f2    program     static D:\git\70M\Microchip\TCPIP Stack\IP.c
                   __pa_0   0x014110    program     static D:\git\70M\Microchip\TCPIP Stack\IP.c
                   __pa_1   0x014132    program     static D:\git\70M\Microchip\TCPIP Stack\IP.c
                   __pa_2   0x01413e    program     static D:\git\70M\Microchip\TCPIP Stack\IP.c
                   __pa_3   0x01414a    program     static D:\git\70M\Microchip\TCPIP Stack\IP.c
                   __pa_4   0x014150    program     static D:\git\70M\Microchip\TCPIP Stack\IP.c
                   __pa_5   0x014166    program     static D:\git\70M\Microchip\TCPIP Stack\IP.c
                   __pa_6   0x014170    program     static D:\git\70M\Microchip\TCPIP Stack\IP.c
                   __pa_7   0x01417a    program     static D:\git\70M\Microchip\TCPIP Stack\IP.c
                   __pa_8   0x014188    program     static D:\git\70M\Microchip\TCPIP Stack\IP.c
                   __pa_9   0x014196    program     static D:\git\70M\Microchip\TCPIP Stack\IP.c
                  __pa_10   0x0141a6    program     static D:\git\70M\Microchip\TCPIP Stack\IP.c
                  XEEInit   0x0141b0    program     extern D:\git\70M\Microchip\TCPIP Stack\SPIEEPROM.c
             XEEBeginRead   0x0141c6    program     extern D:\git\70M\Microchip\TCPIP Stack\SPIEEPROM.c
                  XEERead   0x0141d2    program     extern D:\git\70M\Microchip\TCPIP Stack\SPIEEPROM.c
               XEEEndRead   0x014228    program     extern D:\git\70M\Microchip\TCPIP Stack\SPIEEPROM.c
             XEEReadArray   0x01422a    program     extern D:\git\70M\Microchip\TCPIP Stack\SPIEEPROM.c
            XEEBeginWrite   0x0142be    program     extern D:\git\70M\Microchip\TCPIP Stack\SPIEEPROM.c
                 XEEWrite   0x0142ca    program     extern D:\git\70M\Microchip\TCPIP Stack\SPIEEPROM.c
            XEEWriteArray   0x0142f8    program     extern D:\git\70M\Microchip\TCPIP Stack\SPIEEPROM.c
              XEEEndWrite   0x014332    program     extern D:\git\70M\Microchip\TCPIP Stack\SPIEEPROM.c
                  DoWrite   0x01433c    program     static D:\git\70M\Microchip\TCPIP Stack\SPIEEPROM.c
                XEEIsBusy   0x0143e4    program     extern D:\git\70M\Microchip\TCPIP Stack\SPIEEPROM.c
                   __pa_0   0x014422    program     static D:\git\70M\Microchip\TCPIP Stack\SPIEEPROM.c
                   __pa_1   0x014434    program     static D:\git\70M\Microchip\TCPIP Stack\SPIEEPROM.c
                   __pa_2   0x014440    program     static D:\git\70M\Microchip\TCPIP Stack\SPIEEPROM.c
                   __pa_3   0x01445a    program     static D:\git\70M\Microchip\TCPIP Stack\SPIEEPROM.c
                   __pa_4   0x01446a    program     static D:\git\70M\Microchip\TCPIP Stack\SPIEEPROM.c
                   __pa_5   0x014474    program     static D:\git\70M\Microchip\TCPIP Stack\SPIEEPROM.c
                   __pa_6   0x014486    program     static D:\git\70M\Microchip\TCPIP Stack\SPIEEPROM.c
                   __pa_7   0x014492    program     static D:\git\70M\Microchip\TCPIP Stack\SPIEEPROM.c
                   __pa_8   0x0144a2    program     static D:\git\70M\Microchip\TCPIP Stack\SPIEEPROM.c
                 I2C_Send   0x0144aa    program     extern D:\git\70M\Drivers\MCU-Internal\i2c_c1.c
                 I2C_Read   0x0144d6    program     extern D:\git\70M\Drivers\MCU-Internal\i2c_c1.c
              i2csendbyte   0x014512    program     extern D:\git\70M\Drivers\MCU-Internal\i2c_c1.c
               i2cgetbyte   0x014544    program     extern D:\git\70M\Drivers\MCU-Internal\i2c_c1.c
                 i2cstart   0x01457c    program     extern D:\git\70M\Drivers\MCU-Internal\i2c_c1.c
                  i2cstop   0x014590    program     extern D:\git\70M\Drivers\MCU-Internal\i2c_c1.c
                 i2cclock   0x0145a2    program     extern D:\git\70M\Drivers\MCU-Internal\i2c_c1.c
               i2creadbit   0x0145ae    program     extern D:\git\70M\Drivers\MCU-Internal\i2c_c1.c
                i2cgetack   0x0145ce    program     extern D:\git\70M\Drivers\MCU-Internal\i2c_c1.c
               i2csendack   0x0145e8    program     extern D:\git\70M\Drivers\MCU-Internal\i2c_c1.c
              i2csendnack   0x0145ec    program     extern D:\git\70M\Drivers\MCU-Internal\i2c_c1.c
                 i2cdelay   0x0145f0    program     extern D:\git\70M\Drivers\MCU-Internal\i2c_c1.c
                   SetI2C   0x014638    program     extern D:\git\70M\Drivers\MCU-Internal\i2c_c1.c
                   __pa_0   0x0146d6    program     static D:\git\70M\Drivers\MCU-Internal\i2c_c1.c
                   __pa_1   0x0146de    program     static D:\git\70M\Drivers\MCU-Internal\i2c_c1.c
                   __pa_2   0x0146f0    program     static D:\git\70M\Drivers\MCU-Internal\i2c_c1.c
                   __pa_3   0x014710    program     static D:\git\70M\Drivers\MCU-Internal\i2c_c1.c
                   __pa_4   0x01471c    program     static D:\git\70M\Drivers\MCU-Internal\i2c_c1.c
                   __pa_5   0x014736    program     static D:\git\70M\Drivers\MCU-Internal\i2c_c1.c
                   __pa_6   0x014742    program     static D:\git\70M\Drivers\MCU-Internal\i2c_c1.c
                   __pa_7   0x014750    program     static D:\git\70M\Drivers\MCU-Internal\i2c_c1.c
                   __pa_8   0x01475e    program     static D:\git\70M\Drivers\MCU-Internal\i2c_c1.c
                   __pa_9   0x014768    program     static D:\git\70M\Drivers\MCU-Internal\i2c_c1.c
                  __pa_10   0x014772    program     static D:\git\70M\Drivers\MCU-Internal\i2c_c1.c
                  __pa_11   0x014782    program     static D:\git\70M\Drivers\MCU-Internal\i2c_c1.c
                  __pa_12   0x014790    program     static D:\git\70M\Drivers\MCU-Internal\i2c_c1.c
                  __pa_13   0x01479a    program     static D:\git\70M\Drivers\MCU-Internal\i2c_c1.c
                  AD_init   0x0147a0    program     extern D:\git\70M\Drivers\MCU-Internal\internalADC.c
                 Read_ADC   0x0147d2    program     extern D:\git\70M\Drivers\MCU-Internal\internalADC.c
        ___while_lbl00002   0x014890    program     static                          
        ___while_lbl00003   0x014898    program     static                          
       ___return_lbl00001   0x0148ac    program     static                          
                ADC_Value   0x0148b8    program     extern D:\git\70M\Drivers\MCU-Internal\internalADC.c
       ___return_lbl00004   0x014984    program     static                          
                GetOneADC   0x01499c    program     extern D:\git\70M\Drivers\MCU-Internal\internalADC.c
                StackInit   0x0149f2    program     extern D:\git\70M\Microchip\TCPIP Stack\StackTsk.c
                StackTask   0x014a22    program     extern D:\git\70M\Microchip\TCPIP Stack\StackTsk.c
        StackApplications   0x014bae    program     extern D:\git\70M\Microchip\TCPIP Stack\StackTsk.c
                   __pa_0   0x014bb2    program     static D:\git\70M\Microchip\TCPIP Stack\StackTsk.c
                   __pa_1   0x014bc0    program     static D:\git\70M\Microchip\TCPIP Stack\StackTsk.c
                   __pa_2   0x014bcc    program     static D:\git\70M\Microchip\TCPIP Stack\StackTsk.c
             GetOneCHADC0   0x014bd6    program     extern D:\git\70M\Drivers\External-Peripherals\devadc.c
       GetOneCHADC012Bits   0x014c0c    program     extern D:\git\70M\Drivers\External-Peripherals\devadc.c
             GetOneCHADC1   0x014c2a    program     extern D:\git\70M\Drivers\External-Peripherals\devadc.c
       GetOneCHADC112Bits   0x014c60    program     extern D:\git\70M\Drivers\External-Peripherals\devadc.c
   GetCurrentFromHexValue   0x014c7c    program     extern D:\git\70M\Drivers\External-Peripherals\devadc.c
                   __pa_0   0x014cee    program     static D:\git\70M\Drivers\External-Peripherals\devadc.c
                   __pa_1   0x014d34    program     static D:\git\70M\Drivers\External-Peripherals\devadc.c
                   __pa_2   0x014d3c    program     static D:\git\70M\Drivers\External-Peripherals\devadc.c
                   __pa_3   0x014d48    program     static D:\git\70M\Drivers\External-Peripherals\devadc.c
                   __pa_4   0x014d62    program     static D:\git\70M\Drivers\External-Peripherals\devadc.c
                   __pa_5   0x014d70    program     static D:\git\70M\Drivers\External-Peripherals\devadc.c
                   __pa_6   0x014d82    program     static D:\git\70M\Drivers\External-Peripherals\devadc.c
                   __pa_7   0x014d94    program     static D:\git\70M\Drivers\External-Peripherals\devadc.c
                   __pa_8   0x014da6    program     static D:\git\70M\Drivers\External-Peripherals\devadc.c
                   LowISR   0x014db4    program     extern D:\git\70M\Drivers\MCU-Internal\ISR.c
                  HighISR   0x014e9e    program     extern D:\git\70M\Drivers\MCU-Internal\ISR.c
                   __pa_0   0x014eee    program     static D:\git\70M\Drivers\MCU-Internal\ISR.c
                   __pa_1   0x014f18    program     static D:\git\70M\Drivers\MCU-Internal\ISR.c
                   __pa_2   0x014f42    program     static D:\git\70M\Drivers\MCU-Internal\ISR.c
                   __pa_3   0x014f5a    program     static D:\git\70M\Drivers\MCU-Internal\ISR.c
                     atol   0x014f6c    program     extern C:\Program Files\mcc18\src\traditional\stdclib\atol.asm
                  jSkipWS   0x014fa2    program     static C:\Program Files\mcc18\src\traditional\stdclib\atol.asm
                 jSkipWS1   0x014fb4    program     static C:\Program Files\mcc18\src\traditional\stdclib\atol.asm
                 jTstSign   0x014fb8    program     static C:\Program Files\mcc18\src\traditional\stdclib\atol.asm
                jTstSign1   0x014fc4    program     static C:\Program Files\mcc18\src\traditional\stdclib\atol.asm
                jTstSign2   0x014fca    program     static C:\Program Files\mcc18\src\traditional\stdclib\atol.asm
                jTstSign3   0x014fcc    program     static C:\Program Files\mcc18\src\traditional\stdclib\atol.asm
                    jLoop   0x014fcc    program     static C:\Program Files\mcc18\src\traditional\stdclib\atol.asm
                 jEndLoop   0x01505a    program     static C:\Program Files\mcc18\src\traditional\stdclib\atol.asm
                     jEnd   0x01508a    program     static C:\Program Files\mcc18\src\traditional\stdclib\atol.asm
                  _14jEnd   0x01508a    program     static C:\Program Files\mcc18\src\traditional\stdclib\atol.asm
                    srand   0x0150c2    program     extern C:\Program Files\mcc18\src\traditional\stdclib\rand.asm
                     rand   0x0150d0    program     extern C:\Program Files\mcc18\src\traditional\stdclib\rand.asm
              ICMPProcess   0x0150fe    program     extern D:\git\70M\Microchip\TCPIP Stack\ICMP.c
                   __pa_0   0x015220    program     static D:\git\70M\Microchip\TCPIP Stack\ICMP.c
                   __pa_1   0x015230    program     static D:\git\70M\Microchip\TCPIP Stack\ICMP.c
                   __pa_2   0x01523e    program     static D:\git\70M\Microchip\TCPIP Stack\ICMP.c
                 TickInit   0x015248    program     extern D:\git\70M\Microchip\TCPIP Stack\Tick.c
              GetTickCopy   0x015258    program     static D:\git\70M\Microchip\TCPIP Stack\Tick.c
           ___do_lbl00004   0x015258    program     static                          
           ___do_lbl00002   0x015276    program     static                          
           ___do_lbl00003   0x01527a    program     static                          
       ___return_lbl00001   0x01527c    program     static                          
                  TickGet   0x01527e    program     extern D:\git\70M\Microchip\TCPIP Stack\Tick.c
            TickGetDiv256   0x015292    program     extern D:\git\70M\Microchip\TCPIP Stack\Tick.c
            TickGetDiv64K   0x0152b6    program     extern D:\git\70M\Microchip\TCPIP Stack\Tick.c
TickConvertToMilliseconds   0x0152da    program     extern D:\git\70M\Microchip\TCPIP Stack\Tick.c
               TickUpdate   0x015310    program     extern D:\git\70M\Microchip\TCPIP Stack\Tick.c
                   __pa_0   0x015324    program     static D:\git\70M\Microchip\TCPIP Stack\Tick.c
                   __pa_1   0x015332    program     static D:\git\70M\Microchip\TCPIP Stack\Tick.c
                   __pa_2   0x01534c    program     static D:\git\70M\Microchip\TCPIP Stack\Tick.c
                   __pa_3   0x015358    program     static D:\git\70M\Microchip\TCPIP Stack\Tick.c
                BusyUSART   0x01536a    program     extern D:\git\70M\Microchip\TCPIP Stack\UART.c
               CloseUSART   0x015376    program     extern D:\git\70M\Microchip\TCPIP Stack\UART.c
             DataRdyUSART   0x015382    program     extern D:\git\70M\Microchip\TCPIP Stack\UART.c
                ReadUSART   0x015394    program     extern D:\git\70M\Microchip\TCPIP Stack\UART.c
               WriteUSART   0x015398    program     extern D:\git\70M\Microchip\TCPIP Stack\UART.c
                putsUSART   0x0153a2    program     extern D:\git\70M\Microchip\TCPIP Stack\UART.c
               ReadUSART2   0x0153be    program     extern D:\git\70M\Microchip\TCPIP Stack\UART.c
               BusyUSART2   0x0153c2    program     extern D:\git\70M\Microchip\TCPIP Stack\UART.c
              CloseUSART2   0x0153ce    program     extern D:\git\70M\Microchip\TCPIP Stack\UART.c
            DataRdyUSART2   0x0153da    program     extern D:\git\70M\Microchip\TCPIP Stack\UART.c
              WriteUSART2   0x0153ec    program     extern D:\git\70M\Microchip\TCPIP Stack\UART.c
               putsUSART2   0x0153f6    program     extern D:\git\70M\Microchip\TCPIP Stack\UART.c
                   __pa_0   0x015412    program     static D:\git\70M\Microchip\TCPIP Stack\UART.c
                   __pa_1   0x015424    program     static D:\git\70M\Microchip\TCPIP Stack\UART.c
                   __pa_2   0x015430    program     static D:\git\70M\Microchip\TCPIP Stack\UART.c
                   __pa_3   0x015440    program     static D:\git\70M\Microchip\TCPIP Stack\UART.c
                  sprintf   0x015450    program     extern C:\Program Files\mcc18\src\traditional\stdclib\sprintf.c
                _do_cinit   0x0154fc    program     extern C:\Program Files\mcc18\src\traditional\startup\c018iz.c
                     test   0x015516    program     static                          
                copy_loop   0x01556e    program     static                          
            copy_one_byte   0x015574    program     static                          
             done_copying   0x015582    program     static                          
       ___return_lbl00002   0x015598    program     static                          
                     done   0x015598    program     static                          
                  SPIInit   0x01559a    program     extern D:\git\70M\Drivers\MCU-Internal\devspi.c
            ReadWriteSPI2   0x0155b2    program     extern D:\git\70M\Drivers\MCU-Internal\devspi.c
                     putc   0x015620    program     extern C:\Program Files\mcc18\src\traditional\stdclib\putc.c
                HTTP_CRLF   0x0156a4    program     static D:\git\70M\Microchip\TCPIP Stack\HTTP2.c
       httpFileExtensions   0x0156a7    program     static D:\git\70M\Microchip\TCPIP Stack\HTTP2.c
         httpContentTypes   0x0156cb    program     static D:\git\70M\Microchip\TCPIP Stack\HTTP2.c
      HTTPResponseHeaders   0x0156ef    program     static D:\git\70M\Microchip\TCPIP Stack\HTTP2.c
       HTTPRequestHeaders   0x015719    program     static D:\git\70M\Microchip\TCPIP Stack\HTTP2.c
                  FXM3232   0x015722    program     extern C:\Program Files\mcc18\src\traditional\math\fxm3232.c
       ___return_lbl00000   0x015790    program     static                          
                  OpenADC   0x015792    program     extern C:\MCC18\src\pmc_common\ADC\adcopen.c
                 FXD3232U   0x015800    program     extern C:\Program Files\mcc18\src\traditional\math\fxd3232u.c
                     loop   0x01580e    program     static                          
                   _false   0x015842    program     static                          
       ___return_lbl00000   0x015846    program     static                          
                 FXD1616U   0x015848    program     extern C:\Program Files\mcc18\src\traditional\math\fxd1616u.c
                     loop   0x015852    program     static                          
                  endloop   0x01586e    program     static                          
       ___return_lbl00000   0x015872    program     static                          
                  isdigit   0x015874    program     extern C:\Program Files\mcc18\src\traditional\stdclib\isdigit.asm
                   jMatch   0x015894    program     static C:\Program Files\mcc18\src\traditional\stdclib\isdigit.asm
                 jNoMatch   0x015896    program     static C:\Program Files\mcc18\src\traditional\stdclib\isdigit.asm
     TCPSocketInitializer   0x015898    program     extern D:\git\70M\Port\TCPIPConfig.h
                 _startup   0x0158bc    program     extern C:\Program Files\mcc18\src\traditional\startup\c018iz.c
                     loop   0x0158d0    program     static                          
       ___return_lbl00001   0x0158da    program     static                          
              Delay1KTCYx   0x0158dc    program     extern C:\Program Files\mcc18\src\traditional\delays\d1ktcyx.asm
                     D1Kx   0x0158e6    program     static C:\Program Files\mcc18\src\traditional\delays\d1ktcyx.asm
                    D1K_1   0x0158e8    program     static C:\Program Files\mcc18\src\traditional\delays\d1ktcyx.asm
        _D1KTCYXCODE_0010   0x0158ec    program     static C:\Program Files\mcc18\src\traditional\delays\d1ktcyx.asm
        _D1KTCYXCODE_0016   0x0158f2    program     static C:\Program Files\mcc18\src\traditional\delays\d1ktcyx.asm
                 UART2ISR   0x0158fc    program     extern D:\git\70M\Microchip\TCPIP Stack\UART2TCPBridge.c
              _usart_putc   0x01591a    program     extern C:\MCC18\src\pmc_common\USART\_usartpc.asm
                     loop   0x01592a    program     static C:\MCC18\src\pmc_common\USART\_usartpc.asm
                 FXD0808U   0x015936    program     extern C:\Program Files\mcc18\src\traditional\math\fxd0808u.c
                     loop   0x01593e    program     static                          
                  endloop   0x01594c    program     static                          
       ___return_lbl00000   0x015950    program     static                          
              Delay10TCYx   0x015952    program     extern C:\Program Files\mcc18\src\traditional\delays\d10tcyx.asm
                     D10x   0x01595a    program     static C:\Program Files\mcc18\src\traditional\delays\d10tcyx.asm
        _D10TCYXCODE_000A   0x01595c    program     static C:\Program Files\mcc18\src\traditional\delays\d10tcyx.asm
        _D10TCYXCODE_000C   0x01595e    program     static C:\Program Files\mcc18\src\traditional\delays\d10tcyx.asm
        _D10TCYXCODE_000E   0x015960    program     static C:\Program Files\mcc18\src\traditional\delays\d10tcyx.asm
                    D10_1   0x015962    program     static C:\Program Files\mcc18\src\traditional\delays\d10tcyx.asm
                 s_digits   0x015968    program     static C:\Program Files\mcc18\src\traditional\stdclib\vfprintf.c
                    CGRAM   0x015979    program     extern D:\git\70M\Drivers\External-Peripherals\oled_c1.c
            __zero_memory   0x01598a    program     extern C:\MCC18\src\traditional\proc\p18F97J60.asm
               clear_loop   0x015990    program     static C:\MCC18\src\traditional\proc\p18F97J60.asm
     SerializedMACAddress   0x015998    program     static D:\git\70M\Bootstrap\Initialization.c
                 CloseADC   0x01599e    program     extern C:\MCC18\src\pmc_common\ADC\adcclose.c
               _user_putc   0x0159a4    program     extern C:\Program Files\mcc18\src\traditional\stdclib\_user_putc.c
                   __init   0x0159a6    program     extern C:\Program Files\mcc18\src\traditional\stdclib\__init.c
               __config_0   0x01fff8    program     static D:\git\70M\Main\Main.c   
               __config_1   0x01fffa    program     static D:\git\70M\Main\Main.c   
               __config_2   0x01fffd    program     static D:\git\70M\Main\Main.c   
                     SIGN   0x000000       data     extern C:\Program Files\mcc18\src\traditional\math\cmath18.asm
                __FPFLAGS   0x000001       data     extern C:\Program Files\mcc18\src\traditional\math\cmath18.asm
            __FPFLAGSbits   0x000001       data     extern C:\Program Files\mcc18\src\traditional\math\cmath18.asm
                  __REMB3   0x000002       data     extern C:\Program Files\mcc18\src\traditional\math\aarg.asm
                 __AARGB7   0x000002       data     extern C:\Program Files\mcc18\src\traditional\math\aarg.asm
                  __REMB2   0x000003       data     extern C:\Program Files\mcc18\src\traditional\math\aarg.asm
                 __AARGB6   0x000003       data     extern C:\Program Files\mcc18\src\traditional\math\aarg.asm
                  __REMB1   0x000004       data     extern C:\Program Files\mcc18\src\traditional\math\aarg.asm
                 __AARGB5   0x000004       data     extern C:\Program Files\mcc18\src\traditional\math\aarg.asm
                  __REMB0   0x000005       data     extern C:\Program Files\mcc18\src\traditional\math\aarg.asm
                 __AARGB4   0x000005       data     extern C:\Program Files\mcc18\src\traditional\math\aarg.asm
                 __AARGB3   0x000006       data     extern C:\Program Files\mcc18\src\traditional\math\aarg.asm
                 __AARGB2   0x000007       data     extern C:\Program Files\mcc18\src\traditional\math\aarg.asm
                 __AARGB1   0x000008       data     extern C:\Program Files\mcc18\src\traditional\math\aarg.asm
                 __AARGB0   0x000009       data     extern C:\Program Files\mcc18\src\traditional\math\aarg.asm
                   __AEXP   0x00000a       data     extern C:\Program Files\mcc18\src\traditional\math\aarg.asm
                 __BARGB3   0x00000b       data     extern C:\Program Files\mcc18\src\traditional\math\barg.asm
                 __BARGB2   0x00000c       data     extern C:\Program Files\mcc18\src\traditional\math\barg.asm
                 __BARGB1   0x00000d       data     extern C:\Program Files\mcc18\src\traditional\math\barg.asm
                 __BARGB0   0x00000e       data     extern C:\Program Files\mcc18\src\traditional\math\barg.asm
                   __BEXP   0x00000f       data     extern C:\Program Files\mcc18\src\traditional\math\barg.asm
                 __TEMPB3   0x000010       data     extern C:\Program Files\mcc18\src\traditional\math\temparg.asm
                 __TEMPB2   0x000011       data     extern C:\Program Files\mcc18\src\traditional\math\temparg.asm
                 __TEMPB1   0x000012       data     extern C:\Program Files\mcc18\src\traditional\math\temparg.asm
                   __TEMP   0x000013       data     extern C:\Program Files\mcc18\src\traditional\math\temparg.asm
                 __TEMPB0   0x000013       data     extern C:\Program Files\mcc18\src\traditional\math\temparg.asm
                  __tmp_0   0x000014       data     static D:\git\70M\App\WebUI\HTTPPrint.c
                  __tmp_0   0x000014       data     static D:\git\70M\App\WebUI\HTTPGetDevInfo.c
                  __tmp_0   0x000014       data     static D:\git\70M\Microchip\TCPIP Stack\TCP.c
                  __tmp_0   0x000014       data     static D:\git\70M\Drivers\External-Peripherals\oled_c2.c
                  __tmp_0   0x000014       data     static D:\git\70M\Microchip\TCPIP Stack\ETH97J60.c
                  __tmp_0   0x000014       data     static D:\git\70M\Microchip\TCPIP Stack\ARP.c
                  __tmp_0   0x000014       data     static D:\git\70M\Microchip\TCPIP Stack\StackTsk.c
                  __tmp_0   0x000014       data     static D:\git\70M\Bootstrap\Initialization.c
                  __tmp_0   0x000014       data     static D:\git\70M\Main\Main.c   
                  __tmp_0   0x000014       data     static D:\git\70M\App\WebUI\HTTPApp.c
                  __tmp_0   0x000014       data     static D:\git\70M\Devices\MainControl_c1.c
                  __tmp_0   0x000014       data     static D:\git\70M\Devices\DownConverter_c1.c
                  __tmp_0   0x000014       data     static C:\Program Files\mcc18\src\traditional\stdclib\vfprintf.c
                  __tmp_0   0x000014       data     static C:\Program Files\mcc18\src\traditional\stdclib\putc.c
                  __tmp_0   0x000014       data     static C:\MCC18\src\pmc_common\ADC\adcopen.c
                  __tmp_0   0x000014       data     static C:\Program Files\mcc18\src\traditional\stdclib\sprintf.c
                  __tmp_0   0x000014       data     static D:\git\70M\Microchip\TCPIP Stack\IP.c
                  __tmp_0   0x000014       data     static D:\git\70M\Microchip\TCPIP Stack\Helpers.c
                  __tmp_0   0x000014       data     static D:\git\70M\Microchip\TCPIP Stack\HTTP2.c
                  __tmp_0   0x000014       data     static D:\git\70M\Microchip\TCPIP Stack\MPFS2.c
                  __tmp_0   0x000014       data     static D:\git\70M\Microchip\TCPIP Stack\ICMP.c
                  __tmp_0   0x000014       data     static D:\git\70M\Microchip\TCPIP Stack\SPIEEPROM.c
                  __tmp_0   0x000014       data     static D:\git\70M\Drivers\MCU-Internal\devspi.c
                  __tmp_0   0x000014       data     static D:\git\70M\Drivers\External-Peripherals\devadc.c
                  __tmp_0   0x000014       data     static D:\git\70M\Drivers\MCU-Internal\internalADC.c
                  __tmp_0   0x000014       data     static D:\git\70M\SysLib\util.c 
                  __tmp_0   0x000014       data     static D:\git\70M\Drivers\External-Peripherals\oled_c1.c
                  __tmp_0   0x000014       data     static D:\git\70M\Drivers\MCU-Internal\i2c_c1.c
                  __tmp_0   0x000014       data     static D:\git\70M\Devices\VOLDC_c1 .c
                  __tmp_0   0x000014       data     static D:\git\70M\Devices\UpConverter_c1.c
            DelayCounter1   0x000025       data     extern C:\Program Files\mcc18\src\traditional\delays\delayd1.asm
           LCDPrintBuffer   0x000060       data     extern D:\git\70M\Drivers\External-Peripherals\oled_c2.c
              systeminfo1   0x0000b0       data     extern D:\git\70M\Main\Main.c   
         I2CReceiveBuffer   0x0000f0       data     extern D:\git\70M\Drivers\MCU-Internal\i2c_c1.c
          LOStatusString1   0x000100       data     extern D:\git\70M\Drivers\External-Peripherals\oled_c2.c
          LOStatusString2   0x000109       data     extern D:\git\70M\Drivers\External-Peripherals\oled_c2.c
            RFFreqString1   0x000112       data     extern D:\git\70M\Drivers\External-Peripherals\oled_c2.c
            RFFreqString2   0x00011e       data     extern D:\git\70M\Drivers\External-Peripherals\oled_c2.c
             AttenString1   0x00012a       data     extern D:\git\70M\Drivers\External-Peripherals\oled_c2.c
             AttenString2   0x000132       data     extern D:\git\70M\Drivers\External-Peripherals\oled_c2.c
                 IPString   0x00013a       data     extern D:\git\70M\Drivers\External-Peripherals\oled_c2.c
                 MNString   0x00014a       data     extern D:\git\70M\Drivers\External-Peripherals\oled_c2.c
                 SNString   0x00015c       data     extern D:\git\70M\Drivers\External-Peripherals\oled_c2.c
                   s18VDC   0x000165       data     extern D:\git\70M\Drivers\External-Peripherals\oled_c2.c
                   s24VDC   0x000169       data     extern D:\git\70M\Drivers\External-Peripherals\oled_c2.c
                  sLNBREF   0x00016d       data     extern D:\git\70M\Drivers\External-Peripherals\oled_c2.c
                  sBUCREF   0x000171       data     extern D:\git\70M\Drivers\External-Peripherals\oled_c2.c
                 sUCPower   0x000175       data     extern D:\git\70M\Drivers\External-Peripherals\oled_c2.c
                 sDCPower   0x00017f       data     extern D:\git\70M\Drivers\External-Peripherals\oled_c2.c
               sUPC_StPwr   0x000189       data     extern D:\git\70M\Drivers\External-Peripherals\oled_c2.c
               sDNC_StPwr   0x000193       data     extern D:\git\70M\Drivers\External-Peripherals\oled_c2.c
                    sALCa   0x00019d       data     extern D:\git\70M\Drivers\External-Peripherals\oled_c2.c
                    sALCb   0x0001a1       data     extern D:\git\70M\Drivers\External-Peripherals\oled_c2.c
                   sMutea   0x0001a5       data     extern D:\git\70M\Drivers\External-Peripherals\oled_c2.c
                   sMuteb   0x0001ae       data     extern D:\git\70M\Drivers\External-Peripherals\oled_c2.c
                 LastMenu   0x0001b7       data     extern D:\git\70M\Drivers\External-Peripherals\oled_c2.c
              CurrentMenu   0x0001b8       data     extern D:\git\70M\Drivers\External-Peripherals\oled_c2.c
           KeyPressedFlag   0x0001b9       data     extern D:\git\70M\Drivers\External-Peripherals\oled_c2.c
               PressedKey   0x0001ba       data     extern D:\git\70M\Drivers\External-Peripherals\oled_c2.c
              RefreshFlag   0x0001bb       data     extern D:\git\70M\Drivers\External-Peripherals\oled_c2.c
           EditUpdateFlag   0x0001bc       data     extern D:\git\70M\Drivers\External-Peripherals\oled_c2.c
          ValueUpdateFlag   0x0001bd       data     extern D:\git\70M\Drivers\External-Peripherals\oled_c2.c
                 EditMode   0x0001be       data     extern D:\git\70M\Drivers\External-Peripherals\oled_c2.c
             EditPosition   0x0001bf       data     extern D:\git\70M\Drivers\External-Peripherals\oled_c2.c
            FirstPressKey   0x0001c0       data     extern D:\git\70M\Drivers\External-Peripherals\oled_c2.c
                  u8ExtLO   0x0001c1       data     extern D:\git\70M\Drivers\External-Peripherals\oled_c2.c
                 readflag   0x0001c2       data     extern D:\git\70M\Drivers\External-Peripherals\oled_c2.c
                  u8Index   0x0001c3       data     static D:\git\70M\Drivers\External-Peripherals\oled_c2.c
                 SYNQueue   0x0001c4       data     static D:\git\70M\Microchip\TCPIP Stack\TCP.c
           LCDBlinkBuffer   0x000200       data     extern D:\git\70M\Drivers\External-Peripherals\oled_c2.c
              ConvertMenu   0x000250       data     extern D:\git\70M\Drivers\External-Peripherals\oled_c2.c
              systeminfo2   0x00026c       data     extern D:\git\70M\Main\Main.c   
              vUARTRXFIFO   0x0002ac       data     static D:\git\70M\Microchip\TCPIP Stack\UART2TCPBridge.c
              vUARTTXFIFO   0x0002ed       data     static D:\git\70M\Microchip\TCPIP Stack\UART2TCPBridge.c
                     Seed   0x0002fe       data     static C:\Program Files\mcc18\src\traditional\stdclib\rand.asm
                 TCBStubs   0x000300       data     static D:\git\70M\Microchip\TCPIP Stack\TCP.c
              stConverter   0x0003a8       data     extern D:\git\70M\Main\Main.c   
           MyStaticIPAddr   0x0003f0       data     extern D:\git\70M\Main\Main.c   
                   ostart   0x0003f4       data     extern D:\git\70M\Main\Main.c   
                     oend   0x0003f5       data     extern D:\git\70M\Main\Main.c   
                    ctemp   0x0003f6       data     extern D:\git\70M\Main\Main.c   
                    Read2   0x0003f7       data     extern D:\git\70M\Main\Main.c   
                  boBlink   0x0003ff       data     static D:\git\70M\Drivers\External-Peripherals\oled_c1.c
                  curHTTP   0x000400       data     extern D:\git\70M\Microchip\TCPIP Stack\HTTP2.c
                httpStubs   0x00047f       data     extern D:\git\70M\Microchip\TCPIP Stack\HTTP2.c
                curHTTPID   0x000483       data     extern D:\git\70M\Microchip\TCPIP Stack\HTTP2.c
                MPFSStubs   0x000484       data     static D:\git\70M\Microchip\TCPIP Stack\MPFS2.c
             isMPFSLocked   0x0004d4       data     static D:\git\70M\Microchip\TCPIP Stack\MPFS2.c
                 fatCache   0x0004d5       data     static D:\git\70M\Microchip\TCPIP Stack\MPFS2.c
               fatCacheID   0x0004eb       data     static D:\git\70M\Microchip\TCPIP Stack\MPFS2.c
                 numFiles   0x0004ed       data     static D:\git\70M\Microchip\TCPIP Stack\MPFS2.c
                 lastRead   0x0004ef       data     extern D:\git\70M\Microchip\TCPIP Stack\MPFS2.c
              webpassinfo   0x0004f3       data     extern D:\git\70M\App\WebUI\HTTPApp.c
                     oldp   0x000500       data     extern D:\git\70M\App\WebUI\HTTPGetDevInfo.c
                     newp   0x00050a       data     extern D:\git\70M\App\WebUI\HTTPGetDevInfo.c
                      rep   0x000514       data     extern D:\git\70M\App\WebUI\HTTPGetDevInfo.c
              RdI2CBuffer   0x00051e       data     extern D:\git\70M\App\WebUI\HTTPGetDevInfo.c
            EEPROMAddress   0x00053c       data     static D:\git\70M\Microchip\TCPIP Stack\SPIEEPROM.c
             EEPROMBuffer   0x000540       data     static D:\git\70M\Microchip\TCPIP Stack\SPIEEPROM.c
           vBytesInBuffer   0x000560       data     static D:\git\70M\Microchip\TCPIP Stack\SPIEEPROM.c
          FirmwareVersion   0x000561       data     extern D:\git\70M\Main\Main.c   
            SecondCounter   0x000565       data     extern D:\git\70M\Main\Main.c   
            MinuteCounter   0x000566       data     extern D:\git\70M\Main\Main.c   
              HardwareWDT   0x000567       data     extern D:\git\70M\Main\Main.c   
              webPass_tmr   0x000568       data     static D:\git\70M\Main\Main.c   
                lcd_timer   0x00056c       data     static D:\git\70M\Main\Main.c   
               keypad_tmr   0x000570       data     static D:\git\70M\Main\Main.c   
            tiDisplay_tmr   0x000574       data     static D:\git\70M\Main\Main.c   
                    Cache   0x000578       data     static D:\git\70M\Microchip\TCPIP Stack\ARP.c
                   Target   0x000582       data     static D:\git\70M\Microchip\TCPIP Stack\ARP.c
                  smStack   0x00058c       data     static D:\git\70M\Microchip\TCPIP Stack\StackTsk.c
               remoteNode   0x00058d       data     extern D:\git\70M\Microchip\TCPIP Stack\StackTsk.c
                 ADCInfo1   0x000597       data     extern D:\git\70M\Drivers\MCU-Internal\internalADC.c
               ADC_result   0x00059f       data     extern D:\git\70M\Drivers\MCU-Internal\internalADC.c
                     prom   0x0005a1       data     static C:\Program Files\mcc18\src\traditional\startup\c018iz.c
                curr_byte   0x0005a4       data     static C:\Program Files\mcc18\src\traditional\startup\c018iz.c
               curr_entry   0x0005a6       data     static C:\Program Files\mcc18\src\traditional\startup\c018iz.c
                 data_ptr   0x0005a8       data     static C:\Program Files\mcc18\src\traditional\startup\c018iz.c
                RXHeadPtr   0x0005ab       data     static D:\git\70M\Microchip\TCPIP Stack\UART2TCPBridge.c
                RXTailPtr   0x0005ad       data     static D:\git\70M\Microchip\TCPIP Stack\UART2TCPBridge.c
                TXHeadPtr   0x0005af       data     static D:\git\70M\Microchip\TCPIP Stack\UART2TCPBridge.c
                TXTailPtr   0x0005b1       data     static D:\git\70M\Microchip\TCPIP Stack\UART2TCPBridge.c
       NextPacketLocation   0x0005b3       data     static D:\git\70M\Microchip\TCPIP Stack\ETH97J60.c
    CurrentPacketLocation   0x0005b5       data     static D:\git\70M\Microchip\TCPIP Stack\ETH97J60.c
             WasDiscarded   0x0005b7       data     static D:\git\70M\Microchip\TCPIP Stack\ETH97J60.c
              wTXWatchdog   0x0005b8       data     static D:\git\70M\Microchip\TCPIP Stack\ETH97J60.c
                    myRef   0x0005ba       data     extern D:\git\70M\App\SNMP\SNMPLLiBUCDevInfo.c
                  TEMP_IP   0x0005bb       data     extern D:\git\70M\App\SNMP\SNMPLLiBUCDevInfo.c
               Manager_IP   0x0005bf       data     extern D:\git\70M\Bootstrap\Initialization.c
                 toRotate   0x0005c3       data     extern D:\git\70M\Microchip\TCPIP Stack\Helpers.c
                 dwLastIP   0x0005c7       data     extern D:\git\70M\SysLib\util.c 
          dwInternalTicks   0x0005cb       data     static D:\git\70M\Microchip\TCPIP Stack\Tick.c
                        L   0x0005cf       data     extern D:\git\70M\SysLib\util.c 
                tempvalue   0x0005d0       data     extern D:\git\70M\SysLib\util.c 
                   hMPFS1   0x0005d1       data     extern D:\git\70M\SysLib\util.c 
              _Identifier   0x0005d2       data     static D:\git\70M\Microchip\TCPIP Stack\IP.c
          I2CSlaveAddress   0x0005d4       data     extern D:\git\70M\App\WebUI\HTTPGetDevInfo.c
      WebpageWriteI2CFlag   0x0005d5       data     extern D:\git\70M\App\WebUI\HTTPGetDevInfo.c
              lastSuccess   0x0005d6       data     extern D:\git\70M\App\WebUI\HTTPApp.c
              lastFailure   0x0005d7       data     extern D:\git\70M\App\WebUI\HTTPApp.c
              IPHeaderLen   0x0005d8       data     static D:\git\70M\Microchip\TCPIP Stack\IP.c
            Timer2Counter   0x0005d9       data     extern D:\git\70M\Drivers\MCU-Internal\ISR.c
                    smARP   0x0005da       data     static D:\git\70M\Microchip\TCPIP Stack\ARP.c
        LCDBufferPosition   0x000e00       data     extern D:\git\70M\Drivers\External-Peripherals\oled_c2.c
            stI2CUpCvtMsg   0x000e02       data     extern D:\git\70M\Drivers\External-Peripherals\oled_c2.c
          stI2CDownCvtMsg   0x000e0c       data     extern D:\git\70M\Drivers\External-Peripherals\oled_c2.c
              stI2CVOLMsg   0x000e16       data     extern D:\git\70M\Drivers\External-Peripherals\oled_c2.c
               stI2CUCMsg   0x000e19       data     extern D:\git\70M\Drivers\External-Peripherals\oled_c2.c
               stI2CDCMsg   0x000e25       data     extern D:\git\70M\Drivers\External-Peripherals\oled_c2.c
              stI2CREFMsg   0x000e31       data     extern D:\git\70M\Drivers\External-Peripherals\oled_c2.c
               stI2CLOMsg   0x000e3b       data     extern D:\git\70M\Drivers\External-Peripherals\oled_c2.c
                AppConfig   0x000e47       data     extern D:\git\70M\Main\Main.c   
             vTickReading   0x000e7a       data     static D:\git\70M\Microchip\TCPIP Stack\Tick.c
                   MAADR5   0x000e80       data     extern C:\MCC18\src\traditional\proc\p18F97J60.asm
                   MAADR6   0x000e81       data     extern C:\MCC18\src\traditional\proc\p18F97J60.asm
                   MAADR3   0x000e82       data     extern C:\MCC18\src\traditional\proc\p18F97J60.asm
                   MAADR4   0x000e83       data     extern C:\MCC18\src\traditional\proc\p18F97J60.asm
                   MAADR1   0x000e84       data     extern C:\MCC18\src\traditional\proc\p18F97J60.asm
                   MAADR2   0x000e85       data     extern C:\MCC18\src\traditional\proc\p18F97J60.asm
                   MISTAT   0x000e8a       data     extern C:\MCC18\src\traditional\proc\p18F97J60.asm
               MISTATbits   0x000e8a       data     extern C:\MCC18\src\traditional\proc\p18F97J60.asm
              EFLOCONbits   0x000e97       data     extern C:\MCC18\src\traditional\proc\p18F97J60.asm
                  EFLOCON   0x000e97       data     extern C:\MCC18\src\traditional\proc\p18F97J60.asm
                    EPAUS   0x000e98       data     extern C:\MCC18\src\traditional\proc\p18F97J60.asm
                   EPAUSL   0x000e98       data     extern C:\MCC18\src\traditional\proc\p18F97J60.asm
                   EPAUSH   0x000e99       data     extern C:\MCC18\src\traditional\proc\p18F97J60.asm
               MACON1bits   0x000ea0       data     extern C:\MCC18\src\traditional\proc\p18F97J60.asm
                   MACON1   0x000ea0       data     extern C:\MCC18\src\traditional\proc\p18F97J60.asm
                   MACON3   0x000ea2       data     extern C:\MCC18\src\traditional\proc\p18F97J60.asm
               MACON3bits   0x000ea2       data     extern C:\MCC18\src\traditional\proc\p18F97J60.asm
                   MACON4   0x000ea3       data     extern C:\MCC18\src\traditional\proc\p18F97J60.asm
               MACON4bits   0x000ea3       data     extern C:\MCC18\src\traditional\proc\p18F97J60.asm
                  MABBIPG   0x000ea4       data     extern C:\MCC18\src\traditional\proc\p18F97J60.asm
                   MAIPGL   0x000ea6       data     extern C:\MCC18\src\traditional\proc\p18F97J60.asm
                    MAIPG   0x000ea6       data     extern C:\MCC18\src\traditional\proc\p18F97J60.asm
                   MAIPGH   0x000ea7       data     extern C:\MCC18\src\traditional\proc\p18F97J60.asm
                  MAMXFLL   0x000eaa       data     extern C:\MCC18\src\traditional\proc\p18F97J60.asm
                   MAMXFL   0x000eaa       data     extern C:\MCC18\src\traditional\proc\p18F97J60.asm
                  MAMXFLH   0x000eab       data     extern C:\MCC18\src\traditional\proc\p18F97J60.asm
                MICMDbits   0x000eb2       data     extern C:\MCC18\src\traditional\proc\p18F97J60.asm
                    MICMD   0x000eb2       data     extern C:\MCC18\src\traditional\proc\p18F97J60.asm
                 MIREGADR   0x000eb4       data     extern C:\MCC18\src\traditional\proc\p18F97J60.asm
                     MIWR   0x000eb6       data     extern C:\MCC18\src\traditional\proc\p18F97J60.asm
                    MIWRL   0x000eb6       data     extern C:\MCC18\src\traditional\proc\p18F97J60.asm
                    MIWRH   0x000eb7       data     extern C:\MCC18\src\traditional\proc\p18F97J60.asm
                     MIRD   0x000eb8       data     extern C:\MCC18\src\traditional\proc\p18F97J60.asm
                    MIRDL   0x000eb8       data     extern C:\MCC18\src\traditional\proc\p18F97J60.asm
                    MIRDH   0x000eb9       data     extern C:\MCC18\src\traditional\proc\p18F97J60.asm
                     EHT0   0x000ec0       data     extern C:\MCC18\src\traditional\proc\p18F97J60.asm
                     EHT1   0x000ec1       data     extern C:\MCC18\src\traditional\proc\p18F97J60.asm
                     EHT2   0x000ec2       data     extern C:\MCC18\src\traditional\proc\p18F97J60.asm
                     EHT3   0x000ec3       data     extern C:\MCC18\src\traditional\proc\p18F97J60.asm
                     EHT4   0x000ec4       data     extern C:\MCC18\src\traditional\proc\p18F97J60.asm
                     EHT5   0x000ec5       data     extern C:\MCC18\src\traditional\proc\p18F97J60.asm
                     EHT6   0x000ec6       data     extern C:\MCC18\src\traditional\proc\p18F97J60.asm
                     EHT7   0x000ec7       data     extern C:\MCC18\src\traditional\proc\p18F97J60.asm
                    EPMM0   0x000ec8       data     extern C:\MCC18\src\traditional\proc\p18F97J60.asm
                    EPMM1   0x000ec9       data     extern C:\MCC18\src\traditional\proc\p18F97J60.asm
                    EPMM2   0x000eca       data     extern C:\MCC18\src\traditional\proc\p18F97J60.asm
                    EPMM3   0x000ecb       data     extern C:\MCC18\src\traditional\proc\p18F97J60.asm
                    EPMM4   0x000ecc       data     extern C:\MCC18\src\traditional\proc\p18F97J60.asm
                    EPMM5   0x000ecd       data     extern C:\MCC18\src\traditional\proc\p18F97J60.asm
                    EPMM6   0x000ece       data     extern C:\MCC18\src\traditional\proc\p18F97J60.asm
                    EPMM7   0x000ecf       data     extern C:\MCC18\src\traditional\proc\p18F97J60.asm
                    EPMCS   0x000ed0       data     extern C:\MCC18\src\traditional\proc\p18F97J60.asm
                   EPMCSL   0x000ed0       data     extern C:\MCC18\src\traditional\proc\p18F97J60.asm
                   EPMCSH   0x000ed1       data     extern C:\MCC18\src\traditional\proc\p18F97J60.asm
                     EPMO   0x000ed4       data     extern C:\MCC18\src\traditional\proc\p18F97J60.asm
                    EPMOL   0x000ed4       data     extern C:\MCC18\src\traditional\proc\p18F97J60.asm
                    EPMOH   0x000ed5       data     extern C:\MCC18\src\traditional\proc\p18F97J60.asm
              ERXFCONbits   0x000ed8       data     extern C:\MCC18\src\traditional\proc\p18F97J60.asm
                  ERXFCON   0x000ed8       data     extern C:\MCC18\src\traditional\proc\p18F97J60.asm
                  EPKTCNT   0x000ed9       data     extern C:\MCC18\src\traditional\proc\p18F97J60.asm
                    EWRPT   0x000ee2       data     extern C:\MCC18\src\traditional\proc\p18F97J60.asm
                   EWRPTL   0x000ee2       data     extern C:\MCC18\src\traditional\proc\p18F97J60.asm
                   EWRPTH   0x000ee3       data     extern C:\MCC18\src\traditional\proc\p18F97J60.asm
                    ETXST   0x000ee4       data     extern C:\MCC18\src\traditional\proc\p18F97J60.asm
                   ETXSTL   0x000ee4       data     extern C:\MCC18\src\traditional\proc\p18F97J60.asm
                   ETXSTH   0x000ee5       data     extern C:\MCC18\src\traditional\proc\p18F97J60.asm
                   ETXNDL   0x000ee6       data     extern C:\MCC18\src\traditional\proc\p18F97J60.asm
                    ETXND   0x000ee6       data     extern C:\MCC18\src\traditional\proc\p18F97J60.asm
                   ETXNDH   0x000ee7       data     extern C:\MCC18\src\traditional\proc\p18F97J60.asm
                    ERXST   0x000ee8       data     extern C:\MCC18\src\traditional\proc\p18F97J60.asm
                   ERXSTL   0x000ee8       data     extern C:\MCC18\src\traditional\proc\p18F97J60.asm
                   ERXSTH   0x000ee9       data     extern C:\MCC18\src\traditional\proc\p18F97J60.asm
                   ERXNDL   0x000eea       data     extern C:\MCC18\src\traditional\proc\p18F97J60.asm
                    ERXND   0x000eea       data     extern C:\MCC18\src\traditional\proc\p18F97J60.asm
                   ERXNDH   0x000eeb       data     extern C:\MCC18\src\traditional\proc\p18F97J60.asm
                  ERXRDPT   0x000eec       data     extern C:\MCC18\src\traditional\proc\p18F97J60.asm
                 ERXRDPTL   0x000eec       data     extern C:\MCC18\src\traditional\proc\p18F97J60.asm
                 ERXRDPTH   0x000eed       data     extern C:\MCC18\src\traditional\proc\p18F97J60.asm
                  ERXWRPT   0x000eee       data     extern C:\MCC18\src\traditional\proc\p18F97J60.asm
                 ERXWRPTL   0x000eee       data     extern C:\MCC18\src\traditional\proc\p18F97J60.asm
                 ERXWRPTH   0x000eef       data     extern C:\MCC18\src\traditional\proc\p18F97J60.asm
                  EDMASTL   0x000ef0       data     extern C:\MCC18\src\traditional\proc\p18F97J60.asm
                   EDMAST   0x000ef0       data     extern C:\MCC18\src\traditional\proc\p18F97J60.asm
                  EDMASTH   0x000ef1       data     extern C:\MCC18\src\traditional\proc\p18F97J60.asm
                   EDMAND   0x000ef2       data     extern C:\MCC18\src\traditional\proc\p18F97J60.asm
                  EDMANDL   0x000ef2       data     extern C:\MCC18\src\traditional\proc\p18F97J60.asm
                  EDMANDH   0x000ef3       data     extern C:\MCC18\src\traditional\proc\p18F97J60.asm
                 EDMADSTL   0x000ef4       data     extern C:\MCC18\src\traditional\proc\p18F97J60.asm
                  EDMADST   0x000ef4       data     extern C:\MCC18\src\traditional\proc\p18F97J60.asm
                 EDMADSTH   0x000ef5       data     extern C:\MCC18\src\traditional\proc\p18F97J60.asm
                   EDMACS   0x000ef6       data     extern C:\MCC18\src\traditional\proc\p18F97J60.asm
                  EDMACSL   0x000ef6       data     extern C:\MCC18\src\traditional\proc\p18F97J60.asm
                  EDMACSH   0x000ef7       data     extern C:\MCC18\src\traditional\proc\p18F97J60.asm
                  EIEbits   0x000efb       data     extern C:\MCC18\src\traditional\proc\p18F97J60.asm
                      EIE   0x000efb       data     extern C:\MCC18\src\traditional\proc\p18F97J60.asm
                ESTATbits   0x000efd       data     extern C:\MCC18\src\traditional\proc\p18F97J60.asm
                    ESTAT   0x000efd       data     extern C:\MCC18\src\traditional\proc\p18F97J60.asm
                ECON2bits   0x000efe       data     extern C:\MCC18\src\traditional\proc\p18F97J60.asm
                    ECON2   0x000efe       data     extern C:\MCC18\src\traditional\proc\p18F97J60.asm
                 NextPort   0x000f00       data     static D:\git\70M\Microchip\TCPIP Stack\TCP.c
                    MyTCB   0x000f02       data     static D:\git\70M\Microchip\TCPIP Stack\TCP.c
                MyTCBStub   0x000f27       data     static D:\git\70M\Microchip\TCPIP Stack\TCP.c
               RemoteInfo   0x000f43       data     static D:\git\70M\Microchip\TCPIP Stack\TCP.c
         global_char_temp   0x000f4f       data     extern D:\git\70M\App\WebUI\HTTPPrint.c
              hCurrentTCP   0x000f5e       data     static D:\git\70M\Microchip\TCPIP Stack\TCP.c
                 hLastTCB   0x000f5f       data     static D:\git\70M\Microchip\TCPIP Stack\TCP.c
                  EIRbits   0x000f60       data     extern C:\MCC18\src\traditional\proc\p18F97J60.asm
                      EIR   0x000f60       data     extern C:\MCC18\src\traditional\proc\p18F97J60.asm
                    EDATA   0x000f61       data     extern C:\MCC18\src\traditional\proc\p18F97J60.asm
                EDATAbits   0x000f61       data     extern C:\MCC18\src\traditional\proc\p18F97J60.asm
                 SSP2CON2   0x000f62       data     extern C:\MCC18\src\traditional\proc\p18F97J60.asm
             SSP2CON2bits   0x000f62       data     extern C:\MCC18\src\traditional\proc\p18F97J60.asm
             SSP2CON1bits   0x000f63       data     extern C:\MCC18\src\traditional\proc\p18F97J60.asm
                 SSP2CON1   0x000f63       data     extern C:\MCC18\src\traditional\proc\p18F97J60.asm
                 SSP2STAT   0x000f64       data     extern C:\MCC18\src\traditional\proc\p18F97J60.asm
             SSP2STATbits   0x000f64       data     extern C:\MCC18\src\traditional\proc\p18F97J60.asm
                  SSP2ADD   0x000f65       data     extern C:\MCC18\src\traditional\proc\p18F97J60.asm
                  SSP2BUF   0x000f66       data     extern C:\MCC18\src\traditional\proc\p18F97J60.asm
                 ECCP2DEL   0x000f67       data     extern C:\MCC18\src\traditional\proc\p18F97J60.asm
             ECCP2DELbits   0x000f67       data     extern C:\MCC18\src\traditional\proc\p18F97J60.asm
                  ECCP2AS   0x000f68       data     extern C:\MCC18\src\traditional\proc\p18F97J60.asm
              ECCP2ASbits   0x000f68       data     extern C:\MCC18\src\traditional\proc\p18F97J60.asm
             ECCP3DELbits   0x000f69       data     extern C:\MCC18\src\traditional\proc\p18F97J60.asm
                 ECCP3DEL   0x000f69       data     extern C:\MCC18\src\traditional\proc\p18F97J60.asm
              ECCP3ASbits   0x000f6a       data     extern C:\MCC18\src\traditional\proc\p18F97J60.asm
                  ECCP3AS   0x000f6a       data     extern C:\MCC18\src\traditional\proc\p18F97J60.asm
                   RCSTA2   0x000f6b       data     extern C:\MCC18\src\traditional\proc\p18F97J60.asm
               RCSTA2bits   0x000f6b       data     extern C:\MCC18\src\traditional\proc\p18F97J60.asm
               TXSTA2bits   0x000f6c       data     extern C:\MCC18\src\traditional\proc\p18F97J60.asm
                   TXSTA2   0x000f6c       data     extern C:\MCC18\src\traditional\proc\p18F97J60.asm
                   TXREG2   0x000f6d       data     extern C:\MCC18\src\traditional\proc\p18F97J60.asm
                   RCREG2   0x000f6e       data     extern C:\MCC18\src\traditional\proc\p18F97J60.asm
                   SPBRG2   0x000f6f       data     extern C:\MCC18\src\traditional\proc\p18F97J60.asm
                  CCP5CON   0x000f70       data     extern C:\MCC18\src\traditional\proc\p18F97J60.asm
              CCP5CONbits   0x000f70       data     extern C:\MCC18\src\traditional\proc\p18F97J60.asm
                   CCPR5L   0x000f71       data     extern C:\MCC18\src\traditional\proc\p18F97J60.asm
                    CCPR5   0x000f71       data     extern C:\MCC18\src\traditional\proc\p18F97J60.asm
                   CCPR5H   0x000f72       data     extern C:\MCC18\src\traditional\proc\p18F97J60.asm
              CCP4CONbits   0x000f73       data     extern C:\MCC18\src\traditional\proc\p18F97J60.asm
                  CCP4CON   0x000f73       data     extern C:\MCC18\src\traditional\proc\p18F97J60.asm
                   CCPR4L   0x000f74       data     extern C:\MCC18\src\traditional\proc\p18F97J60.asm
                    CCPR4   0x000f74       data     extern C:\MCC18\src\traditional\proc\p18F97J60.asm
                   CCPR4H   0x000f75       data     extern C:\MCC18\src\traditional\proc\p18F97J60.asm
                T4CONbits   0x000f76       data     extern C:\MCC18\src\traditional\proc\p18F97J60.asm
                    T4CON   0x000f76       data     extern C:\MCC18\src\traditional\proc\p18F97J60.asm
                      PR4   0x000f77       data     extern C:\MCC18\src\traditional\proc\p18F97J60.asm
                     TMR4   0x000f78       data     extern C:\MCC18\src\traditional\proc\p18F97J60.asm
             ECCP1DELbits   0x000f79       data     extern C:\MCC18\src\traditional\proc\p18F97J60.asm
                 ECCP1DEL   0x000f79       data     extern C:\MCC18\src\traditional\proc\p18F97J60.asm
                   ERDPTL   0x000f7a       data     extern C:\MCC18\src\traditional\proc\p18F97J60.asm
                    ERDPT   0x000f7a       data     extern C:\MCC18\src\traditional\proc\p18F97J60.asm
                   ERDPTH   0x000f7b       data     extern C:\MCC18\src\traditional\proc\p18F97J60.asm
                 BAUDCON2   0x000f7c       data     extern C:\MCC18\src\traditional\proc\p18F97J60.asm
             BAUDCON2bits   0x000f7c       data     extern C:\MCC18\src\traditional\proc\p18F97J60.asm
                 BAUDCTL2   0x000f7c       data     extern C:\MCC18\src\traditional\proc\p18F97J60.asm
             BAUDCTL2bits   0x000f7c       data     extern C:\MCC18\src\traditional\proc\p18F97J60.asm
                  SPBRGH2   0x000f7d       data     extern C:\MCC18\src\traditional\proc\p18F97J60.asm
                 BAUDCON1   0x000f7e       data     extern C:\MCC18\src\traditional\proc\p18F97J60.asm
             BAUDCON1bits   0x000f7e       data     extern C:\MCC18\src\traditional\proc\p18F97J60.asm
                  BAUDCON   0x000f7e       data     extern C:\MCC18\src\traditional\proc\p18F97J60.asm
              BAUDCONbits   0x000f7e       data     extern C:\MCC18\src\traditional\proc\p18F97J60.asm
                  BAUDCTL   0x000f7e       data     extern C:\MCC18\src\traditional\proc\p18F97J60.asm
                 BAUDCTL1   0x000f7e       data     extern C:\MCC18\src\traditional\proc\p18F97J60.asm
             BAUDCTL1bits   0x000f7e       data     extern C:\MCC18\src\traditional\proc\p18F97J60.asm
              BAUDCTLbits   0x000f7e       data     extern C:\MCC18\src\traditional\proc\p18F97J60.asm
                  SPBRGH1   0x000f7f       data     extern C:\MCC18\src\traditional\proc\p18F97J60.asm
                   SPBRGH   0x000f7f       data     extern C:\MCC18\src\traditional\proc\p18F97J60.asm
                PORTAbits   0x000f80       data     extern C:\MCC18\src\traditional\proc\p18F97J60.asm
                    PORTA   0x000f80       data     extern C:\MCC18\src\traditional\proc\p18F97J60.asm
                PORTBbits   0x000f81       data     extern C:\MCC18\src\traditional\proc\p18F97J60.asm
                    PORTB   0x000f81       data     extern C:\MCC18\src\traditional\proc\p18F97J60.asm
                    PORTC   0x000f82       data     extern C:\MCC18\src\traditional\proc\p18F97J60.asm
                PORTCbits   0x000f82       data     extern C:\MCC18\src\traditional\proc\p18F97J60.asm
                    PORTD   0x000f83       data     extern C:\MCC18\src\traditional\proc\p18F97J60.asm
                PORTDbits   0x000f83       data     extern C:\MCC18\src\traditional\proc\p18F97J60.asm
                PORTEbits   0x000f84       data     extern C:\MCC18\src\traditional\proc\p18F97J60.asm
                    PORTE   0x000f84       data     extern C:\MCC18\src\traditional\proc\p18F97J60.asm
                PORTFbits   0x000f85       data     extern C:\MCC18\src\traditional\proc\p18F97J60.asm
                    PORTF   0x000f85       data     extern C:\MCC18\src\traditional\proc\p18F97J60.asm
                PORTGbits   0x000f86       data     extern C:\MCC18\src\traditional\proc\p18F97J60.asm
                    PORTG   0x000f86       data     extern C:\MCC18\src\traditional\proc\p18F97J60.asm
                    PORTH   0x000f87       data     extern C:\MCC18\src\traditional\proc\p18F97J60.asm
                PORTHbits   0x000f87       data     extern C:\MCC18\src\traditional\proc\p18F97J60.asm
                    PORTJ   0x000f88       data     extern C:\MCC18\src\traditional\proc\p18F97J60.asm
                PORTJbits   0x000f88       data     extern C:\MCC18\src\traditional\proc\p18F97J60.asm
                 LATAbits   0x000f89       data     extern C:\MCC18\src\traditional\proc\p18F97J60.asm
                     LATA   0x000f89       data     extern C:\MCC18\src\traditional\proc\p18F97J60.asm
                 LATBbits   0x000f8a       data     extern C:\MCC18\src\traditional\proc\p18F97J60.asm
                     LATB   0x000f8a       data     extern C:\MCC18\src\traditional\proc\p18F97J60.asm
                 LATCbits   0x000f8b       data     extern C:\MCC18\src\traditional\proc\p18F97J60.asm
                     LATC   0x000f8b       data     extern C:\MCC18\src\traditional\proc\p18F97J60.asm
                 LATDbits   0x000f8c       data     extern C:\MCC18\src\traditional\proc\p18F97J60.asm
                     LATD   0x000f8c       data     extern C:\MCC18\src\traditional\proc\p18F97J60.asm
                     LATE   0x000f8d       data     extern C:\MCC18\src\traditional\proc\p18F97J60.asm
                 LATEbits   0x000f8d       data     extern C:\MCC18\src\traditional\proc\p18F97J60.asm
                     LATF   0x000f8e       data     extern C:\MCC18\src\traditional\proc\p18F97J60.asm
                 LATFbits   0x000f8e       data     extern C:\MCC18\src\traditional\proc\p18F97J60.asm
                     LATG   0x000f8f       data     extern C:\MCC18\src\traditional\proc\p18F97J60.asm
                 LATGbits   0x000f8f       data     extern C:\MCC18\src\traditional\proc\p18F97J60.asm
                     LATH   0x000f90       data     extern C:\MCC18\src\traditional\proc\p18F97J60.asm
                 LATHbits   0x000f90       data     extern C:\MCC18\src\traditional\proc\p18F97J60.asm
                 LATJbits   0x000f91       data     extern C:\MCC18\src\traditional\proc\p18F97J60.asm
                     LATJ   0x000f91       data     extern C:\MCC18\src\traditional\proc\p18F97J60.asm
                     DDRA   0x000f92       data     extern C:\MCC18\src\traditional\proc\p18F97J60.asm
                 DDRAbits   0x000f92       data     extern C:\MCC18\src\traditional\proc\p18F97J60.asm
                TRISAbits   0x000f92       data     extern C:\MCC18\src\traditional\proc\p18F97J60.asm
                    TRISA   0x000f92       data     extern C:\MCC18\src\traditional\proc\p18F97J60.asm
                     DDRB   0x000f93       data     extern C:\MCC18\src\traditional\proc\p18F97J60.asm
                 DDRBbits   0x000f93       data     extern C:\MCC18\src\traditional\proc\p18F97J60.asm
                    TRISB   0x000f93       data     extern C:\MCC18\src\traditional\proc\p18F97J60.asm
                TRISBbits   0x000f93       data     extern C:\MCC18\src\traditional\proc\p18F97J60.asm
                    TRISC   0x000f94       data     extern C:\MCC18\src\traditional\proc\p18F97J60.asm
                     DDRC   0x000f94       data     extern C:\MCC18\src\traditional\proc\p18F97J60.asm
                 DDRCbits   0x000f94       data     extern C:\MCC18\src\traditional\proc\p18F97J60.asm
                TRISCbits   0x000f94       data     extern C:\MCC18\src\traditional\proc\p18F97J60.asm
                TRISDbits   0x000f95       data     extern C:\MCC18\src\traditional\proc\p18F97J60.asm
                    TRISD   0x000f95       data     extern C:\MCC18\src\traditional\proc\p18F97J60.asm
                 DDRDbits   0x000f95       data     extern C:\MCC18\src\traditional\proc\p18F97J60.asm
                     DDRD   0x000f95       data     extern C:\MCC18\src\traditional\proc\p18F97J60.asm
                 DDREbits   0x000f96       data     extern C:\MCC18\src\traditional\proc\p18F97J60.asm
                     DDRE   0x000f96       data     extern C:\MCC18\src\traditional\proc\p18F97J60.asm
                TRISEbits   0x000f96       data     extern C:\MCC18\src\traditional\proc\p18F97J60.asm
                    TRISE   0x000f96       data     extern C:\MCC18\src\traditional\proc\p18F97J60.asm
                 DDRFbits   0x000f97       data     extern C:\MCC18\src\traditional\proc\p18F97J60.asm
                TRISFbits   0x000f97       data     extern C:\MCC18\src\traditional\proc\p18F97J60.asm
                    TRISF   0x000f97       data     extern C:\MCC18\src\traditional\proc\p18F97J60.asm
                     DDRF   0x000f97       data     extern C:\MCC18\src\traditional\proc\p18F97J60.asm
                    TRISG   0x000f98       data     extern C:\MCC18\src\traditional\proc\p18F97J60.asm
                TRISGbits   0x000f98       data     extern C:\MCC18\src\traditional\proc\p18F97J60.asm
                 DDRGbits   0x000f98       data     extern C:\MCC18\src\traditional\proc\p18F97J60.asm
                     DDRG   0x000f98       data     extern C:\MCC18\src\traditional\proc\p18F97J60.asm
                    TRISH   0x000f99       data     extern C:\MCC18\src\traditional\proc\p18F97J60.asm
                TRISHbits   0x000f99       data     extern C:\MCC18\src\traditional\proc\p18F97J60.asm
                 DDRHbits   0x000f99       data     extern C:\MCC18\src\traditional\proc\p18F97J60.asm
                     DDRH   0x000f99       data     extern C:\MCC18\src\traditional\proc\p18F97J60.asm
                     DDRJ   0x000f9a       data     extern C:\MCC18\src\traditional\proc\p18F97J60.asm
                 DDRJbits   0x000f9a       data     extern C:\MCC18\src\traditional\proc\p18F97J60.asm
                TRISJbits   0x000f9a       data     extern C:\MCC18\src\traditional\proc\p18F97J60.asm
                    TRISJ   0x000f9a       data     extern C:\MCC18\src\traditional\proc\p18F97J60.asm
                  OSCTUNE   0x000f9b       data     extern C:\MCC18\src\traditional\proc\p18F97J60.asm
              OSCTUNEbits   0x000f9b       data     extern C:\MCC18\src\traditional\proc\p18F97J60.asm
                   MEMCON   0x000f9c       data     extern C:\MCC18\src\traditional\proc\p18F97J60.asm
               MEMCONbits   0x000f9c       data     extern C:\MCC18\src\traditional\proc\p18F97J60.asm
                 PIE1bits   0x000f9d       data     extern C:\MCC18\src\traditional\proc\p18F97J60.asm
                     PIE1   0x000f9d       data     extern C:\MCC18\src\traditional\proc\p18F97J60.asm
                 PIR1bits   0x000f9e       data     extern C:\MCC18\src\traditional\proc\p18F97J60.asm
                     PIR1   0x000f9e       data     extern C:\MCC18\src\traditional\proc\p18F97J60.asm
                     IPR1   0x000f9f       data     extern C:\MCC18\src\traditional\proc\p18F97J60.asm
                 IPR1bits   0x000f9f       data     extern C:\MCC18\src\traditional\proc\p18F97J60.asm
                 PIE2bits   0x000fa0       data     extern C:\MCC18\src\traditional\proc\p18F97J60.asm
                     PIE2   0x000fa0       data     extern C:\MCC18\src\traditional\proc\p18F97J60.asm
                     PIR2   0x000fa1       data     extern C:\MCC18\src\traditional\proc\p18F97J60.asm
                 PIR2bits   0x000fa1       data     extern C:\MCC18\src\traditional\proc\p18F97J60.asm
                 IPR2bits   0x000fa2       data     extern C:\MCC18\src\traditional\proc\p18F97J60.asm
                     IPR2   0x000fa2       data     extern C:\MCC18\src\traditional\proc\p18F97J60.asm
                     PIE3   0x000fa3       data     extern C:\MCC18\src\traditional\proc\p18F97J60.asm
                 PIE3bits   0x000fa3       data     extern C:\MCC18\src\traditional\proc\p18F97J60.asm
                 PIR3bits   0x000fa4       data     extern C:\MCC18\src\traditional\proc\p18F97J60.asm
                     PIR3   0x000fa4       data     extern C:\MCC18\src\traditional\proc\p18F97J60.asm
                     IPR3   0x000fa5       data     extern C:\MCC18\src\traditional\proc\p18F97J60.asm
                 IPR3bits   0x000fa5       data     extern C:\MCC18\src\traditional\proc\p18F97J60.asm
                   EECON1   0x000fa6       data     extern C:\MCC18\src\traditional\proc\p18F97J60.asm
               EECON1bits   0x000fa6       data     extern C:\MCC18\src\traditional\proc\p18F97J60.asm
                   EECON2   0x000fa7       data     extern C:\MCC18\src\traditional\proc\p18F97J60.asm
                    RCSTA   0x000fab       data     extern C:\MCC18\src\traditional\proc\p18F97J60.asm
                   RCSTA1   0x000fab       data     extern C:\MCC18\src\traditional\proc\p18F97J60.asm
               RCSTA1bits   0x000fab       data     extern C:\MCC18\src\traditional\proc\p18F97J60.asm
                RCSTAbits   0x000fab       data     extern C:\MCC18\src\traditional\proc\p18F97J60.asm
                    TXSTA   0x000fac       data     extern C:\MCC18\src\traditional\proc\p18F97J60.asm
                   TXSTA1   0x000fac       data     extern C:\MCC18\src\traditional\proc\p18F97J60.asm
               TXSTA1bits   0x000fac       data     extern C:\MCC18\src\traditional\proc\p18F97J60.asm
                TXSTAbits   0x000fac       data     extern C:\MCC18\src\traditional\proc\p18F97J60.asm
                   TXREG1   0x000fad       data     extern C:\MCC18\src\traditional\proc\p18F97J60.asm
                    TXREG   0x000fad       data     extern C:\MCC18\src\traditional\proc\p18F97J60.asm
                    RCREG   0x000fae       data     extern C:\MCC18\src\traditional\proc\p18F97J60.asm
                   RCREG1   0x000fae       data     extern C:\MCC18\src\traditional\proc\p18F97J60.asm
                   SPBRG1   0x000faf       data     extern C:\MCC18\src\traditional\proc\p18F97J60.asm
                    SPBRG   0x000faf       data     extern C:\MCC18\src\traditional\proc\p18F97J60.asm
               PSPCONbits   0x000fb0       data     extern C:\MCC18\src\traditional\proc\p18F97J60.asm
                   PSPCON   0x000fb0       data     extern C:\MCC18\src\traditional\proc\p18F97J60.asm
                T3CONbits   0x000fb1       data     extern C:\MCC18\src\traditional\proc\p18F97J60.asm
                    T3CON   0x000fb1       data     extern C:\MCC18\src\traditional\proc\p18F97J60.asm
                    TMR3L   0x000fb2       data     extern C:\MCC18\src\traditional\proc\p18F97J60.asm
                    TMR3H   0x000fb3       data     extern C:\MCC18\src\traditional\proc\p18F97J60.asm
                    CMCON   0x000fb4       data     extern C:\MCC18\src\traditional\proc\p18F97J60.asm
                CMCONbits   0x000fb4       data     extern C:\MCC18\src\traditional\proc\p18F97J60.asm
               CVRCONbits   0x000fb5       data     extern C:\MCC18\src\traditional\proc\p18F97J60.asm
                   CVRCON   0x000fb5       data     extern C:\MCC18\src\traditional\proc\p18F97J60.asm
              ECCP1ASbits   0x000fb6       data     extern C:\MCC18\src\traditional\proc\p18F97J60.asm
                  ECCP1AS   0x000fb6       data     extern C:\MCC18\src\traditional\proc\p18F97J60.asm
             ECCP3CONbits   0x000fb7       data     extern C:\MCC18\src\traditional\proc\p18F97J60.asm
                 ECCP3CON   0x000fb7       data     extern C:\MCC18\src\traditional\proc\p18F97J60.asm
              CCP3CONbits   0x000fb7       data     extern C:\MCC18\src\traditional\proc\p18F97J60.asm
                  CCP3CON   0x000fb7       data     extern C:\MCC18\src\traditional\proc\p18F97J60.asm
                    CCPR3   0x000fb8       data     extern C:\MCC18\src\traditional\proc\p18F97J60.asm
                   CCPR3L   0x000fb8       data     extern C:\MCC18\src\traditional\proc\p18F97J60.asm
                   CCPR3H   0x000fb9       data     extern C:\MCC18\src\traditional\proc\p18F97J60.asm
             ECCP2CONbits   0x000fba       data     extern C:\MCC18\src\traditional\proc\p18F97J60.asm
                 ECCP2CON   0x000fba       data     extern C:\MCC18\src\traditional\proc\p18F97J60.asm
                  CCP2CON   0x000fba       data     extern C:\MCC18\src\traditional\proc\p18F97J60.asm
              CCP2CONbits   0x000fba       data     extern C:\MCC18\src\traditional\proc\p18F97J60.asm
                   CCPR2L   0x000fbb       data     extern C:\MCC18\src\traditional\proc\p18F97J60.asm
                    CCPR2   0x000fbb       data     extern C:\MCC18\src\traditional\proc\p18F97J60.asm
                   CCPR2H   0x000fbc       data     extern C:\MCC18\src\traditional\proc\p18F97J60.asm
                 ECCP1CON   0x000fbd       data     extern C:\MCC18\src\traditional\proc\p18F97J60.asm
             ECCP1CONbits   0x000fbd       data     extern C:\MCC18\src\traditional\proc\p18F97J60.asm
              CCP1CONbits   0x000fbd       data     extern C:\MCC18\src\traditional\proc\p18F97J60.asm
                  CCP1CON   0x000fbd       data     extern C:\MCC18\src\traditional\proc\p18F97J60.asm
                    CCPR1   0x000fbe       data     extern C:\MCC18\src\traditional\proc\p18F97J60.asm
                   CCPR1L   0x000fbe       data     extern C:\MCC18\src\traditional\proc\p18F97J60.asm
                   CCPR1H   0x000fbf       data     extern C:\MCC18\src\traditional\proc\p18F97J60.asm
               ADCON2bits   0x000fc0       data     extern C:\MCC18\src\traditional\proc\p18F97J60.asm
                   ADCON2   0x000fc0       data     extern C:\MCC18\src\traditional\proc\p18F97J60.asm
               ADCON1bits   0x000fc1       data     extern C:\MCC18\src\traditional\proc\p18F97J60.asm
                   ADCON1   0x000fc1       data     extern C:\MCC18\src\traditional\proc\p18F97J60.asm
                   ADCON0   0x000fc2       data     extern C:\MCC18\src\traditional\proc\p18F97J60.asm
               ADCON0bits   0x000fc2       data     extern C:\MCC18\src\traditional\proc\p18F97J60.asm
                   ADRESL   0x000fc3       data     extern C:\MCC18\src\traditional\proc\p18F97J60.asm
                    ADRES   0x000fc3       data     extern C:\MCC18\src\traditional\proc\p18F97J60.asm
                   ADRESH   0x000fc4       data     extern C:\MCC18\src\traditional\proc\p18F97J60.asm
                 SSP1CON2   0x000fc5       data     extern C:\MCC18\src\traditional\proc\p18F97J60.asm
              SSPCON2bits   0x000fc5       data     extern C:\MCC18\src\traditional\proc\p18F97J60.asm
             SSP1CON2bits   0x000fc5       data     extern C:\MCC18\src\traditional\proc\p18F97J60.asm
                  SSPCON2   0x000fc5       data     extern C:\MCC18\src\traditional\proc\p18F97J60.asm
                 SSP1CON1   0x000fc6       data     extern C:\MCC18\src\traditional\proc\p18F97J60.asm
             SSP1CON1bits   0x000fc6       data     extern C:\MCC18\src\traditional\proc\p18F97J60.asm
                  SSPCON1   0x000fc6       data     extern C:\MCC18\src\traditional\proc\p18F97J60.asm
              SSPCON1bits   0x000fc6       data     extern C:\MCC18\src\traditional\proc\p18F97J60.asm
             SSP1STATbits   0x000fc7       data     extern C:\MCC18\src\traditional\proc\p18F97J60.asm
                 SSP1STAT   0x000fc7       data     extern C:\MCC18\src\traditional\proc\p18F97J60.asm
              SSPSTATbits   0x000fc7       data     extern C:\MCC18\src\traditional\proc\p18F97J60.asm
                  SSPSTAT   0x000fc7       data     extern C:\MCC18\src\traditional\proc\p18F97J60.asm
                  SSP1ADD   0x000fc8       data     extern C:\MCC18\src\traditional\proc\p18F97J60.asm
                   SSPADD   0x000fc8       data     extern C:\MCC18\src\traditional\proc\p18F97J60.asm
                  SSP1BUF   0x000fc9       data     extern C:\MCC18\src\traditional\proc\p18F97J60.asm
                   SSPBUF   0x000fc9       data     extern C:\MCC18\src\traditional\proc\p18F97J60.asm
                T2CONbits   0x000fca       data     extern C:\MCC18\src\traditional\proc\p18F97J60.asm
                    T2CON   0x000fca       data     extern C:\MCC18\src\traditional\proc\p18F97J60.asm
                      PR2   0x000fcb       data     extern C:\MCC18\src\traditional\proc\p18F97J60.asm
                     TMR2   0x000fcc       data     extern C:\MCC18\src\traditional\proc\p18F97J60.asm
                T1CONbits   0x000fcd       data     extern C:\MCC18\src\traditional\proc\p18F97J60.asm
                    T1CON   0x000fcd       data     extern C:\MCC18\src\traditional\proc\p18F97J60.asm
                    TMR1L   0x000fce       data     extern C:\MCC18\src\traditional\proc\p18F97J60.asm
                    TMR1H   0x000fcf       data     extern C:\MCC18\src\traditional\proc\p18F97J60.asm
                 RCONbits   0x000fd0       data     extern C:\MCC18\src\traditional\proc\p18F97J60.asm
                     RCON   0x000fd0       data     extern C:\MCC18\src\traditional\proc\p18F97J60.asm
                   WDTCON   0x000fd1       data     extern C:\MCC18\src\traditional\proc\p18F97J60.asm
               WDTCONbits   0x000fd1       data     extern C:\MCC18\src\traditional\proc\p18F97J60.asm
                ECON1bits   0x000fd2       data     extern C:\MCC18\src\traditional\proc\p18F97J60.asm
                    ECON1   0x000fd2       data     extern C:\MCC18\src\traditional\proc\p18F97J60.asm
                   OSCCON   0x000fd3       data     extern C:\MCC18\src\traditional\proc\p18F97J60.asm
               OSCCONbits   0x000fd3       data     extern C:\MCC18\src\traditional\proc\p18F97J60.asm
                    T0CON   0x000fd5       data     extern C:\MCC18\src\traditional\proc\p18F97J60.asm
                T0CONbits   0x000fd5       data     extern C:\MCC18\src\traditional\proc\p18F97J60.asm
                    TMR0L   0x000fd6       data     extern C:\MCC18\src\traditional\proc\p18F97J60.asm
                    TMR0H   0x000fd7       data     extern C:\MCC18\src\traditional\proc\p18F97J60.asm
                   STATUS   0x000fd8       data     extern C:\MCC18\src\traditional\proc\p18F97J60.asm
               STATUSbits   0x000fd8       data     extern C:\MCC18\src\traditional\proc\p18F97J60.asm
                    FSR2L   0x000fd9       data     extern C:\MCC18\src\traditional\proc\p18F97J60.asm
                     FSR2   0x000fd9       data     extern C:\MCC18\src\traditional\proc\p18F97J60.asm
                    FSR2H   0x000fda       data     extern C:\MCC18\src\traditional\proc\p18F97J60.asm
                   PLUSW2   0x000fdb       data     extern C:\MCC18\src\traditional\proc\p18F97J60.asm
                  PREINC2   0x000fdc       data     extern C:\MCC18\src\traditional\proc\p18F97J60.asm
                 POSTDEC2   0x000fdd       data     extern C:\MCC18\src\traditional\proc\p18F97J60.asm
                 POSTINC2   0x000fde       data     extern C:\MCC18\src\traditional\proc\p18F97J60.asm
                    INDF2   0x000fdf       data     extern C:\MCC18\src\traditional\proc\p18F97J60.asm
                      BSR   0x000fe0       data     extern C:\MCC18\src\traditional\proc\p18F97J60.asm
                     FSR1   0x000fe1       data     extern C:\MCC18\src\traditional\proc\p18F97J60.asm
                    FSR1L   0x000fe1       data     extern C:\MCC18\src\traditional\proc\p18F97J60.asm
                    FSR1H   0x000fe2       data     extern C:\MCC18\src\traditional\proc\p18F97J60.asm
                   PLUSW1   0x000fe3       data     extern C:\MCC18\src\traditional\proc\p18F97J60.asm
                  PREINC1   0x000fe4       data     extern C:\MCC18\src\traditional\proc\p18F97J60.asm
                 POSTDEC1   0x000fe5       data     extern C:\MCC18\src\traditional\proc\p18F97J60.asm
                 POSTINC1   0x000fe6       data     extern C:\MCC18\src\traditional\proc\p18F97J60.asm
                    INDF1   0x000fe7       data     extern C:\MCC18\src\traditional\proc\p18F97J60.asm
                     WREG   0x000fe8       data     extern C:\MCC18\src\traditional\proc\p18F97J60.asm
                    FSR0L   0x000fe9       data     extern C:\MCC18\src\traditional\proc\p18F97J60.asm
                     FSR0   0x000fe9       data     extern C:\MCC18\src\traditional\proc\p18F97J60.asm
                    FSR0H   0x000fea       data     extern C:\MCC18\src\traditional\proc\p18F97J60.asm
                   PLUSW0   0x000feb       data     extern C:\MCC18\src\traditional\proc\p18F97J60.asm
                  PREINC0   0x000fec       data     extern C:\MCC18\src\traditional\proc\p18F97J60.asm
                 POSTDEC0   0x000fed       data     extern C:\MCC18\src\traditional\proc\p18F97J60.asm
                 POSTINC0   0x000fee       data     extern C:\MCC18\src\traditional\proc\p18F97J60.asm
                    INDF0   0x000fef       data     extern C:\MCC18\src\traditional\proc\p18F97J60.asm
              INTCON3bits   0x000ff0       data     extern C:\MCC18\src\traditional\proc\p18F97J60.asm
                  INTCON3   0x000ff0       data     extern C:\MCC18\src\traditional\proc\p18F97J60.asm
              INTCON2bits   0x000ff1       data     extern C:\MCC18\src\traditional\proc\p18F97J60.asm
                  INTCON2   0x000ff1       data     extern C:\MCC18\src\traditional\proc\p18F97J60.asm
               INTCONbits   0x000ff2       data     extern C:\MCC18\src\traditional\proc\p18F97J60.asm
                   INTCON   0x000ff2       data     extern C:\MCC18\src\traditional\proc\p18F97J60.asm
                     PROD   0x000ff3       data     extern C:\MCC18\src\traditional\proc\p18F97J60.asm
                    PRODL   0x000ff3       data     extern C:\MCC18\src\traditional\proc\p18F97J60.asm
                    PRODH   0x000ff4       data     extern C:\MCC18\src\traditional\proc\p18F97J60.asm
                   TABLAT   0x000ff5       data     extern C:\MCC18\src\traditional\proc\p18F97J60.asm
                   TBLPTR   0x000ff6       data     extern C:\MCC18\src\traditional\proc\p18F97J60.asm
                  TBLPTRL   0x000ff6       data     extern C:\MCC18\src\traditional\proc\p18F97J60.asm
                  TBLPTRH   0x000ff7       data     extern C:\MCC18\src\traditional\proc\p18F97J60.asm
                  TBLPTRU   0x000ff8       data     extern C:\MCC18\src\traditional\proc\p18F97J60.asm
                      PCL   0x000ff9       data     extern C:\MCC18\src\traditional\proc\p18F97J60.asm
                       PC   0x000ff9       data     extern C:\MCC18\src\traditional\proc\p18F97J60.asm
                   PCLATH   0x000ffa       data     extern C:\MCC18\src\traditional\proc\p18F97J60.asm
                   PCLATU   0x000ffb       data     extern C:\MCC18\src\traditional\proc\p18F97J60.asm
               STKPTRbits   0x000ffc       data     extern C:\MCC18\src\traditional\proc\p18F97J60.asm
                   STKPTR   0x000ffc       data     extern C:\MCC18\src\traditional\proc\p18F97J60.asm
                     TOSL   0x000ffd       data     extern C:\MCC18\src\traditional\proc\p18F97J60.asm
                      TOS   0x000ffd       data     extern C:\MCC18\src\traditional\proc\p18F97J60.asm
                     TOSH   0x000ffe       data     extern C:\MCC18\src\traditional\proc\p18F97J60.asm
                     TOSU   0x000fff       data     extern C:\MCC18\src\traditional\proc\p18F97J60.asm


