MPLINK 4.22, Linker
Linker Map File - Created Sun Jan 14 12:58:32 2018

                                 Section Info
                  Section       Type    Address   Location Size(Bytes)
                ---------  ---------  ---------  ---------  ---------
               _entry_scn       code   0x000000    program   0x000006
               highVector       code   0x000008    program   0x000006
                lowVector       code   0x000018    program   0x000006
                   .cinit    romdata   0x00002a    program   0x000092
              .code_TCP.o       code   0x0000bc    program   0x003d4e
            .code_HTTP2.o       code   0x003e0a    program   0x00243a
          .code_oled_c2.o       code   0x006244    program   0x0022d2
   .code_HTTPGetDevInfo.o       code   0x008516    program   0x001b84
            .code_MPFS2.o       code   0x00a09a    program   0x000f12
        .code_HTTPPrint.o       code   0x00afac    program   0x000ede
             .code_util.o       code   0x00be8a    program   0x000dfe
          .code_Helpers.o       code   0x00cc88    program   0x000d78
         .code_vfprintf.o       code   0x00da00    program   0x000c22
             .stringtable    romdata   0x00e622    program   0x000bf7
       .idata_SNMPApp.o_i    romdata   0x00f219    program   0x000000
          .romdata_util.o    romdata   0x00f219    program   0x000000
          .romdata_SNMP.o    romdata   0x00f219    program   0x000000
   .idata_internalADC.o_i    romdata   0x00f219    program   0x000000
          .idata_putc.o_i    romdata   0x00f219    program   0x000000
          .romdata_putc.o    romdata   0x00f219    program   0x000000
           .idata_ISR.o_i    romdata   0x00f219    program   0x000001
        .romdata_devadc.o    romdata   0x00f219    program   0x000000
        .idata_devspi.o_i    romdata   0x00f219    program   0x000000
      .idata_SPIFlash.o_i    romdata   0x00f219    program   0x000000
     .romdata_SPIEEPROM.o    romdata   0x00f219    program   0x000000
         .romdata_MPFS2.o    romdata   0x00f219    program   0x000000
         .idata_MPFS2.o_i    romdata   0x00f219    program   0x000000
    .romdata__user_putc.o    romdata   0x00f219    program   0x000000
      .idata_vfprintf.o_i    romdata   0x00f219    program   0x000000
        .idata___init.o_i    romdata   0x00f219    program   0x000000
       .romdata_adcopen.o    romdata   0x00f219    program   0x000000
       .idata_fxm3232.o_i    romdata   0x00f219    program   0x000000
      .romdata_fxd3232u.o    romdata   0x00f219    program   0x000000
      .idata_fxd1616u.o_i    romdata   0x00f219    program   0x000000
      .romdata_fxd0808u.o    romdata   0x00f219    program   0x000000
      .idata_adcclose.o_i    romdata   0x00f219    program   0x000000
          .romdata_Main.o    romdata   0x00f219    program   0x000000
.romdata_HTTPGetDevInfo.o    romdata   0x00f219    program   0x000000
        .romdata_i2c_c1.o    romdata   0x00f219    program   0x000000
     .romdata_VOLDC_c1 .o    romdata   0x00f219    program   0x000000
.idata_UpConverter_c1.o_i    romdata   0x00f219    program   0x000000
.idata_MainControl_c1.o_i    romdata   0x00f219    program   0x000000
   .idata_SNMPSysInfo.o_i    romdata   0x00f219    program   0x000000
.romdata_SNMPLLiBUCStatus.o    romdata   0x00f219    program   0x000000
  .idata_SNMPLLiBUCOp.o_i    romdata   0x00f219    program   0x000000
.romdata_SNMPLLiBUCDevInfo.o    romdata   0x00f219    program   0x000000
        .idata_c018iz.o_i    romdata   0x00f219    program   0x000000
      .romdata_StackTsk.o    romdata   0x00f219    program   0x000000
           .romdata_UDP.o    romdata   0x00f219    program   0x000000
      .romdata_ETH97J60.o    romdata   0x00f219    program   0x000000
          .romdata_DHCP.o    romdata   0x00f219    program   0x000000
            .romdata_IP.o    romdata   0x00f219    program   0x000000
         .romdata_Delay.o    romdata   0x00f219    program   0x000000
       .romdata_Helpers.o    romdata   0x00f219    program   0x000000
          .idata_UART.o_i    romdata   0x00f219    program   0x000000
          .romdata_UART.o    romdata   0x00f219    program   0x000000
         .code_ETH97J60.o       code   0x00f21a    program   0x000bb2
       .romdata_oled_c2.o    romdata   0x00fdcc    program   0x000a64
   .code_UpConverter_c1.o       code   0x010830    program   0x0007c8
                     PROG       code   0x010ff8    program   0x000714
          .code_oled_c1.o       code   0x01170c    program   0x0006e4
          .code_HTTPApp.o       code   0x011df0    program   0x0006e2
 .code_DownConverter_c1.o       code   0x0124d2    program   0x0005f4
              .code_ARP.o       code   0x012ac6    program   0x000494
                   STRING       code   0x012f5a    program   0x00046c
   .code_MainControl_c1.o       code   0x0133c6    program   0x0003f6
   .code_Initialization.o       code   0x0137bc    program   0x000382
        .code_VOLDC_c1 .o       code   0x013b3e    program   0x00034e
             .code_Main.o       code   0x013e8c    program   0x000346
               .code_IP.o       code   0x0141d2    program   0x00032e
           .code_i2c_c1.o       code   0x014500    program   0x00031e
        .code_SPIEEPROM.o       code   0x01481e    program   0x0002fa
      .code_internalADC.o       code   0x014b18    program   0x000252
         .code_StackTsk.o       code   0x014d6a    program   0x0001e4
           .code_devadc.o       code   0x014f4e    program   0x0001de
              .code_ISR.o       code   0x01512c    program   0x0001b8
                   STDLIB       code   0x0152e4    program   0x000192
             .code_ICMP.o       code   0x015476    program   0x00014a
             .code_Tick.o       code   0x0155c0    program   0x000122
             .code_UART.o       code   0x0156e2    program   0x0000e6
          .code_sprintf.o       code   0x0157c8    program   0x0000ac
               _cinit_scn       code   0x015874    program   0x00009e
           .code_devspi.o       code   0x015912    program   0x000086
             .code_putc.o       code   0x015998    program   0x000084
         .romdata_HTTP2.o    romdata   0x015a1c    program   0x00007e
          .code_fxm3232.o       code   0x015a9a    program   0x000070
          .code_adcopen.o       code   0x015b0a    program   0x00006e
         .code_fxd3232u.o       code   0x015b78    program   0x000048
         .code_fxd1616u.o       code   0x015bc0    program   0x00002c
                    CTYPE       code   0x015bec    program   0x000024
           .romdata_TCP.o    romdata   0x015c10    program   0x000024
             _startup_scn       code   0x015c34    program   0x000020
              D1KTCYXCODE       code   0x015c54    program   0x000020
   .code_UART2TCPBridge.o       code   0x015c74    program   0x00001e
                    STDIO       code   0x015c92    program   0x00001c
         .code_fxd0808u.o       code   0x015cae    program   0x00001c
              D10TCYXCODE       code   0x015cca    program   0x000016
      .romdata_vfprintf.o    romdata   0x015ce0    program   0x000011
       .romdata_oled_c1.o    romdata   0x015cf1    program   0x000010
         .idata_HTTP2.o_i    romdata   0x015d01    program   0x000000
           .idata_UDP.o_i    romdata   0x015d01    program   0x000000
.idata_Initialization.o_i    romdata   0x015d01    program   0x000000
        .romdata_c018iz.o    romdata   0x015d01    program   0x000000
     .idata_HTTPPrint.o_i    romdata   0x015d01    program   0x000000
    .idata__user_putc.o_i    romdata   0x015d01    program   0x000000
     .romdata_HTTPPrint.o    romdata   0x015d01    program   0x000000
         .idata_DHCPs.o_i    romdata   0x015d01    program   0x000000
       .romdata_sprintf.o    romdata   0x015d01    program   0x000000
       .idata_sprintf.o_i    romdata   0x015d01    program   0x000000
         .romdata_DHCPs.o    romdata   0x015d01    program   0x000000
      .romdata_adcclose.o    romdata   0x015d01    program   0x000000
        .romdata___init.o    romdata   0x015d01    program   0x000000
      .idata_fxd0808u.o_i    romdata   0x015d01    program   0x000000
      .idata_StackTsk.o_i    romdata   0x015d01    program   0x000000
      .romdata_fxd1616u.o    romdata   0x015d01    program   0x000000
       .idata_adcopen.o_i    romdata   0x015d01    program   0x000000
      .idata_fxd3232u.o_i    romdata   0x015d01    program   0x000000
      .romdata_MPFSImg2.o    romdata   0x015d01    program   0x000000
      .idata_MPFSImg2.o_i    romdata   0x015d01    program   0x000000
       .romdata_fxm3232.o    romdata   0x015d01    program   0x000000
      .idata_ETH97J60.o_i    romdata   0x015d01    program   0x000000
.idata_SNMPLLiBUCStatus.o_i    romdata   0x015d01    program   0x000000
  .romdata_SNMPLLiBUCOp.o    romdata   0x015d01    program   0x000000
          .idata_DHCP.o_i    romdata   0x015d01    program   0x000000
.idata_SNMPLLiBUCDevInfo.o_i    romdata   0x015d01    program   0x000000
       .romdata_SNMPApp.o    romdata   0x015d01    program   0x000000
       .romdata_HTTPApp.o    romdata   0x015d01    program   0x000000
         .idata_Delay.o_i    romdata   0x015d01    program   0x000000
          .idata_ICMP.o_i    romdata   0x015d01    program   0x000000
          .idata_SNMP.o_i    romdata   0x015d01    program   0x000000
.romdata_UART2TCPBridge.o    romdata   0x015d01    program   0x000000
   .romdata_internalADC.o    romdata   0x015d01    program   0x000000
       .idata_Helpers.o_i    romdata   0x015d01    program   0x000000
          .romdata_ICMP.o    romdata   0x015d01    program   0x000000
           .romdata_ISR.o    romdata   0x015d01    program   0x000000
     .idata_SPIEEPROM.o_i    romdata   0x015d01    program   0x000000
        .idata_devadc.o_i    romdata   0x015d01    program   0x000000
        .romdata_devspi.o    romdata   0x015d01    program   0x000000
      .romdata_SPIFlash.o    romdata   0x015d01    program   0x000000
          .romdata_Tick.o    romdata   0x015d01    program   0x000000
       .idata_oled_c1.o_i    romdata   0x015d01    program   0x000000
        .idata_i2c_c1.o_i    romdata   0x015d01    program   0x000000
           .idata_ARP.o_i    romdata   0x015d01    program   0x000001
     .idata_VOLDC_c1 .o_i    romdata   0x015d01    program   0x000000
.romdata_UpConverter_c1.o    romdata   0x015d01    program   0x000000
           .romdata_ARP.o    romdata   0x015d01    program   0x000000
.romdata_MainControl_c1.o    romdata   0x015d01    program   0x000000
.romdata_DownConverter_c1.o    romdata   0x015d01    program   0x000000
.idata_DownConverter_c1.o_i    romdata   0x015d01    program   0x000000
   .romdata_SNMPSysInfo.o    romdata   0x015d01    program   0x000000
                    .code       code   0x015d02    program   0x00000e
.romdata_Initialization.o    romdata   0x015d10    program   0x000006
         .code_adcclose.o       code   0x015d16    program   0x000006
       .code__user_putc.o       code   0x015d1c    program   0x000002
           .code___init.o       code   0x015d1e    program   0x000002
              SEED_DATA_i    romdata   0x015d20    program   0x000002
          .idata_util.o_i    romdata   0x015d22    program   0x000004
       .idata_oled_c2.o_i    romdata   0x015d26    program   0x0000c7
.idata_UART2TCPBridge.o_i    romdata   0x015ded    program   0x000008
          .idata_Tick.o_i    romdata   0x015df5    program   0x000004
           .idata_TCP.o_i    romdata   0x015df9    program   0x000002
          .idata_Main.o_i    romdata   0x015dfb    program   0x000017
            .idata_IP.o_i    romdata   0x015e12    program   0x000002
.idata_HTTPGetDevInfo.o_i    romdata   0x015e14    program   0x000002
       .idata_HTTPApp.o_i    romdata   0x015e16    program   0x000002
.code_SNMPLLiBUCDevInfo.o       code   0x015e18    program   0x000000
              .code_UDP.o       code   0x015e18    program   0x000000
         .code_SPIFlash.o       code   0x015e18    program   0x000000
           .code_c018iz.o       code   0x015e18    program   0x000000
      .code_SNMPSysInfo.o       code   0x015e18    program   0x000000
            .code_DHCPs.o       code   0x015e18    program   0x000000
 .code_SNMPLLiBUCStatus.o       code   0x015e18    program   0x000000
            .code_Delay.o       code   0x015e18    program   0x000000
             .code_DHCP.o       code   0x015e18    program   0x000000
          .code_SNMPApp.o       code   0x015e18    program   0x000000
     .code_SNMPLLiBUCOp.o       code   0x015e18    program   0x000000
         .code_MPFSImg2.o       code   0x015e18    program   0x000000
             .code_SNMP.o       code   0x015e18    program   0x000000
     .config_1fff8_Main.o    romdata   0x01fff8    program   0x000001
     .config_1fffa_Main.o    romdata   0x01fffa    program   0x000001
     .config_1fffd_Main.o    romdata   0x01fffd    program   0x000001
                MATH_DATA      udata   0x000000       data   0x000014
                 .tmpdata      udata   0x000014       data   0x000011
                DELAYDAT1      udata   0x000025       data   0x000001
                     gpr8      udata   0x000060       data   0x000090
          .udata_i2c_c1.o      udata   0x0000f0       data   0x000010
         .idata_oled_c2.o      idata   0x000100       data   0x0000c7
                     grp5      udata   0x0001c7       data   0x000033
            .udata_Tick.o      udata   0x0001fa       data   0x000006
                    grp10      udata   0x000200       data   0x0000ac
  .udata_UART2TCPBridge.o      udata   0x0002ac       data   0x000052
                SEED_DATA      idata   0x0002fe       data   0x000002
                 TCB_uRAM      udata   0x000300       data   0x0000a8
            .udata_Main.o      udata   0x0003a8       data   0x000057
         .udata_oled_c1.o      udata   0x0003ff       data   0x000001
   HTTP_CONNECTION_STATES      udata   0x000400       data   0x000084
           .udata_MPFS2.o      udata   0x000484       data   0x00006f
         .udata_HTTPApp.o      udata   0x0004f3       data   0x00000d
       SYN_QUEUE_RAM_SECT      udata   0x000500       data   0x00003c
  .udata_HTTPGetDevInfo.o      udata   0x00053c       data   0x00003c
            .idata_Main.o      idata   0x000578       data   0x000017
        .udata_StackTsk.o      udata   0x00058f       data   0x00000b
                    grp17      udata   0x00059a       data   0x00000a
          .udata_c018iz.o      udata   0x0005a4       data   0x00000a
  .idata_UART2TCPBridge.o      idata   0x0005ae       data   0x000008
        .udata_ETH97J60.o      udata   0x0005b6       data   0x000007
.udata_SNMPLLiBUCDevInfo.o      udata   0x0005bd       data   0x000005
  .udata_Initialization.o      udata   0x0005c2       data   0x000004
         .udata_Helpers.o      udata   0x0005c6       data   0x000004
            .idata_util.o      idata   0x0005ca       data   0x000004
            .idata_Tick.o      idata   0x0005ce       data   0x000004
            .udata_util.o      udata   0x0005d2       data   0x000003
              .idata_IP.o      idata   0x0005d5       data   0x000002
  .idata_HTTPGetDevInfo.o      idata   0x0005d7       data   0x000002
         .idata_HTTPApp.o      idata   0x0005d9       data   0x000002
              .udata_IP.o      udata   0x0005db       data   0x000001
             .idata_ISR.o      idata   0x0005dc       data   0x000001
             .idata_ARP.o      idata   0x0005dd       data   0x000001
     .idata_SNMPSysInfo.o      idata   0x0005de       data   0x000000
.udata_DownConverter_c1.o      udata   0x0005de       data   0x000000
.idata_DownConverter_c1.o      idata   0x0005de       data   0x000000
  .udata_MainControl_c1.o      udata   0x0005de       data   0x000000
  .idata_MainControl_c1.o      idata   0x0005de       data   0x000000
  .udata_UpConverter_c1.o      udata   0x0005de       data   0x000000
  .idata_UpConverter_c1.o      idata   0x0005de       data   0x000000
         .idata_oled_c1.o      idata   0x0005de       data   0x000000
       .udata_VOLDC_c1 .o      udata   0x0005de       data   0x000000
          .idata_i2c_c1.o      idata   0x0005de       data   0x000000
       .idata_VOLDC_c1 .o      idata   0x0005de       data   0x000000
      .idata__user_putc.o      idata   0x0005de       data   0x000000
      .udata__user_putc.o      udata   0x0005de       data   0x000000
            .idata_putc.o      idata   0x0005de       data   0x000000
            .udata_putc.o      udata   0x0005de       data   0x000000
        .idata_vfprintf.o      idata   0x0005de       data   0x000000
        .udata_vfprintf.o      udata   0x0005de       data   0x000000
         .idata_sprintf.o      idata   0x0005de       data   0x000000
         .udata_sprintf.o      udata   0x0005de       data   0x000000
          .idata___init.o      idata   0x0005de       data   0x000000
          .udata___init.o      udata   0x0005de       data   0x000000
         .idata_adcopen.o      idata   0x0005de       data   0x000000
         .udata_adcopen.o      udata   0x0005de       data   0x000000
         .idata_fxm3232.o      idata   0x0005de       data   0x000000
         .udata_fxm3232.o      udata   0x0005de       data   0x000000
        .idata_fxd3232u.o      idata   0x0005de       data   0x000000
        .udata_fxd3232u.o      udata   0x0005de       data   0x000000
        .idata_fxd1616u.o      idata   0x0005de       data   0x000000
        .udata_fxd1616u.o      udata   0x0005de       data   0x000000
        .idata_fxd0808u.o      idata   0x0005de       data   0x000000
        .udata_fxd0808u.o      udata   0x0005de       data   0x000000
        .idata_adcclose.o      idata   0x0005de       data   0x000000
        .udata_adcclose.o      udata   0x0005de       data   0x000000
       .idata_HTTPPrint.o      idata   0x0005de       data   0x000000
  .idata_Initialization.o      idata   0x0005de       data   0x000000
            .idata_ICMP.o      idata   0x0005de       data   0x000000
        .udata_MPFSImg2.o      udata   0x0005de       data   0x000000
        .idata_MPFSImg2.o      idata   0x0005de       data   0x000000
        .idata_StackTsk.o      idata   0x0005de       data   0x000000
             .udata_UDP.o      udata   0x0005de       data   0x000000
             .idata_UDP.o      idata   0x0005de       data   0x000000
        .idata_ETH97J60.o      idata   0x0005de       data   0x000000
           .udata_Delay.o      udata   0x0005de       data   0x000000
           .idata_Delay.o      idata   0x0005de       data   0x000000
         .idata_Helpers.o      idata   0x0005de       data   0x000000
            .udata_UART.o      udata   0x0005de       data   0x000000
            .idata_UART.o      idata   0x0005de       data   0x000000
            .udata_DHCP.o      udata   0x0005de       data   0x000000
            .idata_DHCP.o      idata   0x0005de       data   0x000000
           .udata_DHCPs.o      udata   0x0005de       data   0x000000
           .idata_DHCPs.o      idata   0x0005de       data   0x000000
           .udata_HTTP2.o      udata   0x0005de       data   0x000000
           .idata_HTTP2.o      idata   0x0005de       data   0x000000
            .udata_ICMP.o      udata   0x0005de       data   0x000000
           .idata_MPFS2.o      idata   0x0005de       data   0x000000
     .udata_SNMPSysInfo.o      udata   0x0005de       data   0x000000
.idata_SNMPLLiBUCStatus.o      idata   0x0005de       data   0x000000
.udata_SNMPLLiBUCStatus.o      udata   0x0005de       data   0x000000
    .idata_SNMPLLiBUCOp.o      idata   0x0005de       data   0x000000
    .udata_SNMPLLiBUCOp.o      udata   0x0005de       data   0x000000
.idata_SNMPLLiBUCDevInfo.o      idata   0x0005de       data   0x000000
         .idata_SNMPApp.o      idata   0x0005de       data   0x000000
         .udata_SNMPApp.o      udata   0x0005de       data   0x000000
            .idata_SNMP.o      idata   0x0005de       data   0x000000
            .udata_SNMP.o      udata   0x0005de       data   0x000000
     .idata_internalADC.o      idata   0x0005de       data   0x000000
     .udata_internalADC.o      udata   0x0005de       data   0x000000
             .udata_ISR.o      udata   0x0005de       data   0x000000
          .idata_devadc.o      idata   0x0005de       data   0x000000
          .udata_devadc.o      udata   0x0005de       data   0x000000
          .idata_devspi.o      idata   0x0005de       data   0x000000
          .udata_devspi.o      udata   0x0005de       data   0x000000
        .idata_SPIFlash.o      idata   0x0005de       data   0x000000
          .idata_c018iz.o      idata   0x0005de       data   0x000000
        .udata_SPIFlash.o      udata   0x0005de       data   0x000000
       .idata_SPIEEPROM.o      idata   0x0005de       data   0x000000
                   .stack      udata   0x000c00       data   0x000200
         .udata_oled_c2.o      udata   0x000e00       data   0x000047
       .udata_SPIEEPROM.o      udata   0x000e47       data   0x000025
             .udata_ARP.o      udata   0x000e6c       data   0x000014
              SFR_BANKED0      udata   0x000e80       data   0x000006
              SFR_BANKED1      udata   0x000e8a       data   0x000001
              SFR_BANKED2      udata   0x000e97       data   0x000003
              SFR_BANKED3      udata   0x000ea0       data   0x000001
              SFR_BANKED4      udata   0x000ea2       data   0x000003
              SFR_BANKED5      udata   0x000ea6       data   0x000002
              SFR_BANKED6      udata   0x000eaa       data   0x000002
              SFR_BANKED7      udata   0x000eb2       data   0x000001
              SFR_BANKED8      udata   0x000eb4       data   0x000001
              SFR_BANKED9      udata   0x000eb6       data   0x000004
             SFR_BANKED10      udata   0x000ec0       data   0x000012
             SFR_BANKED11      udata   0x000ed4       data   0x000002
             SFR_BANKED12      udata   0x000ed8       data   0x000002
             SFR_BANKED13      udata   0x000ee2       data   0x000016
             SFR_BANKED14      udata   0x000efb       data   0x000001
             SFR_BANKED15      udata   0x000efd       data   0x000002
             .udata_TCP.o      udata   0x000f00       data   0x00004f
       .udata_HTTPPrint.o      udata   0x000f4f       data   0x00000f
             .idata_TCP.o      idata   0x000f5e       data   0x000002
            SFR_UNBANKED0      udata   0x000f60       data   0x0000a0



                              Program Memory Usage 
                               Start         End      
                           ---------   ---------      
                            0x000000    0x000005      
                            0x000008    0x00000d      
                            0x000018    0x00001d      
                            0x00002a    0x015e17      
                            0x01fff8    0x01fff8      
                            0x01fffa    0x01fffa      
                            0x01fffd    0x01fffd      
            89603 out of 131072 program addresses used, program memory utilization is 68%



                              Symbols - Sorted by Name
                     Name    Address   Location    Storage File                     
                ---------  ---------  ---------  --------- ---------                
                ADC_Value   0x014c30    program     extern D:\git\70M_Ku_Up\Drivers\MCU-Internal\internalADC.c
                  AD_init   0x014b18    program     extern D:\git\70M_Ku_Up\Drivers\MCU-Internal\internalADC.c
                  ARPInit   0x012b8e    program     extern D:\git\70M_Ku_Up\Microchip\TCPIP Stack\ARP.c
            ARPIsResolved   0x012de6    program     extern D:\git\70M_Ku_Up\Microchip\TCPIP Stack\ARP.c
               ARPProcess   0x012ba6    program     extern D:\git\70M_Ku_Up\Microchip\TCPIP Stack\ARP.c
                   ARPPut   0x012ac6    program     static D:\git\70M_Ku_Up\Microchip\TCPIP Stack\ARP.c
               ARPResolve   0x012d3c    program     extern D:\git\70M_Ku_Up\Microchip\TCPIP Stack\ARP.c
                ASC2toHEX   0x00c4da    program     extern D:\git\70M_Ku_Up\SysLib\util.c
             Base64Decode   0x00d15c    program     extern D:\git\70M_Ku_Up\Microchip\TCPIP Stack\Helpers.c
                BusyUSART   0x0156e2    program     extern D:\git\70M_Ku_Up\Microchip\TCPIP Stack\UART.c
               BusyUSART2   0x01573a    program     extern D:\git\70M_Ku_Up\Microchip\TCPIP Stack\UART.c
                    CGRAM   0x015cf1    program     extern D:\git\70M_Ku_Up\Drivers\External-Peripherals\oled_c1.c
     CalcIPBufferChecksum   0x00f75a    program     extern D:\git\70M_Ku_Up\Microchip\TCPIP Stack\ETH97J60.c
           CalcIPChecksum   0x00d594    program     extern D:\git\70M_Ku_Up\Microchip\TCPIP Stack\Helpers.c
                CheckBusy   0x01174c    program     extern D:\git\70M_Ku_Up\Drivers\External-Peripherals\oled_c1.c
                 CloseADC   0x015d16    program     extern C:\MCC18\src\pmc_common\ADC\adcclose.c
              CloseSocket   0x001f18    program     static D:\git\70M_Ku_Up\Microchip\TCPIP Stack\TCP.c
               CloseUSART   0x0156ee    program     extern D:\git\70M_Ku_Up\Microchip\TCPIP Stack\UART.c
              CloseUSART2   0x015746    program     extern D:\git\70M_Ku_Up\Microchip\TCPIP Stack\UART.c
                    D10_1   0x015cda    program     static C:\Program Files\mcc18\src\traditional\delays\d10tcyx.asm
                     D10x   0x015cd2    program     static C:\Program Files\mcc18\src\traditional\delays\d10tcyx.asm
                   D1616S   0x011314    program     static C:\Program Files\mcc18\src\traditional\math\fxd1616s.asm
                D1616SNEG   0x011322    program     static C:\Program Files\mcc18\src\traditional\math\fxd1616s.asm
                 D1616SOK   0x01131e    program     static C:\Program Files\mcc18\src\traditional\math\fxd1616s.asm
                  D1616SX   0x011334    program     static C:\Program Files\mcc18\src\traditional\math\fxd1616s.asm
                    D1K_1   0x015c60    program     static C:\Program Files\mcc18\src\traditional\delays\d1ktcyx.asm
                     D1Kx   0x015c5e    program     static C:\Program Files\mcc18\src\traditional\delays\d1ktcyx.asm
                  DA1616S   0x011304    program     static C:\Program Files\mcc18\src\traditional\math\fxd1616s.asm
          DRI__vConfigSPI   0x013e9a    program     static D:\git\70M_Ku_Up\Main\Main.c
    DRI__vEnableGlobalInt   0x013e90    program     static D:\git\70M_Ku_Up\Main\Main.c
        DRI__vHitWatchDog   0x013e8c    program     static D:\git\70M_Ku_Up\Main\Main.c
            DRI_vLCDClear   0x0118e0    program     extern D:\git\70M_Ku_Up\Drivers\External-Peripherals\oled_c1.c
          DRI_vLCDDisplay   0x0118ec    program     extern D:\git\70M_Ku_Up\Drivers\External-Peripherals\oled_c1.c
        DRI_vLCDEntryMode   0x0118e8    program     extern D:\git\70M_Ku_Up\Drivers\External-Peripherals\oled_c1.c
       DRI_vLCDReturnhome   0x0118e4    program     extern D:\git\70M_Ku_Up\Drivers\External-Peripherals\oled_c1.c
          DRI_vPrintCGRAM   0x01188a    program     extern D:\git\70M_Ku_Up\Drivers\External-Peripherals\oled_c1.c
             DataRdyUSART   0x0156fa    program     extern D:\git\70M_Ku_Up\Microchip\TCPIP Stack\UART.c
            DataRdyUSART2   0x015752    program     extern D:\git\70M_Ku_Up\Microchip\TCPIP Stack\UART.c
              Delay10TCYx   0x015cca    program     extern C:\Program Files\mcc18\src\traditional\delays\d10tcyx.asm
              Delay1KTCYx   0x015c54    program     extern C:\Program Files\mcc18\src\traditional\delays\d1ktcyx.asm
                  DelayMS   0x00c59a    program     extern D:\git\70M_Ku_Up\SysLib\util.c
       DisplayCompanyMenu   0x006244    program     extern D:\git\70M_Ku_Up\Drivers\External-Peripherals\oled_c2.c
           DisplayIPValue   0x00c816    program     extern D:\git\70M_Ku_Up\SysLib\util.c
                  DoWrite   0x0149aa    program     static D:\git\70M_Ku_Up\Microchip\TCPIP Stack\SPIEEPROM.c
        DownCvt_vPrintALC   0x01256c    program     extern D:\git\70M_Ku_Up\Devices\DownConverter_c1.c
       DownCvt_vPrintAttn   0x012552    program     extern D:\git\70M_Ku_Up\Devices\DownConverter_c1.c
       DownCvt_vPrintFreq   0x0124d2    program     extern D:\git\70M_Ku_Up\Devices\DownConverter_c1.c
         DownCvt_vPrintLo   0x012520    program     extern D:\git\70M_Ku_Up\Devices\DownConverter_c1.c
       DownCvt_vPrintMute   0x012586    program     extern D:\git\70M_Ku_Up\Devices\DownConverter_c1.c
      DownCvt_vPrintPower   0x0124ec    program     extern D:\git\70M_Ku_Up\Devices\DownConverter_c1.c
      DownCvt_vPrintStPwr   0x012506    program     extern D:\git\70M_Ku_Up\Devices\DownConverter_c1.c
         DownCvt_vSendI2C   0x0125ca    program     extern D:\git\70M_Ku_Up\Devices\DownConverter_c1.c
          DownCvt_vSetALC   0x01293e    program     extern D:\git\70M_Ku_Up\Devices\DownConverter_c1.c
         DownCvt_vSetAttn   0x01270e    program     extern D:\git\70M_Ku_Up\Devices\DownConverter_c1.c
         DownCvt_vSetFreq   0x0125dc    program     extern D:\git\70M_Ku_Up\Devices\DownConverter_c1.c
         DownCvt_vSetMute   0x012986    program     extern D:\git\70M_Ku_Up\Devices\DownConverter_c1.c
        DownCvt_vSetPower   0x0127fe    program     extern D:\git\70M_Ku_Up\Devices\DownConverter_c1.c
        DownCvt_vSetStPwr   0x012800    program     extern D:\git\70M_Ku_Up\Devices\DownConverter_c1.c
                 FLO0832S   0x010ffc    program     extern C:\Program Files\mcc18\src\traditional\math\cast08FP.asm
                 FLO0832U   0x010ff8    program     extern C:\Program Files\mcc18\src\traditional\math\cast08FP.asm
                 FLO1632S   0x01101e    program     extern C:\Program Files\mcc18\src\traditional\math\cast16FP.asm
                 FLO1632U   0x01101a    program     extern C:\Program Files\mcc18\src\traditional\math\cast16FP.asm
                    FPA32   0x011046    program     extern C:\Program Files\mcc18\src\traditional\math\addFP.asm
                    FPD32   0x011172    program     extern C:\Program Files\mcc18\src\traditional\math\divFP.asm
                    FPM32   0x011218    program     extern C:\Program Files\mcc18\src\traditional\math\mulFP.asm
                    FPS32   0x011044    program     extern C:\Program Files\mcc18\src\traditional\math\addFP.asm
                 FXD0808U   0x015cae    program     extern C:\Program Files\mcc18\src\traditional\math\fxd0808u.c
                 FXD1616S   0x0112f2    program     extern C:\Program Files\mcc18\src\traditional\math\fxd1616s.asm
                 FXD1616U   0x015bc0    program     extern C:\Program Files\mcc18\src\traditional\math\fxd1616u.c
                 FXD3232U   0x015b78    program     extern C:\Program Files\mcc18\src\traditional\math\fxd3232u.c
                 FXM1616S   0x01133e    program     extern C:\Program Files\mcc18\src\traditional\math\fxm1616s.asm
                 FXM1616U   0x011398    program     extern C:\Program Files\mcc18\src\traditional\math\fxm1616u.asm
                 FXM2424U   0x0113d4    program     extern C:\Program Files\mcc18\src\traditional\math\fxm2424u.asm
                  FXM3232   0x015a9a    program     extern C:\Program Files\mcc18\src\traditional\math\fxm3232.c
       FindMatchingSocket   0x001bfe    program     static D:\git\70M_Ku_Up\Microchip\TCPIP Stack\TCP.c
        FormatNetBIOSName   0x00d740    program     extern D:\git\70M_Ku_Up\Microchip\TCPIP Stack\Helpers.c
      GenerateRandomDWORD   0x00cc88    program     extern D:\git\70M_Ku_Up\Microchip\TCPIP Stack\Helpers.c
   GetCurrentFromHexValue   0x014ff4    program     extern D:\git\70M_Ku_Up\Drivers\External-Peripherals\devadc.c
           GetDWORDString   0x00b1b4    program     extern D:\git\70M_Ku_Up\App\WebUI\HTTPPrint.c
                GetOneADC   0x014d14    program     extern D:\git\70M_Ku_Up\Drivers\MCU-Internal\internalADC.c
             GetOneCHADC0   0x014f4e    program     extern D:\git\70M_Ku_Up\Drivers\External-Peripherals\devadc.c
       GetOneCHADC012Bits   0x014f84    program     extern D:\git\70M_Ku_Up\Drivers\External-Peripherals\devadc.c
             GetOneCHADC1   0x014fa2    program     extern D:\git\70M_Ku_Up\Drivers\External-Peripherals\devadc.c
       GetOneCHADC112Bits   0x014fd8    program     extern D:\git\70M_Ku_Up\Drivers\External-Peripherals\devadc.c
                 GetPower   0x00b0cc    program     extern D:\git\70M_Ku_Up\App\WebUI\HTTPPrint.c
              GetTickCopy   0x0155d0    program     static D:\git\70M_Ku_Up\Microchip\TCPIP Stack\Tick.c
            GetWORDString   0x00b126    program     extern D:\git\70M_Ku_Up\App\WebUI\HTTPPrint.c
                HEXto2ASC   0x00c552    program     extern D:\git\70M_Ku_Up\SysLib\util.c
            HTTPCheckAuth   0x011e32    program     extern D:\git\70M_Ku_Up\App\WebUI\HTTPApp.c
   HTTPExe_get_deviceinfo   0x0093e0    program     extern D:\git\70M_Ku_Up\App\WebUI\HTTPGetDevInfo.c
           HTTPExecuteGet   0x011e7a    program     extern D:\git\70M_Ku_Up\App\WebUI\HTTPApp.c
          HTTPExecutePost   0x011e7e    program     extern D:\git\70M_Ku_Up\App\WebUI\HTTPApp.c
               HTTPGetArg   0x0054be    program     extern D:\git\70M_Ku_Up\Microchip\TCPIP Stack\HTTP2.c
            HTTPGetROMArg   0x005504    program     extern D:\git\70M_Ku_Up\Microchip\TCPIP Stack\HTTP2.c
  HTTPGet__boDeviceConfig   0x0093b6    program     static D:\git\70M_Ku_Up\App\WebUI\HTTPGetDevInfo.c
    HTTPGet__boInfoConfig   0x008516    program     static D:\git\70M_Ku_Up\App\WebUI\HTTPGetDevInfo.c
 HTTPGet__boNetworkConfig   0x00855c    program     static D:\git\70M_Ku_Up\App\WebUI\HTTPGetDevInfo.c
      HTTPGet__boSetOnOff   0x0085ea    program     static D:\git\70M_Ku_Up\App\WebUI\HTTPGetDevInfo.c
   HTTPGet__u8ClearBUCIAm   0x009352    program     static D:\git\70M_Ku_Up\App\WebUI\HTTPGetDevInfo.c
   HTTPGet__u8ClearLNBIAm   0x009384    program     static D:\git\70M_Ku_Up\App\WebUI\HTTPGetDevInfo.c
     HTTPGet__u8SetBUCREF   0x00928a    program     static D:\git\70M_Ku_Up\App\WebUI\HTTPGetDevInfo.c
 HTTPGet__u8SetDownCvtALC   0x008fba    program     static D:\git\70M_Ku_Up\App\WebUI\HTTPGetDevInfo.c
HTTPGet__u8SetDownCvtAttn   0x008a68    program     static D:\git\70M_Ku_Up\App\WebUI\HTTPGetDevInfo.c
HTTPGet__u8SetDownCvtMute   0x009112    program     static D:\git\70M_Ku_Up\App\WebUI\HTTPGetDevInfo.c
HTTPGet__u8SetDownCvtPower   0x008d3c    program     static D:\git\70M_Ku_Up\App\WebUI\HTTPGetDevInfo.c
HTTPGet__u8SetDownCvtRFFreq   0x008856    program     static D:\git\70M_Ku_Up\App\WebUI\HTTPGetDevInfo.c
HTTPGet__u8SetDownCvtSetPower   0x008e0e    program     static D:\git\70M_Ku_Up\App\WebUI\HTTPGetDevInfo.c
     HTTPGet__u8SetLNBREF   0x0092f0    program     static D:\git\70M_Ku_Up\App\WebUI\HTTPGetDevInfo.c
   HTTPGet__u8SetUpCvtALC   0x008f1a    program     static D:\git\70M_Ku_Up\App\WebUI\HTTPGetDevInfo.c
  HTTPGet__u8SetUpCvtAttn   0x008972    program     static D:\git\70M_Ku_Up\App\WebUI\HTTPGetDevInfo.c
  HTTPGet__u8SetUpCvtMute   0x00905c    program     static D:\git\70M_Ku_Up\App\WebUI\HTTPGetDevInfo.c
 HTTPGet__u8SetUpCvtPower   0x008b5e    program     static D:\git\70M_Ku_Up\App\WebUI\HTTPGetDevInfo.c
HTTPGet__u8SetUpCvtRFFreq   0x008632    program     static D:\git\70M_Ku_Up\App\WebUI\HTTPGetDevInfo.c
HTTPGet__u8SetUpCvtSetPower   0x008c30    program     static D:\git\70M_Ku_Up\App\WebUI\HTTPGetDevInfo.c
   HTTPGet__u8SetVOL18VDC   0x0091bc    program     static D:\git\70M_Ku_Up\App\WebUI\HTTPGetDevInfo.c
   HTTPGet__u8SetVOL24VDC   0x009224    program     static D:\git\70M_Ku_Up\App\WebUI\HTTPGetDevInfo.c
HTTPHeaderParseAuthorization   0x0051d0    program     static D:\git\70M_Ku_Up\Microchip\TCPIP Stack\HTTP2.c
HTTPHeaderParseContentLength   0x0052fc    program     static D:\git\70M_Ku_Up\Microchip\TCPIP Stack\HTTP2.c
    HTTPHeaderParseLookup   0x0051b4    program     static D:\git\70M_Ku_Up\Microchip\TCPIP Stack\HTTP2.c
              HTTPIncFile   0x0059c2    program     extern D:\git\70M_Ku_Up\Microchip\TCPIP Stack\HTTP2.c
                 HTTPInit   0x00459e    program     extern D:\git\70M_Ku_Up\Microchip\TCPIP Stack\HTTP2.c
             HTTPLoadConn   0x004682    program     static D:\git\70M_Ku_Up\Microchip\TCPIP Stack\HTTP2.c
           HTTPMPFSUpload   0x005792    program     static D:\git\70M_Ku_Up\Microchip\TCPIP Stack\HTTP2.c
            HTTPNeedsAuth   0x011df0    program     extern D:\git\70M_Ku_Up\App\WebUI\HTTPApp.c
           HTTPPostConfig   0x011f94    program     static D:\git\70M_Ku_Up\App\WebUI\HTTPApp.c
              HTTPPostlut   0x011efc    program     static D:\git\70M_Ku_Up\App\WebUI\HTTPApp.c
                HTTPPrint   0x003e0a    program     extern D:\git\70M_Ku_Up\Microchip\Include\TCPIP Stack\HTTPPrint.h
              HTTPPrintIP   0x00afec    program     extern D:\git\70M_Ku_Up\App\WebUI\HTTPPrint.c
               HTTPPrint_   0x00458c    program     extern D:\git\70M_Ku_Up\Microchip\Include\TCPIP Stack\HTTPPrint.h
        HTTPPrint_18Vctrl   0x00b5b2    program     extern D:\git\70M_Ku_Up\App\WebUI\HTTPPrint.c
        HTTPPrint_24Vctrl   0x00b5a4    program     extern D:\git\70M_Ku_Up\App\WebUI\HTTPPrint.c
           HTTPPrint_ALCa   0x00b4f2    program     extern D:\git\70M_Ku_Up\App\WebUI\HTTPPrint.c
   HTTPPrint_ALCaSelected   0x00b5e6    program     extern D:\git\70M_Ku_Up\App\WebUI\HTTPPrint.c
           HTTPPrint_ALCb   0x00b578    program     extern D:\git\70M_Ku_Up\App\WebUI\HTTPPrint.c
   HTTPPrint_ALCbSelected   0x00b616    program     extern D:\git\70M_Ku_Up\App\WebUI\HTTPPrint.c
     HTTPPrint_BUCCurrent   0x00b6e0    program     extern D:\git\70M_Ku_Up\App\WebUI\HTTPPrint.c
        HTTPPrint_BUCIAlm   0x00b89c    program     extern D:\git\70M_Ku_Up\App\WebUI\HTTPPrint.c
         HTTPPrint_BUCREF   0x00b6a6    program     extern D:\git\70M_Ku_Up\App\WebUI\HTTPPrint.c
 HTTPPrint_BUCREFSelected   0x00b68e    program     extern D:\git\70M_Ku_Up\App\WebUI\HTTPPrint.c
   HTTPPrint_ClearBUCIAlm   0x00b8d8    program     extern D:\git\70M_Ku_Up\App\WebUI\HTTPPrint.c
   HTTPPrint_ClearLNBIAlm   0x00b8de    program     extern D:\git\70M_Ku_Up\App\WebUI\HTTPPrint.c
  HTTPPrint_DC18VSelected   0x00b646    program     extern D:\git\70M_Ku_Up\App\WebUI\HTTPPrint.c
  HTTPPrint_DC24VSelected   0x00b65e    program     extern D:\git\70M_Ku_Up\App\WebUI\HTTPPrint.c
    HTTPPrint_DeviceModel   0x00afac    program     extern D:\git\70M_Ku_Up\App\WebUI\HTTPPrint.c
   HTTPPrint_DeviceSerial   0x00afb8    program     extern D:\git\70M_Ku_Up\App\WebUI\HTTPPrint.c
    HTTPPrint_Devicefwver   0x00b0ac    program     extern D:\git\70M_Ku_Up\App\WebUI\HTTPPrint.c
         HTTPPrint_EXTREF   0x00b6c2    program     extern D:\git\70M_Ku_Up\App\WebUI\HTTPPrint.c
     HTTPPrint_LNBCurrent   0x00b70a    program     extern D:\git\70M_Ku_Up\App\WebUI\HTTPPrint.c
        HTTPPrint_LNBIAlm   0x00b8ba    program     extern D:\git\70M_Ku_Up\App\WebUI\HTTPPrint.c
         HTTPPrint_LNBREF   0x00b6b4    program     extern D:\git\70M_Ku_Up\App\WebUI\HTTPPrint.c
 HTTPPrint_LNBREFSelected   0x00b676    program     extern D:\git\70M_Ku_Up\App\WebUI\HTTPPrint.c
            HTTPPrint_MIP   0x00b048    program     extern D:\git\70M_Ku_Up\App\WebUI\HTTPPrint.c
          HTTPPrint_Mutea   0x00b500    program     extern D:\git\70M_Ku_Up\App\WebUI\HTTPPrint.c
  HTTPPrint_MuteaSelected   0x00b5fe    program     extern D:\git\70M_Ku_Up\App\WebUI\HTTPPrint.c
          HTTPPrint_Muteb   0x00b586    program     extern D:\git\70M_Ku_Up\App\WebUI\HTTPPrint.c
  HTTPPrint_MutebSelected   0x00b62e    program     extern D:\git\70M_Ku_Up\App\WebUI\HTTPPrint.c
HTTPPrint_config_dhcpchecked   0x00b5c0    program     extern D:\git\70M_Ku_Up\App\WebUI\HTTPPrint.c
      HTTPPrint_config_gw   0x00b098    program     extern D:\git\70M_Ku_Up\App\WebUI\HTTPPrint.c
      HTTPPrint_config_ip   0x00b07c    program     extern D:\git\70M_Ku_Up\App\WebUI\HTTPPrint.c
     HTTPPrint_config_mac   0x00b9e0    program     extern D:\git\70M_Ku_Up\App\WebUI\HTTPPrint.c
  HTTPPrint_config_subnet   0x00b084    program     extern D:\git\70M_Ku_Up\App\WebUI\HTTPPrint.c
HTTPPrint_converteraalarm   0x00b870    program     extern D:\git\70M_Ku_Up\App\WebUI\HTTPPrint.c
HTTPPrint_converteraatten   0x00b420    program     extern D:\git\70M_Ku_Up\App\WebUI\HTTPPrint.c
   HTTPPrint_converteralo   0x00b492    program     extern D:\git\70M_Ku_Up\App\WebUI\HTTPPrint.c
HTTPPrint_converterarffreq   0x00b3b0    program     extern D:\git\70M_Ku_Up\App\WebUI\HTTPPrint.c
HTTPPrint_converterbalarm   0x00b886    program     extern D:\git\70M_Ku_Up\App\WebUI\HTTPPrint.c
HTTPPrint_converterbatten   0x00b458    program     extern D:\git\70M_Ku_Up\App\WebUI\HTTPPrint.c
   HTTPPrint_converterblo   0x00b51e    program     extern D:\git\70M_Ku_Up\App\WebUI\HTTPPrint.c
HTTPPrint_converterbrffreq   0x00b3e8    program     extern D:\git\70M_Ku_Up\App\WebUI\HTTPPrint.c
    HTTPPrint_dhcp_status   0x00afc4    program     extern D:\git\70M_Ku_Up\App\WebUI\HTTPPrint.c
            HTTPPrint_led   0x00b8e4    program     extern D:\git\70M_Ku_Up\App\WebUI\HTTPPrint.c
            HTTPPrint_maf   0x00b9ac    program     extern D:\git\70M_Ku_Up\App\WebUI\HTTPPrint.c
            HTTPPrint_mas   0x00b9c6    program     extern D:\git\70M_Ku_Up\App\WebUI\HTTPPrint.c
            HTTPPrint_ned   0x00b948    program     extern D:\git\70M_Ku_Up\App\WebUI\HTTPPrint.c
   HTTPPrint_outputpowera   0x00b4b2    program     extern D:\git\70M_Ku_Up\App\WebUI\HTTPPrint.c
   HTTPPrint_outputpowerb   0x00b53c    program     extern D:\git\70M_Ku_Up\App\WebUI\HTTPPrint.c
      HTTPPrint_rdi2cdata   0x00b734    program     extern D:\git\70M_Ku_Up\App\WebUI\HTTPPrint.c
      HTTPPrint_read_comm   0x00ba3c    program     extern D:\git\70M_Ku_Up\App\WebUI\HTTPPrint.c
        HTTPPrint_setpass   0x00b7d4    program     extern D:\git\70M_Ku_Up\App\WebUI\HTTPPrint.c
   HTTPPrint_setpasscolor   0x00b794    program     extern D:\git\70M_Ku_Up\App\WebUI\HTTPPrint.c
      HTTPPrint_setpowera   0x00b4d2    program     extern D:\git\70M_Ku_Up\App\WebUI\HTTPPrint.c
      HTTPPrint_setpowerb   0x00b55a    program     extern D:\git\70M_Ku_Up\App\WebUI\HTTPPrint.c
      HTTPPrint_static_ip   0x00b05c    program     extern D:\git\70M_Ku_Up\App\WebUI\HTTPPrint.c
         HTTPPrint_swmode   0x00b490    program     extern D:\git\70M_Ku_Up\App\WebUI\HTTPPrint.c
      HTTPPrint_wri2cdata   0x00b764    program     extern D:\git\70M_Ku_Up\App\WebUI\HTTPPrint.c
     HTTPPrint_write_comm   0x00ba40    program     extern D:\git\70M_Ku_Up\App\WebUI\HTTPPrint.c
              HTTPProcess   0x0046ca    program     static D:\git\70M_Ku_Up\Microchip\TCPIP Stack\HTTP2.c
         HTTPReadPostName   0x005566    program     extern D:\git\70M_Ku_Up\Microchip\TCPIP Stack\HTTP2.c
        HTTPReadPostValue   0x005596    program     extern D:\git\70M_Ku_Up\Microchip\TCPIP Stack\HTTP2.c
               HTTPReadTo   0x005606    program     static D:\git\70M_Ku_Up\Microchip\TCPIP Stack\HTTP2.c
       HTTPRequestHeaders   0x015a91    program     static D:\git\70M_Ku_Up\Microchip\TCPIP Stack\HTTP2.c
      HTTPResponseHeaders   0x015a67    program     static D:\git\70M_Ku_Up\Microchip\TCPIP Stack\HTTP2.c
             HTTPSendFile   0x00503c    program     static D:\git\70M_Ku_Up\Microchip\TCPIP Stack\HTTP2.c
               HTTPServer   0x004600    program     extern D:\git\70M_Ku_Up\Microchip\TCPIP Stack\HTTP2.c
            HTTPURLDecode   0x005384    program     extern D:\git\70M_Ku_Up\Microchip\TCPIP Stack\HTTP2.c
                HTTP_CRLF   0x015a1c    program     static D:\git\70M_Ku_Up\Microchip\TCPIP Stack\HTTP2.c
   HTTP_vClearWebPassword   0x013fc0    program     static D:\git\70M_Ku_Up\Main\Main.c
             HandleTCPSeg   0x001f96    program     static D:\git\70M_Ku_Up\Microchip\TCPIP Stack\TCP.c
                  Hex2Int   0x00c5ca    program     extern D:\git\70M_Ku_Up\SysLib\util.c
                  HighISR   0x015216    program     extern D:\git\70M_Ku_Up\Drivers\MCU-Internal\ISR.c
               HighVector   0x000008    program     extern D:\git\70M_Ku_Up\Drivers\MCU-Internal\ISR.c
                 I2C_Read   0x01452c    program     extern D:\git\70M_Ku_Up\Drivers\MCU-Internal\i2c_c1.c
                 I2C_Send   0x014500    program     extern D:\git\70M_Ku_Up\Drivers\MCU-Internal\i2c_c1.c
              ICMPProcess   0x015476    program     extern D:\git\70M_Ku_Up\Microchip\TCPIP Stack\ICMP.c
                  INT3216   0x011466    program     extern C:\Program Files\mcc18\src\traditional\math\castFP16.asm
                  INT3232   0x0114c4    program     extern C:\Program Files\mcc18\src\traditional\math\castFP32.asm
              IPGetHeader   0x0141d2    program     extern D:\git\70M_Ku_Up\Microchip\TCPIP Stack\IP.c
              IPPutHeader   0x01430e    program     extern D:\git\70M_Ku_Up\Microchip\TCPIP Stack\IP.c
            IPSetRxBuffer   0x014414    program     extern D:\git\70M_Ku_Up\Microchip\TCPIP Stack\IP.c
            InitAppConfig   0x0138fc    program     extern D:\git\70M_Ku_Up\Bootstrap\Initialization.c
                 InitData   0x0137bc    program     extern D:\git\70M_Ku_Up\Bootstrap\Initialization.c
            InitalizeMenu   0x006288    program     extern D:\git\70M_Ku_Up\Drivers\External-Peripherals\oled_c2.c
              Initial_LCD   0x011916    program     extern D:\git\70M_Ku_Up\Drivers\External-Peripherals\oled_c1.c
          InitializeBoard   0x0138b4    program     extern D:\git\70M_Ku_Up\Bootstrap\Initialization.c
                  Int2Hex   0x00c60c    program     extern D:\git\70M_Ku_Up\SysLib\util.c
            KeyProcessing   0x006a6a    program     extern D:\git\70M_Ku_Up\Drivers\External-Peripherals\oled_c2.c
LCDSub_vLeftMoveCursorAttn   0x006736    program     extern D:\git\70M_Ku_Up\Drivers\External-Peripherals\oled_c2.c
LCDSub_vLeftMoveCursorFreq   0x00671c    program     extern D:\git\70M_Ku_Up\Drivers\External-Peripherals\oled_c2.c
 LCDSub_vLeftMoveCursorIP   0x00676a    program     extern D:\git\70M_Ku_Up\Drivers\External-Peripherals\oled_c2.c
LCDSub_vLeftMoveCursorPower   0x006750    program     extern D:\git\70M_Ku_Up\Drivers\External-Peripherals\oled_c2.c
LCDSub_vRightMoveCursorAttn   0x00685e    program     extern D:\git\70M_Ku_Up\Drivers\External-Peripherals\oled_c2.c
LCDSub_vRightMoveCursorFreq   0x006842    program     extern D:\git\70M_Ku_Up\Drivers\External-Peripherals\oled_c2.c
LCDSub_vRightMoveCursorIP   0x006894    program     extern D:\git\70M_Ku_Up\Drivers\External-Peripherals\oled_c2.c
LCDSub_vRightMoveCursorPower   0x006878    program     extern D:\git\70M_Ku_Up\Drivers\External-Peripherals\oled_c2.c
           LCDWriteString   0x011852    program     extern D:\git\70M_Ku_Up\Drivers\External-Peripherals\oled_c1.c
LCD__u8CancelKeyExitEditMode   0x006a46    program     static D:\git\70M_Ku_Up\Drivers\External-Peripherals\oled_c2.c
  LCD__u8CancelKeyProcess   0x006a5a    program     static D:\git\70M_Ku_Up\Drivers\External-Peripherals\oled_c2.c
LCD__u8CancelKeyToParentMenu   0x006a56    program     static D:\git\70M_Ku_Up\Drivers\External-Peripherals\oled_c2.c
       LCD__u8DownKeyEdit   0x00660e    program     static D:\git\70M_Ku_Up\Drivers\External-Peripherals\oled_c2.c
    LCD__u8DownKeyProcess   0x00670e    program     static D:\git\70M_Ku_Up\Drivers\External-Peripherals\oled_c2.c
LCD__u8DownkeyToChildMenu   0x00670a    program     static D:\git\70M_Ku_Up\Drivers\External-Peripherals\oled_c2.c
   LCD__u8EnterKeyProcess   0x006a26    program     static D:\git\70M_Ku_Up\Drivers\External-Peripherals\oled_c2.c
  LCD__u8EnterKeySetValue   0x00696c    program     static D:\git\70M_Ku_Up\Drivers\External-Peripherals\oled_c2.c
LCD__u8EnterKeyToChildMenu   0x006a04    program     static D:\git\70M_Ku_Up\Drivers\External-Peripherals\oled_c2.c
LCD__u8EnterKeyToEditMode   0x006a08    program     static D:\git\70M_Ku_Up\Drivers\External-Peripherals\oled_c2.c
          LCD__u8GetOnOff   0x0063b6    program     extern D:\git\70M_Ku_Up\Drivers\External-Peripherals\oled_c2.c
 LCD__u8LeftKeyMoveCursor   0x00678a    program     static D:\git\70M_Ku_Up\Drivers\External-Peripherals\oled_c2.c
    LCD__u8LeftKeyProcess   0x006834    program     static D:\git\70M_Ku_Up\Drivers\External-Peripherals\oled_c2.c
 LCD__u8LeftKeyToLeftMenu   0x00682a    program     static D:\git\70M_Ku_Up\Drivers\External-Peripherals\oled_c2.c
LCD__u8RightKeyMoveCursor   0x0068b4    program     static D:\git\70M_Ku_Up\Drivers\External-Peripherals\oled_c2.c
   LCD__u8RightKeyProcess   0x00695e    program     static D:\git\70M_Ku_Up\Drivers\External-Peripherals\oled_c2.c
LCD__u8RightKeyToRightMenu   0x006954    program     static D:\git\70M_Ku_Up\Drivers\External-Peripherals\oled_c2.c
       LCD__u8ToChildMenu   0x0064ea    program     static D:\git\70M_Ku_Up\Drivers\External-Peripherals\oled_c2.c
      LCD__u8ToParentMenu   0x0064e0    program     static D:\git\70M_Ku_Up\Drivers\External-Peripherals\oled_c2.c
      LCD__u8UpKeyProcess   0x006600    program     static D:\git\70M_Ku_Up\Drivers\External-Peripherals\oled_c2.c
    LCD__u8UpdateToModule   0x0063ca    program     extern D:\git\70M_Ku_Up\Drivers\External-Peripherals\oled_c2.c
         LCD__u8UpkeyEdit   0x0064f4    program     extern D:\git\70M_Ku_Up\Drivers\External-Peripherals\oled_c2.c
 LCD__u8UpkeyToParentMenu   0x0065fc    program     static D:\git\70M_Ku_Up\Drivers\External-Peripherals\oled_c2.c
LCD_u8UpdateDisplayContent   0x006438    program     extern D:\git\70M_Ku_Up\Drivers\External-Peripherals\oled_c2.c
                   LowISR   0x01512c    program     extern D:\git\70M_Ku_Up\Drivers\MCU-Internal\ISR.c
                LowVector   0x000018    program     extern D:\git\70M_Ku_Up\Drivers\MCU-Internal\ISR.c
        MACCalcRxChecksum   0x00f70e    program     extern D:\git\70M_Ku_Up\Microchip\TCPIP Stack\ETH97J60.c
             MACDiscardRx   0x00f36c    program     extern D:\git\70M_Ku_Up\Microchip\TCPIP Stack\ETH97J60.c
                 MACFlush   0x00f6a2    program     extern D:\git\70M_Ku_Up\Microchip\TCPIP Stack\ETH97J60.c
                   MACGet   0x00fa24    program     extern D:\git\70M_Ku_Up\Microchip\TCPIP Stack\ETH97J60.c
              MACGetArray   0x00fa28    program     extern D:\git\70M_Ku_Up\Microchip\TCPIP Stack\ETH97J60.c
         MACGetFreeRxSize   0x00f3cc    program     extern D:\git\70M_Ku_Up\Microchip\TCPIP Stack\ETH97J60.c
             MACGetHeader   0x00f494    program     extern D:\git\70M_Ku_Up\Microchip\TCPIP Stack\ETH97J60.c
                  MACInit   0x00f21a    program     extern D:\git\70M_Ku_Up\Microchip\TCPIP Stack\ETH97J60.c
              MACIsLinked   0x00f330    program     extern D:\git\70M_Ku_Up\Microchip\TCPIP Stack\ETH97J60.c
         MACIsMemCopyDone   0x00fa18    program     extern D:\git\70M_Ku_Up\Microchip\TCPIP Stack\ETH97J60.c
             MACIsTxReady   0x00f344    program     extern D:\git\70M_Ku_Up\Microchip\TCPIP Stack\ETH97J60.c
          MACMemCopyAsync   0x00f8ca    program     extern D:\git\70M_Ku_Up\Microchip\TCPIP Stack\ETH97J60.c
             MACPowerDown   0x00fc08    program     extern D:\git\70M_Ku_Up\Microchip\TCPIP Stack\ETH97J60.c
               MACPowerUp   0x00fc1a    program     extern D:\git\70M_Ku_Up\Microchip\TCPIP Stack\ETH97J60.c
                   MACPut   0x00fa82    program     extern D:\git\70M_Ku_Up\Microchip\TCPIP Stack\ETH97J60.c
              MACPutArray   0x00faa8    program     extern D:\git\70M_Ku_Up\Microchip\TCPIP Stack\ETH97J60.c
             MACPutHeader   0x00f63e    program     extern D:\git\70M_Ku_Up\Microchip\TCPIP Stack\ETH97J60.c
           MACPutROMArray   0x00faf8    program     extern D:\git\70M_Ku_Up\Microchip\TCPIP Stack\ETH97J60.c
            MACSetReadPtr   0x00f6f6    program     extern D:\git\70M_Ku_Up\Microchip\TCPIP Stack\ETH97J60.c
        MACSetReadPtrInRx   0x00f6ca    program     extern D:\git\70M_Ku_Up\Microchip\TCPIP Stack\ETH97J60.c
           MACSetWritePtr   0x00f6e2    program     extern D:\git\70M_Ku_Up\Microchip\TCPIP Stack\ETH97J60.c
                MPFSClose   0x00a3e0    program     extern D:\git\70M_Ku_Up\Microchip\TCPIP Stack\MPFS2.c
               MPFSFormat   0x00a68c    program     extern D:\git\70M_Ku_Up\Microchip\TCPIP Stack\MPFS2.c
                  MPFSGet   0x00a3f8    program     extern D:\git\70M_Ku_Up\Microchip\TCPIP Stack\MPFS2.c
             MPFSGetArray   0x00a49e    program     extern D:\git\70M_Ku_Up\Microchip\TCPIP Stack\MPFS2.c
          MPFSGetBytesRem   0x00a8fe    program     extern D:\git\70M_Ku_Up\Microchip\TCPIP Stack\MPFS2.c
           MPFSGetEndAddr   0x00a964    program     extern D:\git\70M_Ku_Up\Microchip\TCPIP Stack\MPFS2.c
          MPFSGetFilename   0x00a9b2    program     extern D:\git\70M_Ku_Up\Microchip\TCPIP Stack\MPFS2.c
             MPFSGetFlags   0x00a8a0    program     extern D:\git\70M_Ku_Up\Microchip\TCPIP Stack\MPFS2.c
                MPFSGetID   0x00aa6a    program     extern D:\git\70M_Ku_Up\Microchip\TCPIP Stack\MPFS2.c
              MPFSGetLong   0x00a52e    program     extern D:\git\70M_Ku_Up\Microchip\TCPIP Stack\MPFS2.c
         MPFSGetMicrotime   0x00a86e    program     extern D:\git\70M_Ku_Up\Microchip\TCPIP Stack\MPFS2.c
          MPFSGetPosition   0x00aa38    program     extern D:\git\70M_Ku_Up\Microchip\TCPIP Stack\MPFS2.c
              MPFSGetSize   0x00a8cc    program     extern D:\git\70M_Ku_Up\Microchip\TCPIP Stack\MPFS2.c
         MPFSGetStartAddr   0x00a928    program     extern D:\git\70M_Ku_Up\Microchip\TCPIP Stack\MPFS2.c
         MPFSGetTimestamp   0x00a83c    program     extern D:\git\70M_Ku_Up\Microchip\TCPIP Stack\MPFS2.c
                 MPFSInit   0x00a09a    program     extern D:\git\70M_Ku_Up\Microchip\TCPIP Stack\MPFS2.c
                 MPFSOpen   0x00a0d0    program     extern D:\git\70M_Ku_Up\Microchip\TCPIP Stack\MPFS2.c
               MPFSOpenID   0x00a362    program     extern D:\git\70M_Ku_Up\Microchip\TCPIP Stack\MPFS2.c
              MPFSOpenROM   0x00a21e    program     extern D:\git\70M_Ku_Up\Microchip\TCPIP Stack\MPFS2.c
             MPFSPutArray   0x00a70e    program     extern D:\git\70M_Ku_Up\Microchip\TCPIP Stack\MPFS2.c
               MPFSPutEnd   0x00a794    program     extern D:\git\70M_Ku_Up\Microchip\TCPIP Stack\MPFS2.c
                 MPFSSeek   0x00a56e    program     extern D:\git\70M_Ku_Up\Microchip\TCPIP Stack\MPFS2.c
            Main_vLEDInit   0x0136ac    program     extern D:\git\70M_Ku_Up\Devices\MainControl_c1.c
              Main_vLEDLO   0x013670    program     extern D:\git\70M_Ku_Up\Devices\MainControl_c1.c
              Main_vLEDRX   0x013698    program     extern D:\git\70M_Ku_Up\Devices\MainControl_c1.c
              Main_vLEDTX   0x013684    program     extern D:\git\70M_Ku_Up\Devices\MainControl_c1.c
    Main_vPrintDeviceInfo   0x0134d6    program     extern D:\git\70M_Ku_Up\Devices\MainControl_c1.c
 Main_vPrintDownConverter   0x01342c    program     extern D:\git\70M_Ku_Up\Devices\MainControl_c1.c
            Main_vPrintIP   0x0135c6    program     extern D:\git\70M_Ku_Up\Devices\MainControl_c1.c
       Main_vPrintModelNo   0x0135e0    program     extern D:\git\70M_Ku_Up\Devices\MainControl_c1.c
      Main_vPrintSerialNo   0x0135f0    program     extern D:\git\70M_Ku_Up\Devices\MainControl_c1.c
   Main_vPrintUpConverter   0x0133c6    program     extern D:\git\70M_Ku_Up\Devices\MainControl_c1.c
       Main_vPrintVolCtrl   0x013492    program     extern D:\git\70M_Ku_Up\Devices\MainControl_c1.c
              Main_vSetIP   0x01360a    program     extern D:\git\70M_Ku_Up\Devices\MainControl_c1.c
    OLED_vEnableInterrupt   0x011736    program     extern D:\git\70M_Ku_Up\Drivers\External-Peripherals\oled_c1.c
              OLED_vSetIO   0x01171e    program     extern D:\git\70M_Ku_Up\Drivers\External-Peripherals\oled_c1.c
           OLED_vSetKepad   0x01170c    program     extern D:\git\70M_Ku_Up\Drivers\External-Peripherals\oled_c1.c
                  OpenADC   0x015b0a    program     extern C:\MCC18\src\pmc_common\ADC\adcopen.c
            PrintBlinkLCD   0x011c0c    program     extern D:\git\70M_Ku_Up\Drivers\External-Peripherals\oled_c1.c
       PrintBlinkMenuText   0x011ac4    program     extern D:\git\70M_Ku_Up\Drivers\External-Peripherals\oled_c1.c
          PrintCompanyLCD   0x011936    program     extern D:\git\70M_Ku_Up\Drivers\External-Peripherals\oled_c1.c
        PrintEditPosition   0x011b9a    program     extern D:\git\70M_Ku_Up\Drivers\External-Peripherals\oled_c1.c
        PrintLCDWholePage   0x011982    program     extern D:\git\70M_Ku_Up\Drivers\External-Peripherals\oled_c1.c
            PrintNewValue   0x011b70    program     extern D:\git\70M_Ku_Up\Drivers\External-Peripherals\oled_c1.c
     ROMStringToIPAddress   0x00d07a    program     extern D:\git\70M_Ku_Up\Microchip\TCPIP Stack\Helpers.c
                 ReadData   0x0117ea    program     extern D:\git\70M_Ku_Up\Drivers\External-Peripherals\oled_c1.c
               ReadPHYReg   0x00fb5a    program     extern D:\git\70M_Ku_Up\Microchip\TCPIP Stack\ETH97J60.c
                ReadUSART   0x01570c    program     extern D:\git\70M_Ku_Up\Microchip\TCPIP Stack\UART.c
               ReadUSART2   0x015736    program     extern D:\git\70M_Ku_Up\Microchip\TCPIP Stack\UART.c
            ReadWriteSPI2   0x01592a    program     extern D:\git\70M_Ku_Up\Drivers\MCU-Internal\devspi.c
                 Read_ADC   0x014b4a    program     extern D:\git\70M_Ku_Up\Drivers\MCU-Internal\internalADC.c
                  SPIInit   0x015912    program     extern D:\git\70M_Ku_Up\Drivers\MCU-Internal\devspi.c
          SYS__u8InitData   0x014016    program     static D:\git\70M_Ku_Up\Main\Main.c
SYS__u8UpdateDownConverter   0x007178    program     static D:\git\70M_Ku_Up\Drivers\External-Peripherals\oled_c2.c
          SYS__u8UpdateLO   0x007dce    program     static D:\git\70M_Ku_Up\Drivers\External-Peripherals\oled_c2.c
 SYS__u8UpdateUpConverter   0x006aa0    program     static D:\git\70M_Ku_Up\Drivers\External-Peripherals\oled_c2.c
         SYS__u8UpdateVOL   0x0077be    program     static D:\git\70M_Ku_Up\Drivers\External-Peripherals\oled_c2.c
       SYS__vLcdBlinkTask   0x013ef4    program     static D:\git\70M_Ku_Up\Main\Main.c
      SYS__vLcdKeyPadTask   0x013f5a    program     static D:\git\70M_Ku_Up\Main\Main.c
         SYS__vStatusTask   0x013eaa    program     static D:\git\70M_Ku_Up\Main\Main.c
            SaveAppConfig   0x00c7a4    program     extern D:\git\70M_Ku_Up\SysLib\util.c
              SaveSetting   0x00c7c8    program     extern D:\git\70M_Ku_Up\SysLib\util.c
                  SendTCP   0x001698    program     static D:\git\70M_Ku_Up\Microchip\TCPIP Stack\TCP.c
     SerializedMACAddress   0x015d10    program     static D:\git\70M_Ku_Up\Bootstrap\Initialization.c
          SetDefaultValue   0x0139b4    program     extern D:\git\70M_Ku_Up\Bootstrap\Initialization.c
                   SetI2C   0x01468e    program     extern D:\git\70M_Ku_Up\Drivers\MCU-Internal\i2c_c1.c
        StackApplications   0x014f26    program     extern D:\git\70M_Ku_Up\Microchip\TCPIP Stack\StackTsk.c
                StackInit   0x014d6a    program     extern D:\git\70M_Ku_Up\Microchip\TCPIP Stack\StackTsk.c
                StackTask   0x014d9a    program     extern D:\git\70M_Ku_Up\Microchip\TCPIP Stack\StackTsk.c
        StringToIPAddress   0x00cfaa    program     extern D:\git\70M_Ku_Up\Microchip\TCPIP Stack\Helpers.c
            SwapARPPacket   0x012e88    program     extern D:\git\70M_Ku_Up\Microchip\TCPIP Stack\ARP.c
             SwapIPHeader   0x014442    program     static D:\git\70M_Ku_Up\Microchip\TCPIP Stack\IP.c
            SwapTCPHeader   0x001e9c    program     static D:\git\70M_Ku_Up\Microchip\TCPIP Stack\TCP.c
                  SyncTCB   0x000126    program     static D:\git\70M_Ku_Up\Microchip\TCPIP Stack\TCP.c
              SyncTCBStub   0x0000bc    program     static D:\git\70M_Ku_Up\Microchip\TCPIP Stack\TCP.c
                  TAGTB32   0x011532    program     extern C:\Program Files\mcc18\src\traditional\math\gtFP.asm
                  TALTB32   0x011544    program     extern C:\Program Files\mcc18\src\traditional\math\ltFP.asm
        TCPAdjustFIFOSize   0x002a2c    program     extern D:\git\70M_Ku_Up\Microchip\TCPIP Stack\TCP.c
                 TCPClose   0x000530    program     extern D:\git\70M_Ku_Up\Microchip\TCPIP Stack\TCP.c
               TCPDiscard   0x0008d6    program     extern D:\git\70M_Ku_Up\Microchip\TCPIP Stack\TCP.c
            TCPDisconnect   0x0004b4    program     extern D:\git\70M_Ku_Up\Microchip\TCPIP Stack\TCP.c
           TCPFindArrayEx   0x000c66    program     extern D:\git\70M_Ku_Up\Microchip\TCPIP Stack\TCP.c
                TCPFindEx   0x001134    program     extern D:\git\70M_Ku_Up\Microchip\TCPIP Stack\TCP.c
        TCPFindROMArrayEx   0x000ee4    program     extern D:\git\70M_Ku_Up\Microchip\TCPIP Stack\TCP.c
                 TCPFlush   0x00057e    program     extern D:\git\70M_Ku_Up\Microchip\TCPIP Stack\TCP.c
                   TCPGet   0x00093e    program     extern D:\git\70M_Ku_Up\Microchip\TCPIP Stack\TCP.c
              TCPGetArray   0x0009aa    program     extern D:\git\70M_Ku_Up\Microchip\TCPIP Stack\TCP.c
         TCPGetRemoteInfo   0x000544    program     extern D:\git\70M_Ku_Up\Microchip\TCPIP Stack\TCP.c
         TCPGetRxFIFOFree   0x000ae2    program     extern D:\git\70M_Ku_Up\Microchip\TCPIP Stack\TCP.c
         TCPGetTxFIFOFull   0x0008ae    program     extern D:\git\70M_Ku_Up\Microchip\TCPIP Stack\TCP.c
                  TCPInit   0x0001a4    program     extern D:\git\70M_Ku_Up\Microchip\TCPIP Stack\TCP.c
           TCPIsConnected   0x00049e    program     extern D:\git\70M_Ku_Up\Microchip\TCPIP Stack\TCP.c
            TCPIsGetReady   0x0008f8    program     extern D:\git\70M_Ku_Up\Microchip\TCPIP Stack\TCP.c
            TCPIsPutReady   0x00059a    program     extern D:\git\70M_Ku_Up\Microchip\TCPIP Stack\TCP.c
                  TCPOpen   0x000354    program     extern D:\git\70M_Ku_Up\Microchip\TCPIP Stack\TCP.c
                  TCPPeek   0x000c3a    program     extern D:\git\70M_Ku_Up\Microchip\TCPIP Stack\TCP.c
             TCPPeekArray   0x000b0a    program     extern D:\git\70M_Ku_Up\Microchip\TCPIP Stack\TCP.c
               TCPProcess   0x00153e    program     extern D:\git\70M_Ku_Up\Microchip\TCPIP Stack\TCP.c
                   TCPPut   0x000600    program     extern D:\git\70M_Ku_Up\Microchip\TCPIP Stack\TCP.c
              TCPPutArray   0x00068e    program     extern D:\git\70M_Ku_Up\Microchip\TCPIP Stack\TCP.c
           TCPPutROMArray   0x000732    program     extern D:\git\70M_Ku_Up\Microchip\TCPIP Stack\TCP.c
          TCPPutROMString   0x000844    program     extern D:\git\70M_Ku_Up\Microchip\TCPIP Stack\TCP.c
             TCPPutString   0x0007e4    program     extern D:\git\70M_Ku_Up\Microchip\TCPIP Stack\TCP.c
               TCPRAMCopy   0x002be6    program     static D:\git\70M_Ku_Up\Microchip\TCPIP Stack\TCP.c
            TCPRAMCopyROM   0x002c74    program     static D:\git\70M_Ku_Up\Microchip\TCPIP Stack\TCP.c
     TCPSocketInitializer   0x015c10    program     extern D:\git\70M_Ku_Up\Port\TCPIPConfig.h
                  TCPTick   0x00116a    program     extern D:\git\70M_Ku_Up\Microchip\TCPIP Stack\TCP.c
              TCPWasReset   0x000488    program     extern D:\git\70M_Ku_Up\Microchip\TCPIP Stack\TCP.c
               TSIGN1616A   0x01138a    program     static C:\Program Files\mcc18\src\traditional\math\fxm1616s.asm
TickConvertToMilliseconds   0x015652    program     extern D:\git\70M_Ku_Up\Microchip\TCPIP Stack\Tick.c
                  TickGet   0x0155f6    program     extern D:\git\70M_Ku_Up\Microchip\TCPIP Stack\Tick.c
            TickGetDiv256   0x01560a    program     extern D:\git\70M_Ku_Up\Microchip\TCPIP Stack\Tick.c
            TickGetDiv64K   0x01562e    program     extern D:\git\70M_Ku_Up\Microchip\TCPIP Stack\Tick.c
                 TickInit   0x0155c0    program     extern D:\git\70M_Ku_Up\Microchip\TCPIP Stack\Tick.c
               TickUpdate   0x015688    program     extern D:\git\70M_Ku_Up\Microchip\TCPIP Stack\Tick.c
                 UART2ISR   0x015c74    program     extern D:\git\70M_Ku_Up\Microchip\TCPIP Stack\UART2TCPBridge.c
          UpCvt_vPrintALC   0x0108ca    program     extern D:\git\70M_Ku_Up\Devices\UpConverter_c1.c
         UpCvt_vPrintAttn   0x0108b0    program     extern D:\git\70M_Ku_Up\Devices\UpConverter_c1.c
         UpCvt_vPrintFreq   0x010830    program     extern D:\git\70M_Ku_Up\Devices\UpConverter_c1.c
           UpCvt_vPrintLo   0x01087e    program     extern D:\git\70M_Ku_Up\Devices\UpConverter_c1.c
         UpCvt_vPrintMute   0x0108e4    program     extern D:\git\70M_Ku_Up\Devices\UpConverter_c1.c
        UpCvt_vPrintPower   0x01084a    program     extern D:\git\70M_Ku_Up\Devices\UpConverter_c1.c
        UpCvt_vPrintStPwr   0x010864    program     extern D:\git\70M_Ku_Up\Devices\UpConverter_c1.c
           UpCvt_vSendI2C   0x010928    program     extern D:\git\70M_Ku_Up\Devices\UpConverter_c1.c
         UpCvt_vSendLoI2C   0x010938    program     extern D:\git\70M_Ku_Up\Devices\UpConverter_c1.c
            UpCvt_vSetALC   0x010e32    program     extern D:\git\70M_Ku_Up\Devices\UpConverter_c1.c
           UpCvt_vSetAttn   0x010c02    program     extern D:\git\70M_Ku_Up\Devices\UpConverter_c1.c
           UpCvt_vSetFreq   0x0109aa    program     extern D:\git\70M_Ku_Up\Devices\UpConverter_c1.c
           UpCvt_vSetMute   0x010e76    program     extern D:\git\70M_Ku_Up\Devices\UpConverter_c1.c
          UpCvt_vSetPower   0x010cf2    program     extern D:\git\70M_Ku_Up\Devices\UpConverter_c1.c
          UpCvt_vSetStPwr   0x010cf4    program     extern D:\git\70M_Ku_Up\Devices\UpConverter_c1.c
             UpdateStatus   0x007ea6    program     extern D:\git\70M_Ku_Up\Drivers\External-Peripherals\oled_c2.c
         Util_u16ByteSwap   0x00be8a    program     extern D:\git\70M_Ku_Up\SysLib\util.c
        Util_u16DWORDSwap   0x00bf16    program     extern D:\git\70M_Ku_Up\SysLib\util.c
      Util_u8Float2String   0x00c262    program     extern D:\git\70M_Ku_Up\SysLib\util.c
      Util_u8String2DWORD   0x00c1ca    program     extern D:\git\70M_Ku_Up\SysLib\util.c
      Util_u8String2Float   0x00c31c    program     extern D:\git\70M_Ku_Up\SysLib\util.c
     Util_u8String2NFloat   0x00c3ee    program     extern D:\git\70M_Ku_Up\SysLib\util.c
      Util_u8String2int16   0x00c0fe    program     extern D:\git\70M_Ku_Up\SysLib\util.c
     VOLCTRL_vClearBUCAlm   0x013d56    program     extern D:\git\70M_Ku_Up\Devices\VOLDC_c1 .c
     VOLCTRL_vClearLNBAlm   0x013d76    program     extern D:\git\70M_Ku_Up\Devices\VOLDC_c1 .c
        VOLCTRL_vPrint18V   0x013b3e    program     extern D:\git\70M_Ku_Up\Devices\VOLDC_c1 .c
        VOLCTRL_vPrint24V   0x013b5a    program     extern D:\git\70M_Ku_Up\Devices\VOLDC_c1 .c
     VOLCTRL_vPrintBUCAlm   0x013c50    program     extern D:\git\70M_Ku_Up\Devices\VOLDC_c1 .c
       VOLCTRL_vPrintBUCI   0x013be8    program     extern D:\git\70M_Ku_Up\Devices\VOLDC_c1 .c
     VOLCTRL_vPrintBUCREF   0x013b92    program     extern D:\git\70M_Ku_Up\Devices\VOLDC_c1 .c
     VOLCTRL_vPrintEXTREF   0x013bae    program     extern D:\git\70M_Ku_Up\Devices\VOLDC_c1 .c
     VOLCTRL_vPrintLNBAlm   0x013c6c    program     extern D:\git\70M_Ku_Up\Devices\VOLDC_c1 .c
       VOLCTRL_vPrintLNBI   0x013c1c    program     extern D:\git\70M_Ku_Up\Devices\VOLDC_c1 .c
     VOLCTRL_vPrintLNBREF   0x013b76    program     extern D:\git\70M_Ku_Up\Devices\VOLDC_c1 .c
         VOLCTRL_vSendI2C   0x013c88    program     extern D:\git\70M_Ku_Up\Devices\VOLDC_c1 .c
          VOLCTRL_vSet18V   0x013c9e    program     extern D:\git\70M_Ku_Up\Devices\VOLDC_c1 .c
          VOLCTRL_vSet24V   0x013ccc    program     extern D:\git\70M_Ku_Up\Devices\VOLDC_c1 .c
       VOLCTRL_vSetBUCREF   0x013d28    program     extern D:\git\70M_Ku_Up\Devices\VOLDC_c1 .c
       VOLCTRL_vSetLNBREF   0x013cfa    program     extern D:\git\70M_Ku_Up\Devices\VOLDC_c1 .c
                WriteData   0x0117b8    program     extern D:\git\70M_Ku_Up\Drivers\External-Peripherals\oled_c1.c
                 WriteIns   0x01178a    program     extern D:\git\70M_Ku_Up\Drivers\External-Peripherals\oled_c1.c
              WritePHYReg   0x00fbb8    program     extern D:\git\70M_Ku_Up\Microchip\TCPIP Stack\ETH97J60.c
              WriteString   0x011822    program     extern D:\git\70M_Ku_Up\Drivers\External-Peripherals\oled_c1.c
               WriteUSART   0x015710    program     extern D:\git\70M_Ku_Up\Microchip\TCPIP Stack\UART.c
              WriteUSART2   0x015764    program     extern D:\git\70M_Ku_Up\Microchip\TCPIP Stack\UART.c
             XEEBeginRead   0x014834    program     extern D:\git\70M_Ku_Up\Microchip\TCPIP Stack\SPIEEPROM.c
            XEEBeginWrite   0x01492c    program     extern D:\git\70M_Ku_Up\Microchip\TCPIP Stack\SPIEEPROM.c
               XEEEndRead   0x014896    program     extern D:\git\70M_Ku_Up\Microchip\TCPIP Stack\SPIEEPROM.c
              XEEEndWrite   0x0149a0    program     extern D:\git\70M_Ku_Up\Microchip\TCPIP Stack\SPIEEPROM.c
                  XEEInit   0x01481e    program     extern D:\git\70M_Ku_Up\Microchip\TCPIP Stack\SPIEEPROM.c
                XEEIsBusy   0x014a52    program     extern D:\git\70M_Ku_Up\Microchip\TCPIP Stack\SPIEEPROM.c
                  XEERead   0x014840    program     extern D:\git\70M_Ku_Up\Microchip\TCPIP Stack\SPIEEPROM.c
             XEEReadArray   0x014898    program     extern D:\git\70M_Ku_Up\Microchip\TCPIP Stack\SPIEEPROM.c
                 XEEWrite   0x014938    program     extern D:\git\70M_Ku_Up\Microchip\TCPIP Stack\SPIEEPROM.c
            XEEWriteArray   0x014966    program     extern D:\git\70M_Ku_Up\Microchip\TCPIP Stack\SPIEEPROM.c
                  _14jEnd   0x015402    program     static C:\Program Files\mcc18\src\traditional\stdclib\atol.asm
              _2jContinue   0x013090    program     static C:\Program Files\mcc18\src\traditional\stdclib\memset.asm
              _2jContinue   0x012f72    program     static C:\Program Files\mcc18\src\traditional\stdclib\memchr.asm
                   _2jEnd   0x01327c    program     static C:\Program Files\mcc18\src\traditional\stdclib\slenpgm.asm
              _3jContinue   0x013382    program     static C:\Program Files\mcc18\src\traditional\stdclib\sncpyp2r.asm
              _3jContinue   0x01305c    program     static C:\Program Files\mcc18\src\traditional\stdclib\mcpyp2r.asm
              _3jContinue   0x012fc0    program     static C:\Program Files\mcc18\src\traditional\stdclib\mcmpp2r.asm
                   _3jEnd   0x012f7c    program     static C:\Program Files\mcc18\src\traditional\stdclib\memchr.asm
                   _3jEnd   0x01309a    program     static C:\Program Files\mcc18\src\traditional\stdclib\memset.asm
              _4jContinue   0x013328    program     static C:\Program Files\mcc18\src\traditional\stdclib\strncpy.asm
              _4jContinue   0x0132cc    program     static C:\Program Files\mcc18\src\traditional\stdclib\strncat.asm
              _4jContinue   0x013008    program     static C:\Program Files\mcc18\src\traditional\stdclib\memcpy.asm
                   _4jEnd   0x01338c    program     static C:\Program Files\mcc18\src\traditional\stdclib\sncpyp2r.asm
                   _4jEnd   0x012fca    program     static C:\Program Files\mcc18\src\traditional\stdclib\mcmpp2r.asm
                   _4jEnd   0x013066    program     static C:\Program Files\mcc18\src\traditional\stdclib\mcpyp2r.asm
                   _5jEnd   0x013332    program     static C:\Program Files\mcc18\src\traditional\stdclib\strncpy.asm
                   _5jEnd   0x0132d6    program     static C:\Program Files\mcc18\src\traditional\stdclib\strncat.asm
                   _5jEnd   0x013012    program     static C:\Program Files\mcc18\src\traditional\stdclib\memcpy.asm
        _D10TCYXCODE_000A   0x015cd4    program     static C:\Program Files\mcc18\src\traditional\delays\d10tcyx.asm
        _D10TCYXCODE_000C   0x015cd6    program     static C:\Program Files\mcc18\src\traditional\delays\d10tcyx.asm
        _D10TCYXCODE_000E   0x015cd8    program     static C:\Program Files\mcc18\src\traditional\delays\d10tcyx.asm
        _D1KTCYXCODE_0010   0x015c64    program     static C:\Program Files\mcc18\src\traditional\delays\d1ktcyx.asm
        _D1KTCYXCODE_0016   0x015c6a    program     static C:\Program Files\mcc18\src\traditional\delays\d1ktcyx.asm
           _LoadFATRecord   0x00a7b0    program     static D:\git\70M_Ku_Up\Microchip\TCPIP Stack\MPFS2.c
                _Validate   0x00aa7c    program     static D:\git\70M_Ku_Up\Microchip\TCPIP Stack\MPFS2.c
              __FpCompare   0x011556    program     extern C:\Program Files\mcc18\src\traditional\math\compFP.asm
                 __FpExit   0x01160c    program     extern C:\Program Files\mcc18\src\traditional\math\packFP.asm
                 __FpPack   0x011638    program     extern C:\Program Files\mcc18\src\traditional\math\packFP.asm
            __FpReturnNaN   0x011600    program     extern C:\Program Files\mcc18\src\traditional\math\packFP.asm
         __FpReturnNegInf   0x011612    program     extern C:\Program Files\mcc18\src\traditional\math\packFP.asm
        __FpReturnNegZero   0x01162a    program     extern C:\Program Files\mcc18\src\traditional\math\packFP.asm
         __FpReturnPosInf   0x011618    program     extern C:\Program Files\mcc18\src\traditional\math\packFP.asm
        __FpReturnPosZero   0x011632    program     extern C:\Program Files\mcc18\src\traditional\math\packFP.asm
        __FpReturnSignInf   0x01160e    program     extern C:\Program Files\mcc18\src\traditional\math\packFP.asm
       __FpReturnSignZero   0x011626    program     extern C:\Program Files\mcc18\src\traditional\math\packFP.asm
              __FpReturnW   0x011690    program     extern C:\Program Files\mcc18\src\traditional\math\packFP.asm
              __FpUnPackA   0x0116b0    program     extern C:\Program Files\mcc18\src\traditional\math\UnpackFP.asm
              __FpUnPackB   0x0116e0    program     extern C:\Program Files\mcc18\src\traditional\math\UnpackFP.asm
           ___do_lbl00002   0x0155ee    program     static                          
           ___do_lbl00003   0x0155f2    program     static                          
           ___do_lbl00004   0x0155d0    program     static                          
           ___do_lbl00004   0x011776    program     static                          
           ___do_lbl00005   0x01177a    program     static                          
           ___do_lbl00006   0x011766    program     static                          
          ___for_lbl00046   0x011a40    program     static                          
          ___for_lbl00047   0x011a44    program     static                          
          ___for_lbl00050   0x0119a4    program     static                          
          ___for_lbl00051   0x011a8a    program     static                          
          ___for_lbl00052   0x011a8e    program     static                          
          ___for_lbl00055   0x011a50    program     static                          
          ___for_lbl00122   0x00d700    program     static                          
          ___for_lbl00123   0x00d706    program     static                          
          ___for_lbl00124   0x00d6e2    program     static                          
          ___for_lbl00125   0x00d71a    program     static                          
          ___for_lbl00126   0x00d71e    program     static                          
          ___for_lbl00127   0x00d706    program     static                          
           ___if_lbl00005   0x00ce8a    program     static                          
           ___if_lbl00006   0x00cea8    program     static                          
           ___if_lbl00007   0x00cf42    program     static                          
           ___if_lbl00008   0x00cf48    program     static                          
           ___if_lbl00020   0x00f4ba    program     static                          
           ___if_lbl00021   0x00f4c6    program     static                          
           ___if_lbl00027   0x00f59a    program     static                          
           ___if_lbl00030   0x00f61a    program     static                          
           ___if_lbl00049   0x011a40    program     static                          
           ___if_lbl00054   0x011a8a    program     static                          
           ___if_lbl00056   0x011ab2    program     static                          
       ___return_lbl00000   0x015b08    program     static                          
       ___return_lbl00000   0x015cc8    program     static                          
       ___return_lbl00000   0x00f322    program     static                          
       ___return_lbl00000   0x000004    program     static                          
       ___return_lbl00000   0x013e8e    program     static                          
       ___return_lbl00000   0x00cf92    program     static                          
       ___return_lbl00000   0x015bea    program     static                          
       ___return_lbl00000   0x015bbe    program     static                          
       ___return_lbl00001   0x0155f4    program     static                          
       ___return_lbl00001   0x014c24    program     static                          
       ___return_lbl00001   0x015c52    program     static                          
       ___return_lbl00002   0x015910    program     static                          
       ___return_lbl00003   0x01177c    program     static                          
       ___return_lbl00004   0x014cfc    program     static                          
       ___return_lbl00007   0x0117ac    program     static                          
       ___return_lbl00008   0x0117de    program     static                          
       ___return_lbl00009   0x011814    program     static                          
       ___return_lbl00019   0x00f622    program     static                          
       ___return_lbl00019   0x00001c    program     static                          
       ___return_lbl00020   0x00000c    program     static                          
       ___return_lbl00045   0x011ab2    program     static                          
       ___return_lbl00079   0x00fa9c    program     static                          
       ___return_lbl00080   0x00faec    program     static                          
       ___return_lbl00083   0x00fb4e    program     static                          
       ___return_lbl00086   0x00fba8    program     static                          
       ___return_lbl00089   0x00fbfa    program     static                          
       ___return_lbl00121   0x00d730    program     static                          
        ___while_lbl00001   0x00cd18    program     static                          
        ___while_lbl00001   0x00f234    program     static                          
        ___while_lbl00002   0x00cf4a    program     static                          
        ___while_lbl00002   0x014c08    program     static                          
        ___while_lbl00002   0x00f23a    program     static                          
        ___while_lbl00003   0x00cd20    program     static                          
        ___while_lbl00003   0x014c10    program     static                          
        ___while_lbl00004   0x00cd24    program     static                          
        ___while_lbl00081   0x00fab8    program     static                          
        ___while_lbl00082   0x00faec    program     static                          
        ___while_lbl00084   0x00fb08    program     static                          
        ___while_lbl00085   0x00fb4e    program     static                          
        ___while_lbl00087   0x00fb7e    program     static                          
        ___while_lbl00088   0x00fb84    program     static                          
        ___while_lbl00090   0x00fbf4    program     static                          
        ___while_lbl00091   0x00fbfa    program     static                          
               __config_0   0x01fff8    program     static D:\git\70M_Ku_Up\Main\Main.c
               __config_1   0x01fffa    program     static D:\git\70M_Ku_Up\Main\Main.c
               __config_2   0x01fffd    program     static D:\git\70M_Ku_Up\Main\Main.c
                   __init   0x015d1e    program     extern C:\Program Files\mcc18\src\traditional\stdclib\__init.c
                   __pa_0   0x00ba44    program     static D:\git\70M_Ku_Up\App\WebUI\HTTPPrint.c
                   __pa_0   0x0136b4    program     static D:\git\70M_Ku_Up\Devices\MainControl_c1.c
                   __pa_0   0x005ad4    program     static D:\git\70M_Ku_Up\Microchip\TCPIP Stack\HTTP2.c
                   __pa_0   0x014f2a    program     static D:\git\70M_Ku_Up\Microchip\TCPIP Stack\StackTsk.c
                   __pa_0   0x002d54    program     static D:\git\70M_Ku_Up\Microchip\TCPIP Stack\TCP.c
                   __pa_0   0x011c66    program     static D:\git\70M_Ku_Up\Drivers\External-Peripherals\oled_c1.c
                   __pa_0   0x014754    program     static D:\git\70M_Ku_Up\Drivers\MCU-Internal\i2c_c1.c
                   __pa_0   0x007ed0    program     static D:\git\70M_Ku_Up\Drivers\External-Peripherals\oled_c2.c
                   __pa_0   0x012a08    program     static D:\git\70M_Ku_Up\Devices\DownConverter_c1.c
                   __pa_0   0x00fc28    program     static D:\git\70M_Ku_Up\Microchip\TCPIP Stack\ETH97J60.c
                   __pa_0   0x010f02    program     static D:\git\70M_Ku_Up\Devices\UpConverter_c1.c
                   __pa_0   0x01578a    program     static D:\git\70M_Ku_Up\Microchip\TCPIP Stack\UART.c
                   __pa_0   0x00aaf4    program     static D:\git\70M_Ku_Up\Microchip\TCPIP Stack\MPFS2.c
                   __pa_0   0x013d96    program     static D:\git\70M_Ku_Up\Devices\VOLDC_c1 .c
                   __pa_0   0x01569c    program     static D:\git\70M_Ku_Up\Microchip\TCPIP Stack\Tick.c
                   __pa_0   0x013a36    program     static D:\git\70M_Ku_Up\Bootstrap\Initialization.c
                   __pa_0   0x014460    program     static D:\git\70M_Ku_Up\Microchip\TCPIP Stack\IP.c
                   __pa_0   0x012eb0    program     static D:\git\70M_Ku_Up\Microchip\TCPIP Stack\ARP.c
                   __pa_0   0x00c89a    program     static D:\git\70M_Ku_Up\SysLib\util.c
                   __pa_0   0x0098e8    program     static D:\git\70M_Ku_Up\App\WebUI\HTTPGetDevInfo.c
                   __pa_0   0x00d7c8    program     static D:\git\70M_Ku_Up\Microchip\TCPIP Stack\Helpers.c
                   __pa_0   0x015266    program     static D:\git\70M_Ku_Up\Drivers\MCU-Internal\ISR.c
                   __pa_0   0x015066    program     static D:\git\70M_Ku_Up\Drivers\External-Peripherals\devadc.c
                   __pa_0   0x0123ac    program     static D:\git\70M_Ku_Up\App\WebUI\HTTPApp.c
                   __pa_0   0x014a90    program     static D:\git\70M_Ku_Up\Microchip\TCPIP Stack\SPIEEPROM.c
                   __pa_0   0x00e340    program     static C:\Program Files\mcc18\src\traditional\stdclib\vfprintf.c
                   __pa_0   0x015598    program     static D:\git\70M_Ku_Up\Microchip\TCPIP Stack\ICMP.c
                   __pa_1   0x012a14    program     static D:\git\70M_Ku_Up\Devices\DownConverter_c1.c
                   __pa_1   0x00d7da    program     static D:\git\70M_Ku_Up\Microchip\TCPIP Stack\Helpers.c
                   __pa_1   0x01579c    program     static D:\git\70M_Ku_Up\Microchip\TCPIP Stack\UART.c
                   __pa_1   0x00aafa    program     static D:\git\70M_Ku_Up\Microchip\TCPIP Stack\MPFS2.c
                   __pa_1   0x0156aa    program     static D:\git\70M_Ku_Up\Microchip\TCPIP Stack\Tick.c
                   __pa_1   0x00e348    program     static C:\Program Files\mcc18\src\traditional\stdclib\vfprintf.c
                   __pa_1   0x0136c0    program     static D:\git\70M_Ku_Up\Devices\MainControl_c1.c
                   __pa_1   0x01475c    program     static D:\git\70M_Ku_Up\Drivers\MCU-Internal\i2c_c1.c
                   __pa_1   0x00c8a4    program     static D:\git\70M_Ku_Up\SysLib\util.c
                   __pa_1   0x012ebe    program     static D:\git\70M_Ku_Up\Microchip\TCPIP Stack\ARP.c
                   __pa_1   0x013dac    program     static D:\git\70M_Ku_Up\Devices\VOLDC_c1 .c
                   __pa_1   0x010f0e    program     static D:\git\70M_Ku_Up\Devices\UpConverter_c1.c
                   __pa_1   0x00fc3a    program     static D:\git\70M_Ku_Up\Microchip\TCPIP Stack\ETH97J60.c
                   __pa_1   0x002d7c    program     static D:\git\70M_Ku_Up\Microchip\TCPIP Stack\TCP.c
                   __pa_1   0x005ade    program     static D:\git\70M_Ku_Up\Microchip\TCPIP Stack\HTTP2.c
                   __pa_1   0x014f38    program     static D:\git\70M_Ku_Up\Microchip\TCPIP Stack\StackTsk.c
                   __pa_1   0x014482    program     static D:\git\70M_Ku_Up\Microchip\TCPIP Stack\IP.c
                   __pa_1   0x00ba62    program     static D:\git\70M_Ku_Up\App\WebUI\HTTPPrint.c
                   __pa_1   0x0155a8    program     static D:\git\70M_Ku_Up\Microchip\TCPIP Stack\ICMP.c
                   __pa_1   0x015290    program     static D:\git\70M_Ku_Up\Drivers\MCU-Internal\ISR.c
                   __pa_1   0x013a56    program     static D:\git\70M_Ku_Up\Bootstrap\Initialization.c
                   __pa_1   0x0150ac    program     static D:\git\70M_Ku_Up\Drivers\External-Peripherals\devadc.c
                   __pa_1   0x0098fe    program     static D:\git\70M_Ku_Up\App\WebUI\HTTPGetDevInfo.c
                   __pa_1   0x011c72    program     static D:\git\70M_Ku_Up\Drivers\External-Peripherals\oled_c1.c
                   __pa_1   0x007efa    program     static D:\git\70M_Ku_Up\Drivers\External-Peripherals\oled_c2.c
                   __pa_1   0x0123bc    program     static D:\git\70M_Ku_Up\App\WebUI\HTTPApp.c
                   __pa_1   0x014aa2    program     static D:\git\70M_Ku_Up\Microchip\TCPIP Stack\SPIEEPROM.c
                  __pa_10   0x00c95a    program     static D:\git\70M_Ku_Up\SysLib\util.c
                  __pa_10   0x010f88    program     static D:\git\70M_Ku_Up\Devices\UpConverter_c1.c
                  __pa_10   0x0080a0    program     static D:\git\70M_Ku_Up\Drivers\External-Peripherals\oled_c2.c
                  __pa_10   0x002e9e    program     static D:\git\70M_Ku_Up\Microchip\TCPIP Stack\TCP.c
                  __pa_10   0x0147f0    program     static D:\git\70M_Ku_Up\Drivers\MCU-Internal\i2c_c1.c
                  __pa_10   0x00fcba    program     static D:\git\70M_Ku_Up\Microchip\TCPIP Stack\ETH97J60.c
                  __pa_10   0x01372a    program     static D:\git\70M_Ku_Up\Devices\MainControl_c1.c
                  __pa_10   0x013b32    program     static D:\git\70M_Ku_Up\Bootstrap\Initialization.c
                  __pa_10   0x012f48    program     static D:\git\70M_Ku_Up\Microchip\TCPIP Stack\ARP.c
                  __pa_10   0x00e3fc    program     static C:\Program Files\mcc18\src\traditional\stdclib\vfprintf.c
                  __pa_10   0x0144f6    program     static D:\git\70M_Ku_Up\Microchip\TCPIP Stack\IP.c
                  __pa_10   0x013e04    program     static D:\git\70M_Ku_Up\Devices\VOLDC_c1 .c
                  __pa_10   0x005bc4    program     static D:\git\70M_Ku_Up\Microchip\TCPIP Stack\HTTP2.c
                  __pa_10   0x012434    program     static D:\git\70M_Ku_Up\App\WebUI\HTTPApp.c
                  __pa_10   0x00bae2    program     static D:\git\70M_Ku_Up\App\WebUI\HTTPPrint.c
                  __pa_10   0x0099ee    program     static D:\git\70M_Ku_Up\App\WebUI\HTTPGetDevInfo.c
                  __pa_10   0x012a94    program     static D:\git\70M_Ku_Up\Devices\DownConverter_c1.c
                  __pa_10   0x011d60    program     static D:\git\70M_Ku_Up\Drivers\External-Peripherals\oled_c1.c
                  __pa_10   0x00d8b0    program     static D:\git\70M_Ku_Up\Microchip\TCPIP Stack\Helpers.c
                  __pa_10   0x00aba0    program     static D:\git\70M_Ku_Up\Microchip\TCPIP Stack\MPFS2.c
                 __pa_100   0x00602e    program     static D:\git\70M_Ku_Up\Microchip\TCPIP Stack\HTTP2.c
                 __pa_100   0x009f56    program     static D:\git\70M_Ku_Up\App\WebUI\HTTPGetDevInfo.c
                 __pa_100   0x003494    program     static D:\git\70M_Ku_Up\Microchip\TCPIP Stack\TCP.c
                 __pa_101   0x006038    program     static D:\git\70M_Ku_Up\Microchip\TCPIP Stack\HTTP2.c
                 __pa_101   0x0034ac    program     static D:\git\70M_Ku_Up\Microchip\TCPIP Stack\TCP.c
                 __pa_101   0x009f60    program     static D:\git\70M_Ku_Up\App\WebUI\HTTPGetDevInfo.c
                 __pa_102   0x006040    program     static D:\git\70M_Ku_Up\Microchip\TCPIP Stack\HTTP2.c
                 __pa_102   0x009f6e    program     static D:\git\70M_Ku_Up\App\WebUI\HTTPGetDevInfo.c
                 __pa_102   0x0034b8    program     static D:\git\70M_Ku_Up\Microchip\TCPIP Stack\TCP.c
                 __pa_103   0x009f7a    program     static D:\git\70M_Ku_Up\App\WebUI\HTTPGetDevInfo.c
                 __pa_103   0x0034c4    program     static D:\git\70M_Ku_Up\Microchip\TCPIP Stack\TCP.c
                 __pa_103   0x00604e    program     static D:\git\70M_Ku_Up\Microchip\TCPIP Stack\HTTP2.c
                 __pa_104   0x009f84    program     static D:\git\70M_Ku_Up\App\WebUI\HTTPGetDevInfo.c
                 __pa_104   0x0034d0    program     static D:\git\70M_Ku_Up\Microchip\TCPIP Stack\TCP.c
                 __pa_104   0x00605c    program     static D:\git\70M_Ku_Up\Microchip\TCPIP Stack\HTTP2.c
                 __pa_105   0x009f92    program     static D:\git\70M_Ku_Up\App\WebUI\HTTPGetDevInfo.c
                 __pa_105   0x0034e6    program     static D:\git\70M_Ku_Up\Microchip\TCPIP Stack\TCP.c
                 __pa_105   0x006064    program     static D:\git\70M_Ku_Up\Microchip\TCPIP Stack\HTTP2.c
                 __pa_106   0x009fa0    program     static D:\git\70M_Ku_Up\App\WebUI\HTTPGetDevInfo.c
                 __pa_106   0x0034f6    program     static D:\git\70M_Ku_Up\Microchip\TCPIP Stack\TCP.c
                 __pa_106   0x006072    program     static D:\git\70M_Ku_Up\Microchip\TCPIP Stack\HTTP2.c
                 __pa_107   0x009fae    program     static D:\git\70M_Ku_Up\App\WebUI\HTTPGetDevInfo.c
                 __pa_107   0x00607c    program     static D:\git\70M_Ku_Up\Microchip\TCPIP Stack\HTTP2.c
                 __pa_107   0x00350c    program     static D:\git\70M_Ku_Up\Microchip\TCPIP Stack\TCP.c
                 __pa_108   0x006088    program     static D:\git\70M_Ku_Up\Microchip\TCPIP Stack\HTTP2.c
                 __pa_108   0x003522    program     static D:\git\70M_Ku_Up\Microchip\TCPIP Stack\TCP.c
                 __pa_108   0x009fbc    program     static D:\git\70M_Ku_Up\App\WebUI\HTTPGetDevInfo.c
                 __pa_109   0x003530    program     static D:\git\70M_Ku_Up\Microchip\TCPIP Stack\TCP.c
                 __pa_109   0x009fca    program     static D:\git\70M_Ku_Up\App\WebUI\HTTPGetDevInfo.c
                 __pa_109   0x006098    program     static D:\git\70M_Ku_Up\Microchip\TCPIP Stack\HTTP2.c
                  __pa_11   0x00c96c    program     static D:\git\70M_Ku_Up\SysLib\util.c
                  __pa_11   0x0099f6    program     static D:\git\70M_Ku_Up\App\WebUI\HTTPGetDevInfo.c
                  __pa_11   0x002eca    program     static D:\git\70M_Ku_Up\Microchip\TCPIP Stack\TCP.c
                  __pa_11   0x012a9c    program     static D:\git\70M_Ku_Up\Devices\DownConverter_c1.c
                  __pa_11   0x00baee    program     static D:\git\70M_Ku_Up\App\WebUI\HTTPPrint.c
                  __pa_11   0x012f50    program     static D:\git\70M_Ku_Up\Microchip\TCPIP Stack\ARP.c
                  __pa_11   0x00abb6    program     static D:\git\70M_Ku_Up\Microchip\TCPIP Stack\MPFS2.c
                  __pa_11   0x005bca    program     static D:\git\70M_Ku_Up\Microchip\TCPIP Stack\HTTP2.c
                  __pa_11   0x00fcca    program     static D:\git\70M_Ku_Up\Microchip\TCPIP Stack\ETH97J60.c
                  __pa_11   0x010f96    program     static D:\git\70M_Ku_Up\Devices\UpConverter_c1.c
                  __pa_11   0x014800    program     static D:\git\70M_Ku_Up\Drivers\MCU-Internal\i2c_c1.c
                  __pa_11   0x013730    program     static D:\git\70M_Ku_Up\Devices\MainControl_c1.c
                  __pa_11   0x012442    program     static D:\git\70M_Ku_Up\App\WebUI\HTTPApp.c
                  __pa_11   0x0080c2    program     static D:\git\70M_Ku_Up\Drivers\External-Peripherals\oled_c2.c
                  __pa_11   0x00e40a    program     static C:\Program Files\mcc18\src\traditional\stdclib\vfprintf.c
                  __pa_11   0x00d8ca    program     static D:\git\70M_Ku_Up\Microchip\TCPIP Stack\Helpers.c
                  __pa_11   0x013e0c    program     static D:\git\70M_Ku_Up\Devices\VOLDC_c1 .c
                  __pa_11   0x011d7c    program     static D:\git\70M_Ku_Up\Drivers\External-Peripherals\oled_c1.c
                 __pa_110   0x0060a0    program     static D:\git\70M_Ku_Up\Microchip\TCPIP Stack\HTTP2.c
                 __pa_110   0x009fd2    program     static D:\git\70M_Ku_Up\App\WebUI\HTTPGetDevInfo.c
                 __pa_110   0x00353e    program     static D:\git\70M_Ku_Up\Microchip\TCPIP Stack\TCP.c
                 __pa_111   0x0060aa    program     static D:\git\70M_Ku_Up\Microchip\TCPIP Stack\HTTP2.c
                 __pa_111   0x009fd8    program     static D:\git\70M_Ku_Up\App\WebUI\HTTPGetDevInfo.c
                 __pa_111   0x003546    program     static D:\git\70M_Ku_Up\Microchip\TCPIP Stack\TCP.c
                 __pa_112   0x009fde    program     static D:\git\70M_Ku_Up\App\WebUI\HTTPGetDevInfo.c
                 __pa_112   0x0060b2    program     static D:\git\70M_Ku_Up\Microchip\TCPIP Stack\HTTP2.c
                 __pa_112   0x003554    program     static D:\git\70M_Ku_Up\Microchip\TCPIP Stack\TCP.c
                 __pa_113   0x009fe4    program     static D:\git\70M_Ku_Up\App\WebUI\HTTPGetDevInfo.c
                 __pa_113   0x0060c0    program     static D:\git\70M_Ku_Up\Microchip\TCPIP Stack\HTTP2.c
                 __pa_113   0x00355c    program     static D:\git\70M_Ku_Up\Microchip\TCPIP Stack\TCP.c
                 __pa_114   0x0060c6    program     static D:\git\70M_Ku_Up\Microchip\TCPIP Stack\HTTP2.c
                 __pa_114   0x009ff0    program     static D:\git\70M_Ku_Up\App\WebUI\HTTPGetDevInfo.c
                 __pa_114   0x00356a    program     static D:\git\70M_Ku_Up\Microchip\TCPIP Stack\TCP.c
                 __pa_115   0x009ff6    program     static D:\git\70M_Ku_Up\App\WebUI\HTTPGetDevInfo.c
                 __pa_115   0x003578    program     static D:\git\70M_Ku_Up\Microchip\TCPIP Stack\TCP.c
                 __pa_115   0x0060cc    program     static D:\git\70M_Ku_Up\Microchip\TCPIP Stack\HTTP2.c
                 __pa_116   0x009ffc    program     static D:\git\70M_Ku_Up\App\WebUI\HTTPGetDevInfo.c
                 __pa_116   0x003586    program     static D:\git\70M_Ku_Up\Microchip\TCPIP Stack\TCP.c
                 __pa_116   0x0060d8    program     static D:\git\70M_Ku_Up\Microchip\TCPIP Stack\HTTP2.c
                 __pa_117   0x003590    program     static D:\git\70M_Ku_Up\Microchip\TCPIP Stack\TCP.c
                 __pa_117   0x0060e4    program     static D:\git\70M_Ku_Up\Microchip\TCPIP Stack\HTTP2.c
                 __pa_117   0x00a004    program     static D:\git\70M_Ku_Up\App\WebUI\HTTPGetDevInfo.c
                 __pa_118   0x0060f2    program     static D:\git\70M_Ku_Up\Microchip\TCPIP Stack\HTTP2.c
                 __pa_118   0x00a00c    program     static D:\git\70M_Ku_Up\App\WebUI\HTTPGetDevInfo.c
                 __pa_118   0x00359a    program     static D:\git\70M_Ku_Up\Microchip\TCPIP Stack\TCP.c
                 __pa_119   0x006100    program     static D:\git\70M_Ku_Up\Microchip\TCPIP Stack\HTTP2.c
                 __pa_119   0x00a01a    program     static D:\git\70M_Ku_Up\App\WebUI\HTTPGetDevInfo.c
                 __pa_119   0x0035a4    program     static D:\git\70M_Ku_Up\Microchip\TCPIP Stack\TCP.c
                  __pa_12   0x002ed2    program     static D:\git\70M_Ku_Up\Microchip\TCPIP Stack\TCP.c
                  __pa_12   0x00fcd6    program     static D:\git\70M_Ku_Up\Microchip\TCPIP Stack\ETH97J60.c
                  __pa_12   0x00abc0    program     static D:\git\70M_Ku_Up\Microchip\TCPIP Stack\MPFS2.c
                  __pa_12   0x009a12    program     static D:\git\70M_Ku_Up\App\WebUI\HTTPGetDevInfo.c
                  __pa_12   0x012448    program     static D:\git\70M_Ku_Up\App\WebUI\HTTPApp.c
                  __pa_12   0x010f9e    program     static D:\git\70M_Ku_Up\Devices\UpConverter_c1.c
                  __pa_12   0x0080ce    program     static D:\git\70M_Ku_Up\Drivers\External-Peripherals\oled_c2.c
                  __pa_12   0x00e420    program     static C:\Program Files\mcc18\src\traditional\stdclib\vfprintf.c
                  __pa_12   0x00bb00    program     static D:\git\70M_Ku_Up\App\WebUI\HTTPPrint.c
                  __pa_12   0x013736    program     static D:\git\70M_Ku_Up\Devices\MainControl_c1.c
                  __pa_12   0x01480e    program     static D:\git\70M_Ku_Up\Drivers\MCU-Internal\i2c_c1.c
                  __pa_12   0x00c978    program     static D:\git\70M_Ku_Up\SysLib\util.c
                  __pa_12   0x00d8da    program     static D:\git\70M_Ku_Up\Microchip\TCPIP Stack\Helpers.c
                  __pa_12   0x013e16    program     static D:\git\70M_Ku_Up\Devices\VOLDC_c1 .c
                  __pa_12   0x005bd4    program     static D:\git\70M_Ku_Up\Microchip\TCPIP Stack\HTTP2.c
                  __pa_12   0x012aaa    program     static D:\git\70M_Ku_Up\Devices\DownConverter_c1.c
                  __pa_12   0x011d8c    program     static D:\git\70M_Ku_Up\Drivers\External-Peripherals\oled_c1.c
                 __pa_120   0x0035ae    program     static D:\git\70M_Ku_Up\Microchip\TCPIP Stack\TCP.c
                 __pa_120   0x006108    program     static D:\git\70M_Ku_Up\Microchip\TCPIP Stack\HTTP2.c
                 __pa_120   0x00a028    program     static D:\git\70M_Ku_Up\App\WebUI\HTTPGetDevInfo.c
                 __pa_121   0x0035b8    program     static D:\git\70M_Ku_Up\Microchip\TCPIP Stack\TCP.c
                 __pa_121   0x00a036    program     static D:\git\70M_Ku_Up\App\WebUI\HTTPGetDevInfo.c
                 __pa_121   0x00610e    program     static D:\git\70M_Ku_Up\Microchip\TCPIP Stack\HTTP2.c
                 __pa_122   0x0035c0    program     static D:\git\70M_Ku_Up\Microchip\TCPIP Stack\TCP.c
                 __pa_122   0x00a040    program     static D:\git\70M_Ku_Up\App\WebUI\HTTPGetDevInfo.c
                 __pa_122   0x006118    program     static D:\git\70M_Ku_Up\Microchip\TCPIP Stack\HTTP2.c
                 __pa_123   0x00a048    program     static D:\git\70M_Ku_Up\App\WebUI\HTTPGetDevInfo.c
                 __pa_123   0x0035d4    program     static D:\git\70M_Ku_Up\Microchip\TCPIP Stack\TCP.c
                 __pa_123   0x006122    program     static D:\git\70M_Ku_Up\Microchip\TCPIP Stack\HTTP2.c
                 __pa_124   0x00a050    program     static D:\git\70M_Ku_Up\App\WebUI\HTTPGetDevInfo.c
                 __pa_124   0x0035e8    program     static D:\git\70M_Ku_Up\Microchip\TCPIP Stack\TCP.c
                 __pa_124   0x00612c    program     static D:\git\70M_Ku_Up\Microchip\TCPIP Stack\HTTP2.c
                 __pa_125   0x0035fc    program     static D:\git\70M_Ku_Up\Microchip\TCPIP Stack\TCP.c
                 __pa_125   0x00a06a    program     static D:\git\70M_Ku_Up\App\WebUI\HTTPGetDevInfo.c
                 __pa_125   0x006134    program     static D:\git\70M_Ku_Up\Microchip\TCPIP Stack\HTTP2.c
                 __pa_126   0x003604    program     static D:\git\70M_Ku_Up\Microchip\TCPIP Stack\TCP.c
                 __pa_126   0x00a07a    program     static D:\git\70M_Ku_Up\App\WebUI\HTTPGetDevInfo.c
                 __pa_126   0x00613c    program     static D:\git\70M_Ku_Up\Microchip\TCPIP Stack\HTTP2.c
                 __pa_127   0x006144    program     static D:\git\70M_Ku_Up\Microchip\TCPIP Stack\HTTP2.c
                 __pa_127   0x00360e    program     static D:\git\70M_Ku_Up\Microchip\TCPIP Stack\TCP.c
                 __pa_127   0x00a084    program     static D:\git\70M_Ku_Up\App\WebUI\HTTPGetDevInfo.c
                 __pa_128   0x00a092    program     static D:\git\70M_Ku_Up\App\WebUI\HTTPGetDevInfo.c
                 __pa_128   0x00614a    program     static D:\git\70M_Ku_Up\Microchip\TCPIP Stack\HTTP2.c
                 __pa_128   0x003620    program     static D:\git\70M_Ku_Up\Microchip\TCPIP Stack\TCP.c
                 __pa_129   0x006164    program     static D:\git\70M_Ku_Up\Microchip\TCPIP Stack\HTTP2.c
                 __pa_129   0x003632    program     static D:\git\70M_Ku_Up\Microchip\TCPIP Stack\TCP.c
                  __pa_13   0x0080e0    program     static D:\git\70M_Ku_Up\Drivers\External-Peripherals\oled_c2.c
                  __pa_13   0x013740    program     static D:\git\70M_Ku_Up\Devices\MainControl_c1.c
                  __pa_13   0x012456    program     static D:\git\70M_Ku_Up\App\WebUI\HTTPApp.c
                  __pa_13   0x00c986    program     static D:\git\70M_Ku_Up\SysLib\util.c
                  __pa_13   0x014818    program     static D:\git\70M_Ku_Up\Drivers\MCU-Internal\i2c_c1.c
                  __pa_13   0x00d8ea    program     static D:\git\70M_Ku_Up\Microchip\TCPIP Stack\Helpers.c
                  __pa_13   0x002eda    program     static D:\git\70M_Ku_Up\Microchip\TCPIP Stack\TCP.c
                  __pa_13   0x00bb12    program     static D:\git\70M_Ku_Up\App\WebUI\HTTPPrint.c
                  __pa_13   0x013e28    program     static D:\git\70M_Ku_Up\Devices\VOLDC_c1 .c
                  __pa_13   0x011d90    program     static D:\git\70M_Ku_Up\Drivers\External-Peripherals\oled_c1.c
                  __pa_13   0x012abc    program     static D:\git\70M_Ku_Up\Devices\DownConverter_c1.c
                  __pa_13   0x005bfa    program     static D:\git\70M_Ku_Up\Microchip\TCPIP Stack\HTTP2.c
                  __pa_13   0x009a32    program     static D:\git\70M_Ku_Up\App\WebUI\HTTPGetDevInfo.c
                  __pa_13   0x00abca    program     static D:\git\70M_Ku_Up\Microchip\TCPIP Stack\MPFS2.c
                  __pa_13   0x00fce4    program     static D:\git\70M_Ku_Up\Microchip\TCPIP Stack\ETH97J60.c
                  __pa_13   0x00e43a    program     static C:\Program Files\mcc18\src\traditional\stdclib\vfprintf.c
                  __pa_13   0x010fac    program     static D:\git\70M_Ku_Up\Devices\UpConverter_c1.c
                 __pa_130   0x003644    program     static D:\git\70M_Ku_Up\Microchip\TCPIP Stack\TCP.c
                 __pa_130   0x00616c    program     static D:\git\70M_Ku_Up\Microchip\TCPIP Stack\HTTP2.c
                 __pa_131   0x006172    program     static D:\git\70M_Ku_Up\Microchip\TCPIP Stack\HTTP2.c
                 __pa_131   0x003656    program     static D:\git\70M_Ku_Up\Microchip\TCPIP Stack\TCP.c
                 __pa_132   0x003668    program     static D:\git\70M_Ku_Up\Microchip\TCPIP Stack\TCP.c
                 __pa_132   0x006178    program     static D:\git\70M_Ku_Up\Microchip\TCPIP Stack\HTTP2.c
                 __pa_133   0x00367a    program     static D:\git\70M_Ku_Up\Microchip\TCPIP Stack\TCP.c
                 __pa_133   0x006188    program     static D:\git\70M_Ku_Up\Microchip\TCPIP Stack\HTTP2.c
                 __pa_134   0x00368c    program     static D:\git\70M_Ku_Up\Microchip\TCPIP Stack\TCP.c
                 __pa_134   0x006192    program     static D:\git\70M_Ku_Up\Microchip\TCPIP Stack\HTTP2.c
                 __pa_135   0x00369e    program     static D:\git\70M_Ku_Up\Microchip\TCPIP Stack\TCP.c
                 __pa_135   0x0061a2    program     static D:\git\70M_Ku_Up\Microchip\TCPIP Stack\HTTP2.c
                 __pa_136   0x0036b0    program     static D:\git\70M_Ku_Up\Microchip\TCPIP Stack\TCP.c
                 __pa_136   0x0061ae    program     static D:\git\70M_Ku_Up\Microchip\TCPIP Stack\HTTP2.c
                 __pa_137   0x0061b8    program     static D:\git\70M_Ku_Up\Microchip\TCPIP Stack\HTTP2.c
                 __pa_137   0x0036b8    program     static D:\git\70M_Ku_Up\Microchip\TCPIP Stack\TCP.c
                 __pa_138   0x0036c6    program     static D:\git\70M_Ku_Up\Microchip\TCPIP Stack\TCP.c
                 __pa_138   0x0061c8    program     static D:\git\70M_Ku_Up\Microchip\TCPIP Stack\HTTP2.c
                 __pa_139   0x0061d2    program     static D:\git\70M_Ku_Up\Microchip\TCPIP Stack\HTTP2.c
                 __pa_139   0x0036d2    program     static D:\git\70M_Ku_Up\Microchip\TCPIP Stack\TCP.c
                  __pa_14   0x013e40    program     static D:\git\70M_Ku_Up\Devices\VOLDC_c1 .c
                  __pa_14   0x00d902    program     static D:\git\70M_Ku_Up\Microchip\TCPIP Stack\Helpers.c
                  __pa_14   0x00fcf2    program     static D:\git\70M_Ku_Up\Microchip\TCPIP Stack\ETH97J60.c
                  __pa_14   0x002ee6    program     static D:\git\70M_Ku_Up\Microchip\TCPIP Stack\TCP.c
                  __pa_14   0x01245e    program     static D:\git\70M_Ku_Up\App\WebUI\HTTPApp.c
                  __pa_14   0x00c9a0    program     static D:\git\70M_Ku_Up\SysLib\util.c
                  __pa_14   0x00e452    program     static C:\Program Files\mcc18\src\traditional\stdclib\vfprintf.c
                  __pa_14   0x00bb1c    program     static D:\git\70M_Ku_Up\App\WebUI\HTTPPrint.c
                  __pa_14   0x005c02    program     static D:\git\70M_Ku_Up\Microchip\TCPIP Stack\HTTP2.c
                  __pa_14   0x00abde    program     static D:\git\70M_Ku_Up\Microchip\TCPIP Stack\MPFS2.c
                  __pa_14   0x010fbc    program     static D:\git\70M_Ku_Up\Devices\UpConverter_c1.c
                  __pa_14   0x011d96    program     static D:\git\70M_Ku_Up\Drivers\External-Peripherals\oled_c1.c
                  __pa_14   0x009a4e    program     static D:\git\70M_Ku_Up\App\WebUI\HTTPGetDevInfo.c
                  __pa_14   0x0080ee    program     static D:\git\70M_Ku_Up\Drivers\External-Peripherals\oled_c2.c
                  __pa_14   0x01374e    program     static D:\git\70M_Ku_Up\Devices\MainControl_c1.c
                 __pa_140   0x0061de    program     static D:\git\70M_Ku_Up\Microchip\TCPIP Stack\HTTP2.c
                 __pa_140   0x0036de    program     static D:\git\70M_Ku_Up\Microchip\TCPIP Stack\TCP.c
                 __pa_141   0x0036e8    program     static D:\git\70M_Ku_Up\Microchip\TCPIP Stack\TCP.c
                 __pa_141   0x0061e8    program     static D:\git\70M_Ku_Up\Microchip\TCPIP Stack\HTTP2.c
                 __pa_142   0x0036f2    program     static D:\git\70M_Ku_Up\Microchip\TCPIP Stack\TCP.c
                 __pa_142   0x0061f6    program     static D:\git\70M_Ku_Up\Microchip\TCPIP Stack\HTTP2.c
                 __pa_143   0x006204    program     static D:\git\70M_Ku_Up\Microchip\TCPIP Stack\HTTP2.c
                 __pa_143   0x0036fc    program     static D:\git\70M_Ku_Up\Microchip\TCPIP Stack\TCP.c
                 __pa_144   0x006210    program     static D:\git\70M_Ku_Up\Microchip\TCPIP Stack\HTTP2.c
                 __pa_144   0x00370c    program     static D:\git\70M_Ku_Up\Microchip\TCPIP Stack\TCP.c
                 __pa_145   0x006218    program     static D:\git\70M_Ku_Up\Microchip\TCPIP Stack\HTTP2.c
                 __pa_145   0x00371c    program     static D:\git\70M_Ku_Up\Microchip\TCPIP Stack\TCP.c
                 __pa_146   0x00621e    program     static D:\git\70M_Ku_Up\Microchip\TCPIP Stack\HTTP2.c
                 __pa_146   0x00372c    program     static D:\git\70M_Ku_Up\Microchip\TCPIP Stack\TCP.c
                 __pa_147   0x00373c    program     static D:\git\70M_Ku_Up\Microchip\TCPIP Stack\TCP.c
                 __pa_147   0x006224    program     static D:\git\70M_Ku_Up\Microchip\TCPIP Stack\HTTP2.c
                 __pa_148   0x00374c    program     static D:\git\70M_Ku_Up\Microchip\TCPIP Stack\TCP.c
                 __pa_148   0x00622c    program     static D:\git\70M_Ku_Up\Microchip\TCPIP Stack\HTTP2.c
                 __pa_149   0x003752    program     static D:\git\70M_Ku_Up\Microchip\TCPIP Stack\TCP.c
                 __pa_149   0x006234    program     static D:\git\70M_Ku_Up\Microchip\TCPIP Stack\HTTP2.c
                  __pa_15   0x002ef0    program     static D:\git\70M_Ku_Up\Microchip\TCPIP Stack\TCP.c
                  __pa_15   0x012466    program     static D:\git\70M_Ku_Up\App\WebUI\HTTPApp.c
                  __pa_15   0x00c9ba    program     static D:\git\70M_Ku_Up\SysLib\util.c
                  __pa_15   0x013754    program     static D:\git\70M_Ku_Up\Devices\MainControl_c1.c
                  __pa_15   0x00e462    program     static C:\Program Files\mcc18\src\traditional\stdclib\vfprintf.c
                  __pa_15   0x0080fc    program     static D:\git\70M_Ku_Up\Drivers\External-Peripherals\oled_c2.c
                  __pa_15   0x00bb24    program     static D:\git\70M_Ku_Up\App\WebUI\HTTPPrint.c
                  __pa_15   0x005c0a    program     static D:\git\70M_Ku_Up\Microchip\TCPIP Stack\HTTP2.c
                  __pa_15   0x00abf0    program     static D:\git\70M_Ku_Up\Microchip\TCPIP Stack\MPFS2.c
                  __pa_15   0x010fcc    program     static D:\git\70M_Ku_Up\Devices\UpConverter_c1.c
                  __pa_15   0x009a56    program     static D:\git\70M_Ku_Up\App\WebUI\HTTPGetDevInfo.c
                  __pa_15   0x011d9e    program     static D:\git\70M_Ku_Up\Drivers\External-Peripherals\oled_c1.c
                  __pa_15   0x013e54    program     static D:\git\70M_Ku_Up\Devices\VOLDC_c1 .c
                  __pa_15   0x00fd00    program     static D:\git\70M_Ku_Up\Microchip\TCPIP Stack\ETH97J60.c
                  __pa_15   0x00d918    program     static D:\git\70M_Ku_Up\Microchip\TCPIP Stack\Helpers.c
                 __pa_150   0x00623e    program     static D:\git\70M_Ku_Up\Microchip\TCPIP Stack\HTTP2.c
                 __pa_150   0x003760    program     static D:\git\70M_Ku_Up\Microchip\TCPIP Stack\TCP.c
                 __pa_151   0x00376e    program     static D:\git\70M_Ku_Up\Microchip\TCPIP Stack\TCP.c
                 __pa_152   0x00377c    program     static D:\git\70M_Ku_Up\Microchip\TCPIP Stack\TCP.c
                 __pa_153   0x00378a    program     static D:\git\70M_Ku_Up\Microchip\TCPIP Stack\TCP.c
                 __pa_154   0x003798    program     static D:\git\70M_Ku_Up\Microchip\TCPIP Stack\TCP.c
                 __pa_155   0x0037a6    program     static D:\git\70M_Ku_Up\Microchip\TCPIP Stack\TCP.c
                 __pa_156   0x0037b4    program     static D:\git\70M_Ku_Up\Microchip\TCPIP Stack\TCP.c
                 __pa_157   0x0037c2    program     static D:\git\70M_Ku_Up\Microchip\TCPIP Stack\TCP.c
                 __pa_158   0x0037d0    program     static D:\git\70M_Ku_Up\Microchip\TCPIP Stack\TCP.c
                 __pa_159   0x0037de    program     static D:\git\70M_Ku_Up\Microchip\TCPIP Stack\TCP.c
                  __pa_16   0x00bb3a    program     static D:\git\70M_Ku_Up\App\WebUI\HTTPPrint.c
                  __pa_16   0x010fdc    program     static D:\git\70M_Ku_Up\Devices\UpConverter_c1.c
                  __pa_16   0x011da8    program     static D:\git\70M_Ku_Up\Drivers\External-Peripherals\oled_c1.c
                  __pa_16   0x009a6c    program     static D:\git\70M_Ku_Up\App\WebUI\HTTPGetDevInfo.c
                  __pa_16   0x005c18    program     static D:\git\70M_Ku_Up\Microchip\TCPIP Stack\HTTP2.c
                  __pa_16   0x00c9c4    program     static D:\git\70M_Ku_Up\SysLib\util.c
                  __pa_16   0x00810a    program     static D:\git\70M_Ku_Up\Drivers\External-Peripherals\oled_c2.c
                  __pa_16   0x01246e    program     static D:\git\70M_Ku_Up\App\WebUI\HTTPApp.c
                  __pa_16   0x00e478    program     static C:\Program Files\mcc18\src\traditional\stdclib\vfprintf.c
                  __pa_16   0x00ac16    program     static D:\git\70M_Ku_Up\Microchip\TCPIP Stack\MPFS2.c
                  __pa_16   0x00d922    program     static D:\git\70M_Ku_Up\Microchip\TCPIP Stack\Helpers.c
                  __pa_16   0x002efa    program     static D:\git\70M_Ku_Up\Microchip\TCPIP Stack\TCP.c
                  __pa_16   0x013e5e    program     static D:\git\70M_Ku_Up\Devices\VOLDC_c1 .c
                  __pa_16   0x00fd0e    program     static D:\git\70M_Ku_Up\Microchip\TCPIP Stack\ETH97J60.c
                  __pa_16   0x01375e    program     static D:\git\70M_Ku_Up\Devices\MainControl_c1.c
                 __pa_160   0x0037ec    program     static D:\git\70M_Ku_Up\Microchip\TCPIP Stack\TCP.c
                 __pa_161   0x0037fa    program     static D:\git\70M_Ku_Up\Microchip\TCPIP Stack\TCP.c
                 __pa_162   0x003808    program     static D:\git\70M_Ku_Up\Microchip\TCPIP Stack\TCP.c
                 __pa_163   0x003816    program     static D:\git\70M_Ku_Up\Microchip\TCPIP Stack\TCP.c
                 __pa_164   0x003824    program     static D:\git\70M_Ku_Up\Microchip\TCPIP Stack\TCP.c
                 __pa_165   0x00382e    program     static D:\git\70M_Ku_Up\Microchip\TCPIP Stack\TCP.c
                 __pa_166   0x003838    program     static D:\git\70M_Ku_Up\Microchip\TCPIP Stack\TCP.c
                 __pa_167   0x003842    program     static D:\git\70M_Ku_Up\Microchip\TCPIP Stack\TCP.c
                 __pa_168   0x00384c    program     static D:\git\70M_Ku_Up\Microchip\TCPIP Stack\TCP.c
                 __pa_169   0x003856    program     static D:\git\70M_Ku_Up\Microchip\TCPIP Stack\TCP.c
                  __pa_17   0x005c22    program     static D:\git\70M_Ku_Up\Microchip\TCPIP Stack\HTTP2.c
                  __pa_17   0x00d934    program     static D:\git\70M_Ku_Up\Microchip\TCPIP Stack\Helpers.c
                  __pa_17   0x009aa2    program     static D:\git\70M_Ku_Up\App\WebUI\HTTPGetDevInfo.c
                  __pa_17   0x00e48a    program     static C:\Program Files\mcc18\src\traditional\stdclib\vfprintf.c
                  __pa_17   0x00fd1c    program     static D:\git\70M_Ku_Up\Microchip\TCPIP Stack\ETH97J60.c
                  __pa_17   0x01247c    program     static D:\git\70M_Ku_Up\App\WebUI\HTTPApp.c
                  __pa_17   0x010fee    program     static D:\git\70M_Ku_Up\Devices\UpConverter_c1.c
                  __pa_17   0x00ac30    program     static D:\git\70M_Ku_Up\Microchip\TCPIP Stack\MPFS2.c
                  __pa_17   0x011db8    program     static D:\git\70M_Ku_Up\Drivers\External-Peripherals\oled_c1.c
                  __pa_17   0x013766    program     static D:\git\70M_Ku_Up\Devices\MainControl_c1.c
                  __pa_17   0x013e68    program     static D:\git\70M_Ku_Up\Devices\VOLDC_c1 .c
                  __pa_17   0x00c9da    program     static D:\git\70M_Ku_Up\SysLib\util.c
                  __pa_17   0x002f06    program     static D:\git\70M_Ku_Up\Microchip\TCPIP Stack\TCP.c
                  __pa_17   0x008120    program     static D:\git\70M_Ku_Up\Drivers\External-Peripherals\oled_c2.c
                  __pa_17   0x00bb52    program     static D:\git\70M_Ku_Up\App\WebUI\HTTPPrint.c
                 __pa_170   0x003860    program     static D:\git\70M_Ku_Up\Microchip\TCPIP Stack\TCP.c
                 __pa_171   0x00386a    program     static D:\git\70M_Ku_Up\Microchip\TCPIP Stack\TCP.c
                 __pa_172   0x003874    program     static D:\git\70M_Ku_Up\Microchip\TCPIP Stack\TCP.c
                 __pa_173   0x00387c    program     static D:\git\70M_Ku_Up\Microchip\TCPIP Stack\TCP.c
                 __pa_174   0x003886    program     static D:\git\70M_Ku_Up\Microchip\TCPIP Stack\TCP.c
                 __pa_175   0x003894    program     static D:\git\70M_Ku_Up\Microchip\TCPIP Stack\TCP.c
                 __pa_176   0x0038bc    program     static D:\git\70M_Ku_Up\Microchip\TCPIP Stack\TCP.c
                 __pa_177   0x0038ca    program     static D:\git\70M_Ku_Up\Microchip\TCPIP Stack\TCP.c
                 __pa_178   0x0038d2    program     static D:\git\70M_Ku_Up\Microchip\TCPIP Stack\TCP.c
                 __pa_179   0x0038dc    program     static D:\git\70M_Ku_Up\Microchip\TCPIP Stack\TCP.c
                  __pa_18   0x00ac44    program     static D:\git\70M_Ku_Up\Microchip\TCPIP Stack\MPFS2.c
                  __pa_18   0x00c9ee    program     static D:\git\70M_Ku_Up\SysLib\util.c
                  __pa_18   0x002f14    program     static D:\git\70M_Ku_Up\Microchip\TCPIP Stack\TCP.c
                  __pa_18   0x012486    program     static D:\git\70M_Ku_Up\App\WebUI\HTTPApp.c
                  __pa_18   0x005c32    program     static D:\git\70M_Ku_Up\Microchip\TCPIP Stack\HTTP2.c
                  __pa_18   0x00812c    program     static D:\git\70M_Ku_Up\Drivers\External-Peripherals\oled_c2.c
                  __pa_18   0x011dc0    program     static D:\git\70M_Ku_Up\Drivers\External-Peripherals\oled_c1.c
                  __pa_18   0x009acc    program     static D:\git\70M_Ku_Up\App\WebUI\HTTPGetDevInfo.c
                  __pa_18   0x00bb58    program     static D:\git\70M_Ku_Up\App\WebUI\HTTPPrint.c
                  __pa_18   0x00fd24    program     static D:\git\70M_Ku_Up\Microchip\TCPIP Stack\ETH97J60.c
                  __pa_18   0x013778    program     static D:\git\70M_Ku_Up\Devices\MainControl_c1.c
                  __pa_18   0x013e70    program     static D:\git\70M_Ku_Up\Devices\VOLDC_c1 .c
                  __pa_18   0x00d944    program     static D:\git\70M_Ku_Up\Microchip\TCPIP Stack\Helpers.c
                  __pa_18   0x00e49c    program     static C:\Program Files\mcc18\src\traditional\stdclib\vfprintf.c
                 __pa_180   0x0038ea    program     static D:\git\70M_Ku_Up\Microchip\TCPIP Stack\TCP.c
                 __pa_181   0x0038f4    program     static D:\git\70M_Ku_Up\Microchip\TCPIP Stack\TCP.c
                 __pa_182   0x003902    program     static D:\git\70M_Ku_Up\Microchip\TCPIP Stack\TCP.c
                 __pa_183   0x00390e    program     static D:\git\70M_Ku_Up\Microchip\TCPIP Stack\TCP.c
                 __pa_184   0x003918    program     static D:\git\70M_Ku_Up\Microchip\TCPIP Stack\TCP.c
                 __pa_185   0x003928    program     static D:\git\70M_Ku_Up\Microchip\TCPIP Stack\TCP.c
                 __pa_186   0x003932    program     static D:\git\70M_Ku_Up\Microchip\TCPIP Stack\TCP.c
                 __pa_187   0x003950    program     static D:\git\70M_Ku_Up\Microchip\TCPIP Stack\TCP.c
                 __pa_188   0x003966    program     static D:\git\70M_Ku_Up\Microchip\TCPIP Stack\TCP.c
                 __pa_189   0x00397c    program     static D:\git\70M_Ku_Up\Microchip\TCPIP Stack\TCP.c
                  __pa_19   0x012490    program     static D:\git\70M_Ku_Up\App\WebUI\HTTPApp.c
                  __pa_19   0x008142    program     static D:\git\70M_Ku_Up\Drivers\External-Peripherals\oled_c2.c
                  __pa_19   0x005c40    program     static D:\git\70M_Ku_Up\Microchip\TCPIP Stack\HTTP2.c
                  __pa_19   0x011dd0    program     static D:\git\70M_Ku_Up\Drivers\External-Peripherals\oled_c1.c
                  __pa_19   0x00ac4e    program     static D:\git\70M_Ku_Up\Microchip\TCPIP Stack\MPFS2.c
                  __pa_19   0x00bb68    program     static D:\git\70M_Ku_Up\App\WebUI\HTTPPrint.c
                  __pa_19   0x009ae4    program     static D:\git\70M_Ku_Up\App\WebUI\HTTPGetDevInfo.c
                  __pa_19   0x01378a    program     static D:\git\70M_Ku_Up\Devices\MainControl_c1.c
                  __pa_19   0x013e80    program     static D:\git\70M_Ku_Up\Devices\VOLDC_c1 .c
                  __pa_19   0x00d954    program     static D:\git\70M_Ku_Up\Microchip\TCPIP Stack\Helpers.c
                  __pa_19   0x00e4a6    program     static C:\Program Files\mcc18\src\traditional\stdclib\vfprintf.c
                  __pa_19   0x00fd2e    program     static D:\git\70M_Ku_Up\Microchip\TCPIP Stack\ETH97J60.c
                  __pa_19   0x002f1e    program     static D:\git\70M_Ku_Up\Microchip\TCPIP Stack\TCP.c
                  __pa_19   0x00ca02    program     static D:\git\70M_Ku_Up\SysLib\util.c
                 __pa_190   0x003998    program     static D:\git\70M_Ku_Up\Microchip\TCPIP Stack\TCP.c
                 __pa_191   0x0039b4    program     static D:\git\70M_Ku_Up\Microchip\TCPIP Stack\TCP.c
                 __pa_192   0x0039c0    program     static D:\git\70M_Ku_Up\Microchip\TCPIP Stack\TCP.c
                 __pa_193   0x0039ce    program     static D:\git\70M_Ku_Up\Microchip\TCPIP Stack\TCP.c
                 __pa_194   0x0039d8    program     static D:\git\70M_Ku_Up\Microchip\TCPIP Stack\TCP.c
                 __pa_195   0x0039e2    program     static D:\git\70M_Ku_Up\Microchip\TCPIP Stack\TCP.c
                 __pa_196   0x0039ea    program     static D:\git\70M_Ku_Up\Microchip\TCPIP Stack\TCP.c
                 __pa_197   0x0039f4    program     static D:\git\70M_Ku_Up\Microchip\TCPIP Stack\TCP.c
                 __pa_198   0x0039fe    program     static D:\git\70M_Ku_Up\Microchip\TCPIP Stack\TCP.c
                 __pa_199   0x003a08    program     static D:\git\70M_Ku_Up\Microchip\TCPIP Stack\TCP.c
                   __pa_2   0x01448e    program     static D:\git\70M_Ku_Up\Microchip\TCPIP Stack\IP.c
                   __pa_2   0x014f44    program     static D:\git\70M_Ku_Up\Microchip\TCPIP Stack\StackTsk.c
                   __pa_2   0x0156c4    program     static D:\git\70M_Ku_Up\Microchip\TCPIP Stack\Tick.c
                   __pa_2   0x0136cc    program     static D:\git\70M_Ku_Up\Devices\MainControl_c1.c
                   __pa_2   0x01477c    program     static D:\git\70M_Ku_Up\Drivers\MCU-Internal\i2c_c1.c
                   __pa_2   0x005b30    program     static D:\git\70M_Ku_Up\Microchip\TCPIP Stack\HTTP2.c
                   __pa_2   0x00ba6a    program     static D:\git\70M_Ku_Up\App\WebUI\HTTPPrint.c
                   __pa_2   0x014aae    program     static D:\git\70M_Ku_Up\Microchip\TCPIP Stack\SPIEEPROM.c
                   __pa_2   0x0123c8    program     static D:\git\70M_Ku_Up\App\WebUI\HTTPApp.c
                   __pa_2   0x00c8aa    program     static D:\git\70M_Ku_Up\SysLib\util.c
                   __pa_2   0x0150b4    program     static D:\git\70M_Ku_Up\Drivers\External-Peripherals\devadc.c
                   __pa_2   0x012eca    program     static D:\git\70M_Ku_Up\Microchip\TCPIP Stack\ARP.c
                   __pa_2   0x013db6    program     static D:\git\70M_Ku_Up\Devices\VOLDC_c1 .c
                   __pa_2   0x009918    program     static D:\git\70M_Ku_Up\App\WebUI\HTTPGetDevInfo.c
                   __pa_2   0x00fc46    program     static D:\git\70M_Ku_Up\Microchip\TCPIP Stack\ETH97J60.c
                   __pa_2   0x0152ba    program     static D:\git\70M_Ku_Up\Drivers\MCU-Internal\ISR.c
                   __pa_2   0x010f18    program     static D:\git\70M_Ku_Up\Devices\UpConverter_c1.c
                   __pa_2   0x00d7f6    program     static D:\git\70M_Ku_Up\Microchip\TCPIP Stack\Helpers.c
                   __pa_2   0x002d8a    program     static D:\git\70M_Ku_Up\Microchip\TCPIP Stack\TCP.c
                   __pa_2   0x00e352    program     static C:\Program Files\mcc18\src\traditional\stdclib\vfprintf.c
                   __pa_2   0x00ab00    program     static D:\git\70M_Ku_Up\Microchip\TCPIP Stack\MPFS2.c
                   __pa_2   0x0157a8    program     static D:\git\70M_Ku_Up\Microchip\TCPIP Stack\UART.c
                   __pa_2   0x011c8c    program     static D:\git\70M_Ku_Up\Drivers\External-Peripherals\oled_c1.c
                   __pa_2   0x007f30    program     static D:\git\70M_Ku_Up\Drivers\External-Peripherals\oled_c2.c
                   __pa_2   0x012a26    program     static D:\git\70M_Ku_Up\Devices\DownConverter_c1.c
                   __pa_2   0x013aae    program     static D:\git\70M_Ku_Up\Bootstrap\Initialization.c
                   __pa_2   0x0155b6    program     static D:\git\70M_Ku_Up\Microchip\TCPIP Stack\ICMP.c
                  __pa_20   0x011ddc    program     static D:\git\70M_Ku_Up\Drivers\External-Peripherals\oled_c1.c
                  __pa_20   0x005c46    program     static D:\git\70M_Ku_Up\Microchip\TCPIP Stack\HTTP2.c
                  __pa_20   0x00ac5c    program     static D:\git\70M_Ku_Up\Microchip\TCPIP Stack\MPFS2.c
                  __pa_20   0x008158    program     static D:\git\70M_Ku_Up\Drivers\External-Peripherals\oled_c2.c
                  __pa_20   0x00bb6e    program     static D:\git\70M_Ku_Up\App\WebUI\HTTPPrint.c
                  __pa_20   0x009af8    program     static D:\git\70M_Ku_Up\App\WebUI\HTTPGetDevInfo.c
                  __pa_20   0x01379a    program     static D:\git\70M_Ku_Up\Devices\MainControl_c1.c
                  __pa_20   0x01249a    program     static D:\git\70M_Ku_Up\App\WebUI\HTTPApp.c
                  __pa_20   0x002f3a    program     static D:\git\70M_Ku_Up\Microchip\TCPIP Stack\TCP.c
                  __pa_20   0x00ca0a    program     static D:\git\70M_Ku_Up\SysLib\util.c
                  __pa_20   0x00fd38    program     static D:\git\70M_Ku_Up\Microchip\TCPIP Stack\ETH97J60.c
                  __pa_20   0x00d964    program     static D:\git\70M_Ku_Up\Microchip\TCPIP Stack\Helpers.c
                  __pa_20   0x00e4b6    program     static C:\Program Files\mcc18\src\traditional\stdclib\vfprintf.c
                 __pa_200   0x003a12    program     static D:\git\70M_Ku_Up\Microchip\TCPIP Stack\TCP.c
                 __pa_201   0x003a28    program     static D:\git\70M_Ku_Up\Microchip\TCPIP Stack\TCP.c
                 __pa_202   0x003a34    program     static D:\git\70M_Ku_Up\Microchip\TCPIP Stack\TCP.c
                 __pa_203   0x003a40    program     static D:\git\70M_Ku_Up\Microchip\TCPIP Stack\TCP.c
                 __pa_204   0x003a46    program     static D:\git\70M_Ku_Up\Microchip\TCPIP Stack\TCP.c
                 __pa_205   0x003a52    program     static D:\git\70M_Ku_Up\Microchip\TCPIP Stack\TCP.c
                 __pa_206   0x003a66    program     static D:\git\70M_Ku_Up\Microchip\TCPIP Stack\TCP.c
                 __pa_207   0x003a7a    program     static D:\git\70M_Ku_Up\Microchip\TCPIP Stack\TCP.c
                 __pa_208   0x003a88    program     static D:\git\70M_Ku_Up\Microchip\TCPIP Stack\TCP.c
                 __pa_209   0x003a92    program     static D:\git\70M_Ku_Up\Microchip\TCPIP Stack\TCP.c
                  __pa_21   0x00bb7c    program     static D:\git\70M_Ku_Up\App\WebUI\HTTPPrint.c
                  __pa_21   0x0137a8    program     static D:\git\70M_Ku_Up\Devices\MainControl_c1.c
                  __pa_21   0x005c50    program     static D:\git\70M_Ku_Up\Microchip\TCPIP Stack\HTTP2.c
                  __pa_21   0x009b0c    program     static D:\git\70M_Ku_Up\App\WebUI\HTTPGetDevInfo.c
                  __pa_21   0x00d96c    program     static D:\git\70M_Ku_Up\Microchip\TCPIP Stack\Helpers.c
                  __pa_21   0x011de4    program     static D:\git\70M_Ku_Up\Drivers\External-Peripherals\oled_c1.c
                  __pa_21   0x00e4c6    program     static C:\Program Files\mcc18\src\traditional\stdclib\vfprintf.c
                  __pa_21   0x00ac7e    program     static D:\git\70M_Ku_Up\Microchip\TCPIP Stack\MPFS2.c
                  __pa_21   0x008164    program     static D:\git\70M_Ku_Up\Drivers\External-Peripherals\oled_c2.c
                  __pa_21   0x002f46    program     static D:\git\70M_Ku_Up\Microchip\TCPIP Stack\TCP.c
                  __pa_21   0x00fd50    program     static D:\git\70M_Ku_Up\Microchip\TCPIP Stack\ETH97J60.c
                  __pa_21   0x0124aa    program     static D:\git\70M_Ku_Up\App\WebUI\HTTPApp.c
                  __pa_21   0x00ca1c    program     static D:\git\70M_Ku_Up\SysLib\util.c
                 __pa_210   0x003a9a    program     static D:\git\70M_Ku_Up\Microchip\TCPIP Stack\TCP.c
                 __pa_211   0x003aa4    program     static D:\git\70M_Ku_Up\Microchip\TCPIP Stack\TCP.c
                 __pa_212   0x003aae    program     static D:\git\70M_Ku_Up\Microchip\TCPIP Stack\TCP.c
                 __pa_213   0x003ab6    program     static D:\git\70M_Ku_Up\Microchip\TCPIP Stack\TCP.c
                 __pa_214   0x003ac4    program     static D:\git\70M_Ku_Up\Microchip\TCPIP Stack\TCP.c
                 __pa_215   0x003ace    program     static D:\git\70M_Ku_Up\Microchip\TCPIP Stack\TCP.c
                 __pa_216   0x003ada    program     static D:\git\70M_Ku_Up\Microchip\TCPIP Stack\TCP.c
                 __pa_217   0x003aec    program     static D:\git\70M_Ku_Up\Microchip\TCPIP Stack\TCP.c
                 __pa_218   0x003af2    program     static D:\git\70M_Ku_Up\Microchip\TCPIP Stack\TCP.c
                 __pa_219   0x003afa    program     static D:\git\70M_Ku_Up\Microchip\TCPIP Stack\TCP.c
                  __pa_22   0x0124b6    program     static D:\git\70M_Ku_Up\App\WebUI\HTTPApp.c
                  __pa_22   0x00bb88    program     static D:\git\70M_Ku_Up\App\WebUI\HTTPPrint.c
                  __pa_22   0x00ac9e    program     static D:\git\70M_Ku_Up\Microchip\TCPIP Stack\MPFS2.c
                  __pa_22   0x00e4d6    program     static C:\Program Files\mcc18\src\traditional\stdclib\vfprintf.c
                  __pa_22   0x008172    program     static D:\git\70M_Ku_Up\Drivers\External-Peripherals\oled_c2.c
                  __pa_22   0x00ca2a    program     static D:\git\70M_Ku_Up\SysLib\util.c
                  __pa_22   0x002f54    program     static D:\git\70M_Ku_Up\Microchip\TCPIP Stack\TCP.c
                  __pa_22   0x0137b6    program     static D:\git\70M_Ku_Up\Devices\MainControl_c1.c
                  __pa_22   0x00d97a    program     static D:\git\70M_Ku_Up\Microchip\TCPIP Stack\Helpers.c
                  __pa_22   0x005c5a    program     static D:\git\70M_Ku_Up\Microchip\TCPIP Stack\HTTP2.c
                  __pa_22   0x009b1c    program     static D:\git\70M_Ku_Up\App\WebUI\HTTPGetDevInfo.c
                  __pa_22   0x00fd58    program     static D:\git\70M_Ku_Up\Microchip\TCPIP Stack\ETH97J60.c
                 __pa_220   0x003b0c    program     static D:\git\70M_Ku_Up\Microchip\TCPIP Stack\TCP.c
                 __pa_221   0x003b1a    program     static D:\git\70M_Ku_Up\Microchip\TCPIP Stack\TCP.c
                 __pa_222   0x003b24    program     static D:\git\70M_Ku_Up\Microchip\TCPIP Stack\TCP.c
                 __pa_223   0x003b2e    program     static D:\git\70M_Ku_Up\Microchip\TCPIP Stack\TCP.c
                 __pa_224   0x003b38    program     static D:\git\70M_Ku_Up\Microchip\TCPIP Stack\TCP.c
                 __pa_225   0x003b40    program     static D:\git\70M_Ku_Up\Microchip\TCPIP Stack\TCP.c
                 __pa_226   0x003b4a    program     static D:\git\70M_Ku_Up\Microchip\TCPIP Stack\TCP.c
                 __pa_227   0x003b54    program     static D:\git\70M_Ku_Up\Microchip\TCPIP Stack\TCP.c
                 __pa_228   0x003b5c    program     static D:\git\70M_Ku_Up\Microchip\TCPIP Stack\TCP.c
                 __pa_229   0x003b66    program     static D:\git\70M_Ku_Up\Microchip\TCPIP Stack\TCP.c
                  __pa_23   0x00bb94    program     static D:\git\70M_Ku_Up\App\WebUI\HTTPPrint.c
                  __pa_23   0x0124c0    program     static D:\git\70M_Ku_Up\App\WebUI\HTTPApp.c
                  __pa_23   0x00e4e2    program     static C:\Program Files\mcc18\src\traditional\stdclib\vfprintf.c
                  __pa_23   0x00ca44    program     static D:\git\70M_Ku_Up\SysLib\util.c
                  __pa_23   0x002f72    program     static D:\git\70M_Ku_Up\Microchip\TCPIP Stack\TCP.c
                  __pa_23   0x008192    program     static D:\git\70M_Ku_Up\Drivers\External-Peripherals\oled_c2.c
                  __pa_23   0x00fd66    program     static D:\git\70M_Ku_Up\Microchip\TCPIP Stack\ETH97J60.c
                  __pa_23   0x00d988    program     static D:\git\70M_Ku_Up\Microchip\TCPIP Stack\Helpers.c
                  __pa_23   0x00acb0    program     static D:\git\70M_Ku_Up\Microchip\TCPIP Stack\MPFS2.c
                  __pa_23   0x009b2c    program     static D:\git\70M_Ku_Up\App\WebUI\HTTPGetDevInfo.c
                  __pa_23   0x005c6e    program     static D:\git\70M_Ku_Up\Microchip\TCPIP Stack\HTTP2.c
                 __pa_230   0x003b74    program     static D:\git\70M_Ku_Up\Microchip\TCPIP Stack\TCP.c
                 __pa_231   0x003b84    program     static D:\git\70M_Ku_Up\Microchip\TCPIP Stack\TCP.c
                 __pa_232   0x003b94    program     static D:\git\70M_Ku_Up\Microchip\TCPIP Stack\TCP.c
                 __pa_233   0x003ba2    program     static D:\git\70M_Ku_Up\Microchip\TCPIP Stack\TCP.c
                 __pa_234   0x003bb0    program     static D:\git\70M_Ku_Up\Microchip\TCPIP Stack\TCP.c
                 __pa_235   0x003bbc    program     static D:\git\70M_Ku_Up\Microchip\TCPIP Stack\TCP.c
                 __pa_236   0x003bc8    program     static D:\git\70M_Ku_Up\Microchip\TCPIP Stack\TCP.c
                 __pa_237   0x003bd2    program     static D:\git\70M_Ku_Up\Microchip\TCPIP Stack\TCP.c
                 __pa_238   0x003bde    program     static D:\git\70M_Ku_Up\Microchip\TCPIP Stack\TCP.c
                 __pa_239   0x003bec    program     static D:\git\70M_Ku_Up\Microchip\TCPIP Stack\TCP.c
                  __pa_24   0x00e4f0    program     static C:\Program Files\mcc18\src\traditional\stdclib\vfprintf.c
                  __pa_24   0x0124c6    program     static D:\git\70M_Ku_Up\App\WebUI\HTTPApp.c
                  __pa_24   0x0081a2    program     static D:\git\70M_Ku_Up\Drivers\External-Peripherals\oled_c2.c
                  __pa_24   0x00ca50    program     static D:\git\70M_Ku_Up\SysLib\util.c
                  __pa_24   0x00fd6e    program     static D:\git\70M_Ku_Up\Microchip\TCPIP Stack\ETH97J60.c
                  __pa_24   0x009b3c    program     static D:\git\70M_Ku_Up\App\WebUI\HTTPGetDevInfo.c
                  __pa_24   0x00acc2    program     static D:\git\70M_Ku_Up\Microchip\TCPIP Stack\MPFS2.c
                  __pa_24   0x00bbae    program     static D:\git\70M_Ku_Up\App\WebUI\HTTPPrint.c
                  __pa_24   0x002f7c    program     static D:\git\70M_Ku_Up\Microchip\TCPIP Stack\TCP.c
                  __pa_24   0x00d99c    program     static D:\git\70M_Ku_Up\Microchip\TCPIP Stack\Helpers.c
                  __pa_24   0x005c7a    program     static D:\git\70M_Ku_Up\Microchip\TCPIP Stack\HTTP2.c
                 __pa_240   0x003bfa    program     static D:\git\70M_Ku_Up\Microchip\TCPIP Stack\TCP.c
                 __pa_241   0x003c08    program     static D:\git\70M_Ku_Up\Microchip\TCPIP Stack\TCP.c
                 __pa_242   0x003c16    program     static D:\git\70M_Ku_Up\Microchip\TCPIP Stack\TCP.c
                 __pa_243   0x003c24    program     static D:\git\70M_Ku_Up\Microchip\TCPIP Stack\TCP.c
                 __pa_244   0x003c32    program     static D:\git\70M_Ku_Up\Microchip\TCPIP Stack\TCP.c
                 __pa_245   0x003c40    program     static D:\git\70M_Ku_Up\Microchip\TCPIP Stack\TCP.c
                 __pa_246   0x003c4e    program     static D:\git\70M_Ku_Up\Microchip\TCPIP Stack\TCP.c
                 __pa_247   0x003c5c    program     static D:\git\70M_Ku_Up\Microchip\TCPIP Stack\TCP.c
                 __pa_248   0x003c6a    program     static D:\git\70M_Ku_Up\Microchip\TCPIP Stack\TCP.c
                 __pa_249   0x003c78    program     static D:\git\70M_Ku_Up\Microchip\TCPIP Stack\TCP.c
                  __pa_25   0x00e4f8    program     static C:\Program Files\mcc18\src\traditional\stdclib\vfprintf.c
                  __pa_25   0x00ca5c    program     static D:\git\70M_Ku_Up\SysLib\util.c
                  __pa_25   0x0081ae    program     static D:\git\70M_Ku_Up\Drivers\External-Peripherals\oled_c2.c
                  __pa_25   0x009b46    program     static D:\git\70M_Ku_Up\App\WebUI\HTTPGetDevInfo.c
                  __pa_25   0x00acd0    program     static D:\git\70M_Ku_Up\Microchip\TCPIP Stack\MPFS2.c
                  __pa_25   0x002f86    program     static D:\git\70M_Ku_Up\Microchip\TCPIP Stack\TCP.c
                  __pa_25   0x00bbba    program     static D:\git\70M_Ku_Up\App\WebUI\HTTPPrint.c
                  __pa_25   0x005c80    program     static D:\git\70M_Ku_Up\Microchip\TCPIP Stack\HTTP2.c
                  __pa_25   0x00d9a6    program     static D:\git\70M_Ku_Up\Microchip\TCPIP Stack\Helpers.c
                  __pa_25   0x00fd7e    program     static D:\git\70M_Ku_Up\Microchip\TCPIP Stack\ETH97J60.c
                 __pa_250   0x003c86    program     static D:\git\70M_Ku_Up\Microchip\TCPIP Stack\TCP.c
                 __pa_251   0x003c8e    program     static D:\git\70M_Ku_Up\Microchip\TCPIP Stack\TCP.c
                 __pa_252   0x003c98    program     static D:\git\70M_Ku_Up\Microchip\TCPIP Stack\TCP.c
                 __pa_253   0x003ca2    program     static D:\git\70M_Ku_Up\Microchip\TCPIP Stack\TCP.c
                 __pa_254   0x003cac    program     static D:\git\70M_Ku_Up\Microchip\TCPIP Stack\TCP.c
                 __pa_255   0x003cb6    program     static D:\git\70M_Ku_Up\Microchip\TCPIP Stack\TCP.c
                 __pa_256   0x003cbe    program     static D:\git\70M_Ku_Up\Microchip\TCPIP Stack\TCP.c
                 __pa_257   0x003cc8    program     static D:\git\70M_Ku_Up\Microchip\TCPIP Stack\TCP.c
                 __pa_258   0x003cd2    program     static D:\git\70M_Ku_Up\Microchip\TCPIP Stack\TCP.c
                 __pa_259   0x003cdc    program     static D:\git\70M_Ku_Up\Microchip\TCPIP Stack\TCP.c
                  __pa_26   0x009b4e    program     static D:\git\70M_Ku_Up\App\WebUI\HTTPGetDevInfo.c
                  __pa_26   0x00bbc6    program     static D:\git\70M_Ku_Up\App\WebUI\HTTPPrint.c
                  __pa_26   0x00acec    program     static D:\git\70M_Ku_Up\Microchip\TCPIP Stack\MPFS2.c
                  __pa_26   0x00fd8a    program     static D:\git\70M_Ku_Up\Microchip\TCPIP Stack\ETH97J60.c
                  __pa_26   0x0081d4    program     static D:\git\70M_Ku_Up\Drivers\External-Peripherals\oled_c2.c
                  __pa_26   0x00e502    program     static C:\Program Files\mcc18\src\traditional\stdclib\vfprintf.c
                  __pa_26   0x00ca6a    program     static D:\git\70M_Ku_Up\SysLib\util.c
                  __pa_26   0x00d9b4    program     static D:\git\70M_Ku_Up\Microchip\TCPIP Stack\Helpers.c
                  __pa_26   0x005c86    program     static D:\git\70M_Ku_Up\Microchip\TCPIP Stack\HTTP2.c
                  __pa_26   0x002f92    program     static D:\git\70M_Ku_Up\Microchip\TCPIP Stack\TCP.c
                 __pa_260   0x003ce6    program     static D:\git\70M_Ku_Up\Microchip\TCPIP Stack\TCP.c
                 __pa_261   0x003cee    program     static D:\git\70M_Ku_Up\Microchip\TCPIP Stack\TCP.c
                 __pa_262   0x003cfa    program     static D:\git\70M_Ku_Up\Microchip\TCPIP Stack\TCP.c
                 __pa_263   0x003d0a    program     static D:\git\70M_Ku_Up\Microchip\TCPIP Stack\TCP.c
                 __pa_264   0x003d14    program     static D:\git\70M_Ku_Up\Microchip\TCPIP Stack\TCP.c
                 __pa_265   0x003d26    program     static D:\git\70M_Ku_Up\Microchip\TCPIP Stack\TCP.c
                 __pa_266   0x003d36    program     static D:\git\70M_Ku_Up\Microchip\TCPIP Stack\TCP.c
                 __pa_267   0x003d44    program     static D:\git\70M_Ku_Up\Microchip\TCPIP Stack\TCP.c
                 __pa_268   0x003d4a    program     static D:\git\70M_Ku_Up\Microchip\TCPIP Stack\TCP.c
                 __pa_269   0x003d58    program     static D:\git\70M_Ku_Up\Microchip\TCPIP Stack\TCP.c
                  __pa_27   0x0081e2    program     static D:\git\70M_Ku_Up\Drivers\External-Peripherals\oled_c2.c
                  __pa_27   0x00ca78    program     static D:\git\70M_Ku_Up\SysLib\util.c
                  __pa_27   0x00e50c    program     static C:\Program Files\mcc18\src\traditional\stdclib\vfprintf.c
                  __pa_27   0x009b5c    program     static D:\git\70M_Ku_Up\App\WebUI\HTTPGetDevInfo.c
                  __pa_27   0x00d9c2    program     static D:\git\70M_Ku_Up\Microchip\TCPIP Stack\Helpers.c
                  __pa_27   0x00ad06    program     static D:\git\70M_Ku_Up\Microchip\TCPIP Stack\MPFS2.c
                  __pa_27   0x005c8c    program     static D:\git\70M_Ku_Up\Microchip\TCPIP Stack\HTTP2.c
                  __pa_27   0x00fd98    program     static D:\git\70M_Ku_Up\Microchip\TCPIP Stack\ETH97J60.c
                  __pa_27   0x002fa8    program     static D:\git\70M_Ku_Up\Microchip\TCPIP Stack\TCP.c
                  __pa_27   0x00bbd0    program     static D:\git\70M_Ku_Up\App\WebUI\HTTPPrint.c
                 __pa_270   0x003d60    program     static D:\git\70M_Ku_Up\Microchip\TCPIP Stack\TCP.c
                 __pa_271   0x003d6a    program     static D:\git\70M_Ku_Up\Microchip\TCPIP Stack\TCP.c
                 __pa_272   0x003d72    program     static D:\git\70M_Ku_Up\Microchip\TCPIP Stack\TCP.c
                 __pa_273   0x003d7a    program     static D:\git\70M_Ku_Up\Microchip\TCPIP Stack\TCP.c
                 __pa_274   0x003d86    program     static D:\git\70M_Ku_Up\Microchip\TCPIP Stack\TCP.c
                 __pa_275   0x003d92    program     static D:\git\70M_Ku_Up\Microchip\TCPIP Stack\TCP.c
                 __pa_276   0x003d9e    program     static D:\git\70M_Ku_Up\Microchip\TCPIP Stack\TCP.c
                 __pa_277   0x003daa    program     static D:\git\70M_Ku_Up\Microchip\TCPIP Stack\TCP.c
                 __pa_278   0x003db6    program     static D:\git\70M_Ku_Up\Microchip\TCPIP Stack\TCP.c
                 __pa_279   0x003dbe    program     static D:\git\70M_Ku_Up\Microchip\TCPIP Stack\TCP.c
                  __pa_28   0x00bbdc    program     static D:\git\70M_Ku_Up\App\WebUI\HTTPPrint.c
                  __pa_28   0x002fb6    program     static D:\git\70M_Ku_Up\Microchip\TCPIP Stack\TCP.c
                  __pa_28   0x00ad20    program     static D:\git\70M_Ku_Up\Microchip\TCPIP Stack\MPFS2.c
                  __pa_28   0x00e514    program     static C:\Program Files\mcc18\src\traditional\stdclib\vfprintf.c
                  __pa_28   0x005c92    program     static D:\git\70M_Ku_Up\Microchip\TCPIP Stack\HTTP2.c
                  __pa_28   0x00ca82    program     static D:\git\70M_Ku_Up\SysLib\util.c
                  __pa_28   0x00d9d2    program     static D:\git\70M_Ku_Up\Microchip\TCPIP Stack\Helpers.c
                  __pa_28   0x0081ec    program     static D:\git\70M_Ku_Up\Drivers\External-Peripherals\oled_c2.c
                  __pa_28   0x009b74    program     static D:\git\70M_Ku_Up\App\WebUI\HTTPGetDevInfo.c
                  __pa_28   0x00fda8    program     static D:\git\70M_Ku_Up\Microchip\TCPIP Stack\ETH97J60.c
                 __pa_280   0x003dc6    program     static D:\git\70M_Ku_Up\Microchip\TCPIP Stack\TCP.c
                 __pa_281   0x003dce    program     static D:\git\70M_Ku_Up\Microchip\TCPIP Stack\TCP.c
                 __pa_282   0x003dd6    program     static D:\git\70M_Ku_Up\Microchip\TCPIP Stack\TCP.c
                 __pa_283   0x003de0    program     static D:\git\70M_Ku_Up\Microchip\TCPIP Stack\TCP.c
                 __pa_284   0x003de8    program     static D:\git\70M_Ku_Up\Microchip\TCPIP Stack\TCP.c
                 __pa_285   0x003df0    program     static D:\git\70M_Ku_Up\Microchip\TCPIP Stack\TCP.c
                 __pa_286   0x003df8    program     static D:\git\70M_Ku_Up\Microchip\TCPIP Stack\TCP.c
                 __pa_287   0x003e00    program     static D:\git\70M_Ku_Up\Microchip\TCPIP Stack\TCP.c
                  __pa_29   0x00d9e0    program     static D:\git\70M_Ku_Up\Microchip\TCPIP Stack\Helpers.c
                  __pa_29   0x005c9c    program     static D:\git\70M_Ku_Up\Microchip\TCPIP Stack\HTTP2.c
                  __pa_29   0x00ca96    program     static D:\git\70M_Ku_Up\SysLib\util.c
                  __pa_29   0x00fdb2    program     static D:\git\70M_Ku_Up\Microchip\TCPIP Stack\ETH97J60.c
                  __pa_29   0x009b80    program     static D:\git\70M_Ku_Up\App\WebUI\HTTPGetDevInfo.c
                  __pa_29   0x00820c    program     static D:\git\70M_Ku_Up\Drivers\External-Peripherals\oled_c2.c
                  __pa_29   0x00e522    program     static C:\Program Files\mcc18\src\traditional\stdclib\vfprintf.c
                  __pa_29   0x00ad3a    program     static D:\git\70M_Ku_Up\Microchip\TCPIP Stack\MPFS2.c
                  __pa_29   0x002fc4    program     static D:\git\70M_Ku_Up\Microchip\TCPIP Stack\TCP.c
                  __pa_29   0x00bbe2    program     static D:\git\70M_Ku_Up\App\WebUI\HTTPPrint.c
                   __pa_3   0x0157b8    program     static D:\git\70M_Ku_Up\Microchip\TCPIP Stack\UART.c
                   __pa_3   0x0152d2    program     static D:\git\70M_Ku_Up\Drivers\MCU-Internal\ISR.c
                   __pa_3   0x009934    program     static D:\git\70M_Ku_Up\App\WebUI\HTTPGetDevInfo.c
                   __pa_3   0x0150c0    program     static D:\git\70M_Ku_Up\Drivers\External-Peripherals\devadc.c
                   __pa_3   0x014ac8    program     static D:\git\70M_Ku_Up\Microchip\TCPIP Stack\SPIEEPROM.c
                   __pa_3   0x0123d6    program     static D:\git\70M_Ku_Up\App\WebUI\HTTPApp.c
                   __pa_3   0x00e35c    program     static C:\Program Files\mcc18\src\traditional\stdclib\vfprintf.c
                   __pa_3   0x010f2a    program     static D:\git\70M_Ku_Up\Devices\UpConverter_c1.c
                   __pa_3   0x00c8b6    program     static D:\git\70M_Ku_Up\SysLib\util.c
                   __pa_3   0x01449a    program     static D:\git\70M_Ku_Up\Microchip\TCPIP Stack\IP.c
                   __pa_3   0x012ed6    program     static D:\git\70M_Ku_Up\Microchip\TCPIP Stack\ARP.c
                   __pa_3   0x00fc64    program     static D:\git\70M_Ku_Up\Microchip\TCPIP Stack\ETH97J60.c
                   __pa_3   0x0156d0    program     static D:\git\70M_Ku_Up\Microchip\TCPIP Stack\Tick.c
                   __pa_3   0x00d802    program     static D:\git\70M_Ku_Up\Microchip\TCPIP Stack\Helpers.c
                   __pa_3   0x0136d8    program     static D:\git\70M_Ku_Up\Devices\MainControl_c1.c
                   __pa_3   0x007fa2    program     static D:\git\70M_Ku_Up\Drivers\External-Peripherals\oled_c2.c
                   __pa_3   0x002d98    program     static D:\git\70M_Ku_Up\Microchip\TCPIP Stack\TCP.c
                   __pa_3   0x011ca0    program     static D:\git\70M_Ku_Up\Drivers\External-Peripherals\oled_c1.c
                   __pa_3   0x013abe    program     static D:\git\70M_Ku_Up\Bootstrap\Initialization.c
                   __pa_3   0x005b3c    program     static D:\git\70M_Ku_Up\Microchip\TCPIP Stack\HTTP2.c
                   __pa_3   0x00ba84    program     static D:\git\70M_Ku_Up\App\WebUI\HTTPPrint.c
                   __pa_3   0x00ab04    program     static D:\git\70M_Ku_Up\Microchip\TCPIP Stack\MPFS2.c
                   __pa_3   0x013dc4    program     static D:\git\70M_Ku_Up\Devices\VOLDC_c1 .c
                   __pa_3   0x012a2e    program     static D:\git\70M_Ku_Up\Devices\DownConverter_c1.c
                   __pa_3   0x01478e    program     static D:\git\70M_Ku_Up\Drivers\MCU-Internal\i2c_c1.c
                  __pa_30   0x00caa2    program     static D:\git\70M_Ku_Up\SysLib\util.c
                  __pa_30   0x00fdbc    program     static D:\git\70M_Ku_Up\Microchip\TCPIP Stack\ETH97J60.c
                  __pa_30   0x00ad4a    program     static D:\git\70M_Ku_Up\Microchip\TCPIP Stack\MPFS2.c
                  __pa_30   0x00821a    program     static D:\git\70M_Ku_Up\Drivers\External-Peripherals\oled_c2.c
                  __pa_30   0x00bbf0    program     static D:\git\70M_Ku_Up\App\WebUI\HTTPPrint.c
                  __pa_30   0x00e53e    program     static C:\Program Files\mcc18\src\traditional\stdclib\vfprintf.c
                  __pa_30   0x005caa    program     static D:\git\70M_Ku_Up\Microchip\TCPIP Stack\HTTP2.c
                  __pa_30   0x002fd2    program     static D:\git\70M_Ku_Up\Microchip\TCPIP Stack\TCP.c
                  __pa_30   0x009baa    program     static D:\git\70M_Ku_Up\App\WebUI\HTTPGetDevInfo.c
                  __pa_30   0x00d9ea    program     static D:\git\70M_Ku_Up\Microchip\TCPIP Stack\Helpers.c
                  __pa_31   0x005cb4    program     static D:\git\70M_Ku_Up\Microchip\TCPIP Stack\HTTP2.c
                  __pa_31   0x002fde    program     static D:\git\70M_Ku_Up\Microchip\TCPIP Stack\TCP.c
                  __pa_31   0x00bc04    program     static D:\git\70M_Ku_Up\App\WebUI\HTTPPrint.c
                  __pa_31   0x00caaa    program     static D:\git\70M_Ku_Up\SysLib\util.c
                  __pa_31   0x00d9f2    program     static D:\git\70M_Ku_Up\Microchip\TCPIP Stack\Helpers.c
                  __pa_31   0x00fdc4    program     static D:\git\70M_Ku_Up\Microchip\TCPIP Stack\ETH97J60.c
                  __pa_31   0x008228    program     static D:\git\70M_Ku_Up\Drivers\External-Peripherals\oled_c2.c
                  __pa_31   0x009bb4    program     static D:\git\70M_Ku_Up\App\WebUI\HTTPGetDevInfo.c
                  __pa_31   0x00e558    program     static C:\Program Files\mcc18\src\traditional\stdclib\vfprintf.c
                  __pa_31   0x00ad62    program     static D:\git\70M_Ku_Up\Microchip\TCPIP Stack\MPFS2.c
                  __pa_32   0x005cc4    program     static D:\git\70M_Ku_Up\Microchip\TCPIP Stack\HTTP2.c
                  __pa_32   0x00cab6    program     static D:\git\70M_Ku_Up\SysLib\util.c
                  __pa_32   0x008236    program     static D:\git\70M_Ku_Up\Drivers\External-Peripherals\oled_c2.c
                  __pa_32   0x00e572    program     static C:\Program Files\mcc18\src\traditional\stdclib\vfprintf.c
                  __pa_32   0x002fe6    program     static D:\git\70M_Ku_Up\Microchip\TCPIP Stack\TCP.c
                  __pa_32   0x00ad74    program     static D:\git\70M_Ku_Up\Microchip\TCPIP Stack\MPFS2.c
                  __pa_32   0x00bc16    program     static D:\git\70M_Ku_Up\App\WebUI\HTTPPrint.c
                  __pa_32   0x009bc4    program     static D:\git\70M_Ku_Up\App\WebUI\HTTPGetDevInfo.c
                  __pa_33   0x00ad8a    program     static D:\git\70M_Ku_Up\Microchip\TCPIP Stack\MPFS2.c
                  __pa_33   0x00cac0    program     static D:\git\70M_Ku_Up\SysLib\util.c
                  __pa_33   0x005cd2    program     static D:\git\70M_Ku_Up\Microchip\TCPIP Stack\HTTP2.c
                  __pa_33   0x009bca    program     static D:\git\70M_Ku_Up\App\WebUI\HTTPGetDevInfo.c
                  __pa_33   0x003010    program     static D:\git\70M_Ku_Up\Microchip\TCPIP Stack\TCP.c
                  __pa_33   0x00bc28    program     static D:\git\70M_Ku_Up\App\WebUI\HTTPPrint.c
                  __pa_33   0x00e58a    program     static C:\Program Files\mcc18\src\traditional\stdclib\vfprintf.c
                  __pa_33   0x008244    program     static D:\git\70M_Ku_Up\Drivers\External-Peripherals\oled_c2.c
                  __pa_34   0x00cad0    program     static D:\git\70M_Ku_Up\SysLib\util.c
                  __pa_34   0x009bd0    program     static D:\git\70M_Ku_Up\App\WebUI\HTTPGetDevInfo.c
                  __pa_34   0x00e594    program     static C:\Program Files\mcc18\src\traditional\stdclib\vfprintf.c
                  __pa_34   0x00825a    program     static D:\git\70M_Ku_Up\Drivers\External-Peripherals\oled_c2.c
                  __pa_34   0x005ce6    program     static D:\git\70M_Ku_Up\Microchip\TCPIP Stack\HTTP2.c
                  __pa_34   0x00bc3a    program     static D:\git\70M_Ku_Up\App\WebUI\HTTPPrint.c
                  __pa_34   0x003024    program     static D:\git\70M_Ku_Up\Microchip\TCPIP Stack\TCP.c
                  __pa_34   0x00ad98    program     static D:\git\70M_Ku_Up\Microchip\TCPIP Stack\MPFS2.c
                  __pa_35   0x00bc4c    program     static D:\git\70M_Ku_Up\App\WebUI\HTTPPrint.c
                  __pa_35   0x00826e    program     static D:\git\70M_Ku_Up\Drivers\External-Peripherals\oled_c2.c
                  __pa_35   0x005cf6    program     static D:\git\70M_Ku_Up\Microchip\TCPIP Stack\HTTP2.c
                  __pa_35   0x003040    program     static D:\git\70M_Ku_Up\Microchip\TCPIP Stack\TCP.c
                  __pa_35   0x00e5a2    program     static C:\Program Files\mcc18\src\traditional\stdclib\vfprintf.c
                  __pa_35   0x009bda    program     static D:\git\70M_Ku_Up\App\WebUI\HTTPGetDevInfo.c
                  __pa_35   0x00ada6    program     static D:\git\70M_Ku_Up\Microchip\TCPIP Stack\MPFS2.c
                  __pa_35   0x00cade    program     static D:\git\70M_Ku_Up\SysLib\util.c
                  __pa_36   0x005d0a    program     static D:\git\70M_Ku_Up\Microchip\TCPIP Stack\HTTP2.c
                  __pa_36   0x009be8    program     static D:\git\70M_Ku_Up\App\WebUI\HTTPGetDevInfo.c
                  __pa_36   0x00caec    program     static D:\git\70M_Ku_Up\SysLib\util.c
                  __pa_36   0x00e5aa    program     static C:\Program Files\mcc18\src\traditional\stdclib\vfprintf.c
                  __pa_36   0x00827c    program     static D:\git\70M_Ku_Up\Drivers\External-Peripherals\oled_c2.c
                  __pa_36   0x00bc58    program     static D:\git\70M_Ku_Up\App\WebUI\HTTPPrint.c
                  __pa_36   0x00305a    program     static D:\git\70M_Ku_Up\Microchip\TCPIP Stack\TCP.c
                  __pa_36   0x00adb4    program     static D:\git\70M_Ku_Up\Microchip\TCPIP Stack\MPFS2.c
                  __pa_37   0x00e5b4    program     static C:\Program Files\mcc18\src\traditional\stdclib\vfprintf.c
                  __pa_37   0x00bc62    program     static D:\git\70M_Ku_Up\App\WebUI\HTTPPrint.c
                  __pa_37   0x005d1a    program     static D:\git\70M_Ku_Up\Microchip\TCPIP Stack\HTTP2.c
                  __pa_37   0x00cafa    program     static D:\git\70M_Ku_Up\SysLib\util.c
                  __pa_37   0x008294    program     static D:\git\70M_Ku_Up\Drivers\External-Peripherals\oled_c2.c
                  __pa_37   0x00adbe    program     static D:\git\70M_Ku_Up\Microchip\TCPIP Stack\MPFS2.c
                  __pa_37   0x009bf0    program     static D:\git\70M_Ku_Up\App\WebUI\HTTPGetDevInfo.c
                  __pa_37   0x003062    program     static D:\git\70M_Ku_Up\Microchip\TCPIP Stack\TCP.c
                  __pa_38   0x00cb04    program     static D:\git\70M_Ku_Up\SysLib\util.c
                  __pa_38   0x00e5c4    program     static C:\Program Files\mcc18\src\traditional\stdclib\vfprintf.c
                  __pa_38   0x0082a0    program     static D:\git\70M_Ku_Up\Drivers\External-Peripherals\oled_c2.c
                  __pa_38   0x00add0    program     static D:\git\70M_Ku_Up\Microchip\TCPIP Stack\MPFS2.c
                  __pa_38   0x009c02    program     static D:\git\70M_Ku_Up\App\WebUI\HTTPGetDevInfo.c
                  __pa_38   0x00bc68    program     static D:\git\70M_Ku_Up\App\WebUI\HTTPPrint.c
                  __pa_38   0x003072    program     static D:\git\70M_Ku_Up\Microchip\TCPIP Stack\TCP.c
                  __pa_38   0x005d28    program     static D:\git\70M_Ku_Up\Microchip\TCPIP Stack\HTTP2.c
                  __pa_39   0x00adde    program     static D:\git\70M_Ku_Up\Microchip\TCPIP Stack\MPFS2.c
                  __pa_39   0x009c12    program     static D:\git\70M_Ku_Up\App\WebUI\HTTPGetDevInfo.c
                  __pa_39   0x00cb0e    program     static D:\git\70M_Ku_Up\SysLib\util.c
                  __pa_39   0x005d30    program     static D:\git\70M_Ku_Up\Microchip\TCPIP Stack\HTTP2.c
                  __pa_39   0x0082a8    program     static D:\git\70M_Ku_Up\Drivers\External-Peripherals\oled_c2.c
                  __pa_39   0x00bc78    program     static D:\git\70M_Ku_Up\App\WebUI\HTTPPrint.c
                  __pa_39   0x00e5d2    program     static C:\Program Files\mcc18\src\traditional\stdclib\vfprintf.c
                  __pa_39   0x003082    program     static D:\git\70M_Ku_Up\Microchip\TCPIP Stack\TCP.c
                   __pa_4   0x009946    program     static D:\git\70M_Ku_Up\App\WebUI\HTTPGetDevInfo.c
                   __pa_4   0x0150da    program     static D:\git\70M_Ku_Up\Drivers\External-Peripherals\devadc.c
                   __pa_4   0x012eea    program     static D:\git\70M_Ku_Up\Microchip\TCPIP Stack\ARP.c
                   __pa_4   0x013ae8    program     static D:\git\70M_Ku_Up\Bootstrap\Initialization.c
                   __pa_4   0x00c8c2    program     static D:\git\70M_Ku_Up\SysLib\util.c
                   __pa_4   0x00fc7c    program     static D:\git\70M_Ku_Up\Microchip\TCPIP Stack\ETH97J60.c
                   __pa_4   0x010f32    program     static D:\git\70M_Ku_Up\Devices\UpConverter_c1.c
                   __pa_4   0x011ca4    program     static D:\git\70M_Ku_Up\Drivers\External-Peripherals\oled_c1.c
                   __pa_4   0x014ad8    program     static D:\git\70M_Ku_Up\Microchip\TCPIP Stack\SPIEEPROM.c
                   __pa_4   0x0136e4    program     static D:\git\70M_Ku_Up\Devices\MainControl_c1.c
                   __pa_4   0x0123f4    program     static D:\git\70M_Ku_Up\App\WebUI\HTTPApp.c
                   __pa_4   0x00e374    program     static C:\Program Files\mcc18\src\traditional\stdclib\vfprintf.c
                   __pa_4   0x005b58    program     static D:\git\70M_Ku_Up\Microchip\TCPIP Stack\HTTP2.c
                   __pa_4   0x0144a0    program     static D:\git\70M_Ku_Up\Microchip\TCPIP Stack\IP.c
                   __pa_4   0x00d824    program     static D:\git\70M_Ku_Up\Microchip\TCPIP Stack\Helpers.c
                   __pa_4   0x013dd0    program     static D:\git\70M_Ku_Up\Devices\VOLDC_c1 .c
                   __pa_4   0x007fea    program     static D:\git\70M_Ku_Up\Drivers\External-Peripherals\oled_c2.c
                   __pa_4   0x002da4    program     static D:\git\70M_Ku_Up\Microchip\TCPIP Stack\TCP.c
                   __pa_4   0x00ab10    program     static D:\git\70M_Ku_Up\Microchip\TCPIP Stack\MPFS2.c
                   __pa_4   0x012a3a    program     static D:\git\70M_Ku_Up\Devices\DownConverter_c1.c
                   __pa_4   0x0147a8    program     static D:\git\70M_Ku_Up\Drivers\MCU-Internal\i2c_c1.c
                   __pa_4   0x00ba90    program     static D:\git\70M_Ku_Up\App\WebUI\HTTPPrint.c
                  __pa_40   0x009c2e    program     static D:\git\70M_Ku_Up\App\WebUI\HTTPGetDevInfo.c
                  __pa_40   0x00adec    program     static D:\git\70M_Ku_Up\Microchip\TCPIP Stack\MPFS2.c
                  __pa_40   0x00cb18    program     static D:\git\70M_Ku_Up\SysLib\util.c
                  __pa_40   0x005d3e    program     static D:\git\70M_Ku_Up\Microchip\TCPIP Stack\HTTP2.c
                  __pa_40   0x003090    program     static D:\git\70M_Ku_Up\Microchip\TCPIP Stack\TCP.c
                  __pa_40   0x00bc88    program     static D:\git\70M_Ku_Up\App\WebUI\HTTPPrint.c
                  __pa_40   0x0082b4    program     static D:\git\70M_Ku_Up\Drivers\External-Peripherals\oled_c2.c
                  __pa_40   0x00e5de    program     static C:\Program Files\mcc18\src\traditional\stdclib\vfprintf.c
                  __pa_41   0x00cb22    program     static D:\git\70M_Ku_Up\SysLib\util.c
                  __pa_41   0x00adf6    program     static D:\git\70M_Ku_Up\Microchip\TCPIP Stack\MPFS2.c
                  __pa_41   0x0030ac    program     static D:\git\70M_Ku_Up\Microchip\TCPIP Stack\TCP.c
                  __pa_41   0x005d4a    program     static D:\git\70M_Ku_Up\Microchip\TCPIP Stack\HTTP2.c
                  __pa_41   0x0082c2    program     static D:\git\70M_Ku_Up\Drivers\External-Peripherals\oled_c2.c
                  __pa_41   0x00e5ea    program     static C:\Program Files\mcc18\src\traditional\stdclib\vfprintf.c
                  __pa_41   0x009c46    program     static D:\git\70M_Ku_Up\App\WebUI\HTTPGetDevInfo.c
                  __pa_41   0x00bc98    program     static D:\git\70M_Ku_Up\App\WebUI\HTTPPrint.c
                  __pa_42   0x0082ca    program     static D:\git\70M_Ku_Up\Drivers\External-Peripherals\oled_c2.c
                  __pa_42   0x005d56    program     static D:\git\70M_Ku_Up\Microchip\TCPIP Stack\HTTP2.c
                  __pa_42   0x0030b4    program     static D:\git\70M_Ku_Up\Microchip\TCPIP Stack\TCP.c
                  __pa_42   0x009c4e    program     static D:\git\70M_Ku_Up\App\WebUI\HTTPGetDevInfo.c
                  __pa_42   0x00e5f2    program     static C:\Program Files\mcc18\src\traditional\stdclib\vfprintf.c
                  __pa_42   0x00bca8    program     static D:\git\70M_Ku_Up\App\WebUI\HTTPPrint.c
                  __pa_42   0x00ae00    program     static D:\git\70M_Ku_Up\Microchip\TCPIP Stack\MPFS2.c
                  __pa_42   0x00cb46    program     static D:\git\70M_Ku_Up\SysLib\util.c
                  __pa_43   0x00e5fc    program     static C:\Program Files\mcc18\src\traditional\stdclib\vfprintf.c
                  __pa_43   0x00cb4e    program     static D:\git\70M_Ku_Up\SysLib\util.c
                  __pa_43   0x0082d2    program     static D:\git\70M_Ku_Up\Drivers\External-Peripherals\oled_c2.c
                  __pa_43   0x0030cc    program     static D:\git\70M_Ku_Up\Microchip\TCPIP Stack\TCP.c
                  __pa_43   0x00ae12    program     static D:\git\70M_Ku_Up\Microchip\TCPIP Stack\MPFS2.c
                  __pa_43   0x005d60    program     static D:\git\70M_Ku_Up\Microchip\TCPIP Stack\HTTP2.c
                  __pa_43   0x009c5c    program     static D:\git\70M_Ku_Up\App\WebUI\HTTPGetDevInfo.c
                  __pa_43   0x00bcb6    program     static D:\git\70M_Ku_Up\App\WebUI\HTTPPrint.c
                  __pa_44   0x0082e4    program     static D:\git\70M_Ku_Up\Drivers\External-Peripherals\oled_c2.c
                  __pa_44   0x0030de    program     static D:\git\70M_Ku_Up\Microchip\TCPIP Stack\TCP.c
                  __pa_44   0x00e602    program     static C:\Program Files\mcc18\src\traditional\stdclib\vfprintf.c
                  __pa_44   0x00bcca    program     static D:\git\70M_Ku_Up\App\WebUI\HTTPPrint.c
                  __pa_44   0x00cb54    program     static D:\git\70M_Ku_Up\SysLib\util.c
                  __pa_44   0x009c6a    program     static D:\git\70M_Ku_Up\App\WebUI\HTTPGetDevInfo.c
                  __pa_44   0x005d68    program     static D:\git\70M_Ku_Up\Microchip\TCPIP Stack\HTTP2.c
                  __pa_44   0x00ae3a    program     static D:\git\70M_Ku_Up\Microchip\TCPIP Stack\MPFS2.c
                  __pa_45   0x00bcd8    program     static D:\git\70M_Ku_Up\App\WebUI\HTTPPrint.c
                  __pa_45   0x0082f6    program     static D:\git\70M_Ku_Up\Drivers\External-Peripherals\oled_c2.c
                  __pa_45   0x005d78    program     static D:\git\70M_Ku_Up\Microchip\TCPIP Stack\HTTP2.c
                  __pa_45   0x0030e8    program     static D:\git\70M_Ku_Up\Microchip\TCPIP Stack\TCP.c
                  __pa_45   0x00cb66    program     static D:\git\70M_Ku_Up\SysLib\util.c
                  __pa_45   0x00e60c    program     static C:\Program Files\mcc18\src\traditional\stdclib\vfprintf.c
                  __pa_45   0x009c78    program     static D:\git\70M_Ku_Up\App\WebUI\HTTPGetDevInfo.c
                  __pa_45   0x00ae44    program     static D:\git\70M_Ku_Up\Microchip\TCPIP Stack\MPFS2.c
                  __pa_46   0x005d88    program     static D:\git\70M_Ku_Up\Microchip\TCPIP Stack\HTTP2.c
                  __pa_46   0x00e618    program     static C:\Program Files\mcc18\src\traditional\stdclib\vfprintf.c
                  __pa_46   0x0030fa    program     static D:\git\70M_Ku_Up\Microchip\TCPIP Stack\TCP.c
                  __pa_46   0x008300    program     static D:\git\70M_Ku_Up\Drivers\External-Peripherals\oled_c2.c
                  __pa_46   0x00cb74    program     static D:\git\70M_Ku_Up\SysLib\util.c
                  __pa_46   0x00bcdc    program     static D:\git\70M_Ku_Up\App\WebUI\HTTPPrint.c
                  __pa_46   0x009c8e    program     static D:\git\70M_Ku_Up\App\WebUI\HTTPGetDevInfo.c
                  __pa_46   0x00ae5e    program     static D:\git\70M_Ku_Up\Microchip\TCPIP Stack\MPFS2.c
                  __pa_47   0x00cb82    program     static D:\git\70M_Ku_Up\SysLib\util.c
                  __pa_47   0x00830a    program     static D:\git\70M_Ku_Up\Drivers\External-Peripherals\oled_c2.c
                  __pa_47   0x003120    program     static D:\git\70M_Ku_Up\Microchip\TCPIP Stack\TCP.c
                  __pa_47   0x005d98    program     static D:\git\70M_Ku_Up\Microchip\TCPIP Stack\HTTP2.c
                  __pa_47   0x00ae66    program     static D:\git\70M_Ku_Up\Microchip\TCPIP Stack\MPFS2.c
                  __pa_47   0x009c98    program     static D:\git\70M_Ku_Up\App\WebUI\HTTPGetDevInfo.c
                  __pa_47   0x00bce0    program     static D:\git\70M_Ku_Up\App\WebUI\HTTPPrint.c
                  __pa_48   0x005da8    program     static D:\git\70M_Ku_Up\Microchip\TCPIP Stack\HTTP2.c
                  __pa_48   0x00cb8c    program     static D:\git\70M_Ku_Up\SysLib\util.c
                  __pa_48   0x008312    program     static D:\git\70M_Ku_Up\Drivers\External-Peripherals\oled_c2.c
                  __pa_48   0x00313e    program     static D:\git\70M_Ku_Up\Microchip\TCPIP Stack\TCP.c
                  __pa_48   0x00ae76    program     static D:\git\70M_Ku_Up\Microchip\TCPIP Stack\MPFS2.c
                  __pa_48   0x009ca4    program     static D:\git\70M_Ku_Up\App\WebUI\HTTPGetDevInfo.c
                  __pa_48   0x00bce4    program     static D:\git\70M_Ku_Up\App\WebUI\HTTPPrint.c
                  __pa_49   0x005dae    program     static D:\git\70M_Ku_Up\Microchip\TCPIP Stack\HTTP2.c
                  __pa_49   0x00315e    program     static D:\git\70M_Ku_Up\Microchip\TCPIP Stack\TCP.c
                  __pa_49   0x00bcec    program     static D:\git\70M_Ku_Up\App\WebUI\HTTPPrint.c
                  __pa_49   0x009cb0    program     static D:\git\70M_Ku_Up\App\WebUI\HTTPGetDevInfo.c
                  __pa_49   0x00ae8e    program     static D:\git\70M_Ku_Up\Microchip\TCPIP Stack\MPFS2.c
                  __pa_49   0x008320    program     static D:\git\70M_Ku_Up\Drivers\External-Peripherals\oled_c2.c
                  __pa_49   0x00cb9e    program     static D:\git\70M_Ku_Up\SysLib\util.c
                   __pa_5   0x00baa0    program     static D:\git\70M_Ku_Up\App\WebUI\HTTPPrint.c
                   __pa_5   0x013af6    program     static D:\git\70M_Ku_Up\Bootstrap\Initialization.c
                   __pa_5   0x00e388    program     static C:\Program Files\mcc18\src\traditional\stdclib\vfprintf.c
                   __pa_5   0x008026    program     static D:\git\70M_Ku_Up\Drivers\External-Peripherals\oled_c2.c
                   __pa_5   0x00994c    program     static D:\git\70M_Ku_Up\App\WebUI\HTTPGetDevInfo.c
                   __pa_5   0x002dae    program     static D:\git\70M_Ku_Up\Microchip\TCPIP Stack\TCP.c
                   __pa_5   0x0144b6    program     static D:\git\70M_Ku_Up\Microchip\TCPIP Stack\IP.c
                   __pa_5   0x00fc86    program     static D:\git\70M_Ku_Up\Microchip\TCPIP Stack\ETH97J60.c
                   __pa_5   0x00d832    program     static D:\git\70M_Ku_Up\Microchip\TCPIP Stack\Helpers.c
                   __pa_5   0x0136f0    program     static D:\git\70M_Ku_Up\Devices\MainControl_c1.c
                   __pa_5   0x0150e8    program     static D:\git\70M_Ku_Up\Drivers\External-Peripherals\devadc.c
                   __pa_5   0x014ae2    program     static D:\git\70M_Ku_Up\Microchip\TCPIP Stack\SPIEEPROM.c
                   __pa_5   0x010f3e    program     static D:\git\70M_Ku_Up\Devices\UpConverter_c1.c
                   __pa_5   0x00ab22    program     static D:\git\70M_Ku_Up\Microchip\TCPIP Stack\MPFS2.c
                   __pa_5   0x013ddc    program     static D:\git\70M_Ku_Up\Devices\VOLDC_c1 .c
                   __pa_5   0x005b64    program     static D:\git\70M_Ku_Up\Microchip\TCPIP Stack\HTTP2.c
                   __pa_5   0x00c8dc    program     static D:\git\70M_Ku_Up\SysLib\util.c
                   __pa_5   0x0147b4    program     static D:\git\70M_Ku_Up\Drivers\MCU-Internal\i2c_c1.c
                   __pa_5   0x012ef4    program     static D:\git\70M_Ku_Up\Microchip\TCPIP Stack\ARP.c
                   __pa_5   0x012400    program     static D:\git\70M_Ku_Up\App\WebUI\HTTPApp.c
                   __pa_5   0x012a50    program     static D:\git\70M_Ku_Up\Devices\DownConverter_c1.c
                   __pa_5   0x011cb0    program     static D:\git\70M_Ku_Up\Drivers\External-Peripherals\oled_c1.c
                  __pa_50   0x00832e    program     static D:\git\70M_Ku_Up\Drivers\External-Peripherals\oled_c2.c
                  __pa_50   0x00ae9c    program     static D:\git\70M_Ku_Up\Microchip\TCPIP Stack\MPFS2.c
                  __pa_50   0x003174    program     static D:\git\70M_Ku_Up\Microchip\TCPIP Stack\TCP.c
                  __pa_50   0x009cbc    program     static D:\git\70M_Ku_Up\App\WebUI\HTTPGetDevInfo.c
                  __pa_50   0x005dba    program     static D:\git\70M_Ku_Up\Microchip\TCPIP Stack\HTTP2.c
                  __pa_50   0x00bcfe    program     static D:\git\70M_Ku_Up\App\WebUI\HTTPPrint.c
                  __pa_50   0x00cba6    program     static D:\git\70M_Ku_Up\SysLib\util.c
                  __pa_51   0x00cbb0    program     static D:\git\70M_Ku_Up\SysLib\util.c
                  __pa_51   0x00833c    program     static D:\git\70M_Ku_Up\Drivers\External-Peripherals\oled_c2.c
                  __pa_51   0x009cc8    program     static D:\git\70M_Ku_Up\App\WebUI\HTTPGetDevInfo.c
                  __pa_51   0x00bd04    program     static D:\git\70M_Ku_Up\App\WebUI\HTTPPrint.c
                  __pa_51   0x005dc6    program     static D:\git\70M_Ku_Up\Microchip\TCPIP Stack\HTTP2.c
                  __pa_51   0x00aea2    program     static D:\git\70M_Ku_Up\Microchip\TCPIP Stack\MPFS2.c
                  __pa_51   0x00318a    program     static D:\git\70M_Ku_Up\Microchip\TCPIP Stack\TCP.c
                  __pa_52   0x005dd6    program     static D:\git\70M_Ku_Up\Microchip\TCPIP Stack\HTTP2.c
                  __pa_52   0x00aebe    program     static D:\git\70M_Ku_Up\Microchip\TCPIP Stack\MPFS2.c
                  __pa_52   0x00834a    program     static D:\git\70M_Ku_Up\Drivers\External-Peripherals\oled_c2.c
                  __pa_52   0x00cbb6    program     static D:\git\70M_Ku_Up\SysLib\util.c
                  __pa_52   0x009cd0    program     static D:\git\70M_Ku_Up\App\WebUI\HTTPGetDevInfo.c
                  __pa_52   0x00bd0e    program     static D:\git\70M_Ku_Up\App\WebUI\HTTPPrint.c
                  __pa_52   0x003196    program     static D:\git\70M_Ku_Up\Microchip\TCPIP Stack\TCP.c
                  __pa_53   0x005de6    program     static D:\git\70M_Ku_Up\Microchip\TCPIP Stack\HTTP2.c
                  __pa_53   0x00bd1c    program     static D:\git\70M_Ku_Up\App\WebUI\HTTPPrint.c
                  __pa_53   0x00837a    program     static D:\git\70M_Ku_Up\Drivers\External-Peripherals\oled_c2.c
                  __pa_53   0x00aece    program     static D:\git\70M_Ku_Up\Microchip\TCPIP Stack\MPFS2.c
                  __pa_53   0x0031a4    program     static D:\git\70M_Ku_Up\Microchip\TCPIP Stack\TCP.c
                  __pa_53   0x009ce0    program     static D:\git\70M_Ku_Up\App\WebUI\HTTPGetDevInfo.c
                  __pa_53   0x00cbc4    program     static D:\git\70M_Ku_Up\SysLib\util.c
                  __pa_54   0x005dfc    program     static D:\git\70M_Ku_Up\Microchip\TCPIP Stack\HTTP2.c
                  __pa_54   0x008394    program     static D:\git\70M_Ku_Up\Drivers\External-Peripherals\oled_c2.c
                  __pa_54   0x00aee6    program     static D:\git\70M_Ku_Up\Microchip\TCPIP Stack\MPFS2.c
                  __pa_54   0x0031ac    program     static D:\git\70M_Ku_Up\Microchip\TCPIP Stack\TCP.c
                  __pa_54   0x009cea    program     static D:\git\70M_Ku_Up\App\WebUI\HTTPGetDevInfo.c
                  __pa_54   0x00cbd2    program     static D:\git\70M_Ku_Up\SysLib\util.c
                  __pa_54   0x00bd2a    program     static D:\git\70M_Ku_Up\App\WebUI\HTTPPrint.c
                  __pa_55   0x00839a    program     static D:\git\70M_Ku_Up\Drivers\External-Peripherals\oled_c2.c
                  __pa_55   0x00cbde    program     static D:\git\70M_Ku_Up\SysLib\util.c
                  __pa_55   0x00bd3a    program     static D:\git\70M_Ku_Up\App\WebUI\HTTPPrint.c
                  __pa_55   0x005e08    program     static D:\git\70M_Ku_Up\Microchip\TCPIP Stack\HTTP2.c
                  __pa_55   0x009cfa    program     static D:\git\70M_Ku_Up\App\WebUI\HTTPGetDevInfo.c
                  __pa_55   0x0031ba    program     static D:\git\70M_Ku_Up\Microchip\TCPIP Stack\TCP.c
                  __pa_55   0x00aef4    program     static D:\git\70M_Ku_Up\Microchip\TCPIP Stack\MPFS2.c
                  __pa_56   0x00cbe8    program     static D:\git\70M_Ku_Up\SysLib\util.c
                  __pa_56   0x009d08    program     static D:\git\70M_Ku_Up\App\WebUI\HTTPGetDevInfo.c
                  __pa_56   0x0031c8    program     static D:\git\70M_Ku_Up\Microchip\TCPIP Stack\TCP.c
                  __pa_56   0x00af08    program     static D:\git\70M_Ku_Up\Microchip\TCPIP Stack\MPFS2.c
                  __pa_56   0x00bd40    program     static D:\git\70M_Ku_Up\App\WebUI\HTTPPrint.c
                  __pa_56   0x005e16    program     static D:\git\70M_Ku_Up\Microchip\TCPIP Stack\HTTP2.c
                  __pa_56   0x0083a0    program     static D:\git\70M_Ku_Up\Drivers\External-Peripherals\oled_c2.c
                  __pa_57   0x00cbee    program     static D:\git\70M_Ku_Up\SysLib\util.c
                  __pa_57   0x009d12    program     static D:\git\70M_Ku_Up\App\WebUI\HTTPGetDevInfo.c
                  __pa_57   0x00bd50    program     static D:\git\70M_Ku_Up\App\WebUI\HTTPPrint.c
                  __pa_57   0x0031d2    program     static D:\git\70M_Ku_Up\Microchip\TCPIP Stack\TCP.c
                  __pa_57   0x0083a6    program     static D:\git\70M_Ku_Up\Drivers\External-Peripherals\oled_c2.c
                  __pa_57   0x00af16    program     static D:\git\70M_Ku_Up\Microchip\TCPIP Stack\MPFS2.c
                  __pa_57   0x005e24    program     static D:\git\70M_Ku_Up\Microchip\TCPIP Stack\HTTP2.c
                  __pa_58   0x0083ac    program     static D:\git\70M_Ku_Up\Drivers\External-Peripherals\oled_c2.c
                  __pa_58   0x00bd5e    program     static D:\git\70M_Ku_Up\App\WebUI\HTTPPrint.c
                  __pa_58   0x00af28    program     static D:\git\70M_Ku_Up\Microchip\TCPIP Stack\MPFS2.c
                  __pa_58   0x009d26    program     static D:\git\70M_Ku_Up\App\WebUI\HTTPGetDevInfo.c
                  __pa_58   0x005e34    program     static D:\git\70M_Ku_Up\Microchip\TCPIP Stack\HTTP2.c
                  __pa_58   0x0031f0    program     static D:\git\70M_Ku_Up\Microchip\TCPIP Stack\TCP.c
                  __pa_58   0x00cbf6    program     static D:\git\70M_Ku_Up\SysLib\util.c
                  __pa_59   0x005e42    program     static D:\git\70M_Ku_Up\Microchip\TCPIP Stack\HTTP2.c
                  __pa_59   0x003214    program     static D:\git\70M_Ku_Up\Microchip\TCPIP Stack\TCP.c
                  __pa_59   0x0083ba    program     static D:\git\70M_Ku_Up\Drivers\External-Peripherals\oled_c2.c
                  __pa_59   0x009d3a    program     static D:\git\70M_Ku_Up\App\WebUI\HTTPGetDevInfo.c
                  __pa_59   0x00cc00    program     static D:\git\70M_Ku_Up\SysLib\util.c
                  __pa_59   0x00af32    program     static D:\git\70M_Ku_Up\Microchip\TCPIP Stack\MPFS2.c
                  __pa_59   0x00bd6c    program     static D:\git\70M_Ku_Up\App\WebUI\HTTPPrint.c
                   __pa_6   0x00c8e6    program     static D:\git\70M_Ku_Up\SysLib\util.c
                   __pa_6   0x00d858    program     static D:\git\70M_Ku_Up\Microchip\TCPIP Stack\Helpers.c
                   __pa_6   0x002e42    program     static D:\git\70M_Ku_Up\Microchip\TCPIP Stack\TCP.c
                   __pa_6   0x012410    program     static D:\git\70M_Ku_Up\App\WebUI\HTTPApp.c
                   __pa_6   0x00805e    program     static D:\git\70M_Ku_Up\Drivers\External-Peripherals\oled_c2.c
                   __pa_6   0x012f04    program     static D:\git\70M_Ku_Up\Microchip\TCPIP Stack\ARP.c
                   __pa_6   0x011cf2    program     static D:\git\70M_Ku_Up\Drivers\External-Peripherals\oled_c1.c
                   __pa_6   0x0147c0    program     static D:\git\70M_Ku_Up\Drivers\MCU-Internal\i2c_c1.c
                   __pa_6   0x013de6    program     static D:\git\70M_Ku_Up\Devices\VOLDC_c1 .c
                   __pa_6   0x013b04    program     static D:\git\70M_Ku_Up\Bootstrap\Initialization.c
                   __pa_6   0x00e3a4    program     static C:\Program Files\mcc18\src\traditional\stdclib\vfprintf.c
                   __pa_6   0x00ab44    program     static D:\git\70M_Ku_Up\Microchip\TCPIP Stack\MPFS2.c
                   __pa_6   0x010f54    program     static D:\git\70M_Ku_Up\Devices\UpConverter_c1.c
                   __pa_6   0x00fc8a    program     static D:\git\70M_Ku_Up\Microchip\TCPIP Stack\ETH97J60.c
                   __pa_6   0x0144c0    program     static D:\git\70M_Ku_Up\Microchip\TCPIP Stack\IP.c
                   __pa_6   0x014af4    program     static D:\git\70M_Ku_Up\Microchip\TCPIP Stack\SPIEEPROM.c
                   __pa_6   0x012a60    program     static D:\git\70M_Ku_Up\Devices\DownConverter_c1.c
                   __pa_6   0x005b8c    program     static D:\git\70M_Ku_Up\Microchip\TCPIP Stack\HTTP2.c
                   __pa_6   0x0150fa    program     static D:\git\70M_Ku_Up\Drivers\External-Peripherals\devadc.c
                   __pa_6   0x009954    program     static D:\git\70M_Ku_Up\App\WebUI\HTTPGetDevInfo.c
                   __pa_6   0x00bab0    program     static D:\git\70M_Ku_Up\App\WebUI\HTTPPrint.c
                   __pa_6   0x0136fc    program     static D:\git\70M_Ku_Up\Devices\MainControl_c1.c
                  __pa_60   0x005e56    program     static D:\git\70M_Ku_Up\Microchip\TCPIP Stack\HTTP2.c
                  __pa_60   0x0083ce    program     static D:\git\70M_Ku_Up\Drivers\External-Peripherals\oled_c2.c
                  __pa_60   0x009d4e    program     static D:\git\70M_Ku_Up\App\WebUI\HTTPGetDevInfo.c
                  __pa_60   0x00af3e    program     static D:\git\70M_Ku_Up\Microchip\TCPIP Stack\MPFS2.c
                  __pa_60   0x00bd74    program     static D:\git\70M_Ku_Up\App\WebUI\HTTPPrint.c
                  __pa_60   0x003224    program     static D:\git\70M_Ku_Up\Microchip\TCPIP Stack\TCP.c
                  __pa_60   0x00cc0a    program     static D:\git\70M_Ku_Up\SysLib\util.c
                  __pa_61   0x005e5e    program     static D:\git\70M_Ku_Up\Microchip\TCPIP Stack\HTTP2.c
                  __pa_61   0x009d56    program     static D:\git\70M_Ku_Up\App\WebUI\HTTPGetDevInfo.c
                  __pa_61   0x00af4c    program     static D:\git\70M_Ku_Up\Microchip\TCPIP Stack\MPFS2.c
                  __pa_61   0x0083e2    program     static D:\git\70M_Ku_Up\Drivers\External-Peripherals\oled_c2.c
                  __pa_61   0x00cc14    program     static D:\git\70M_Ku_Up\SysLib\util.c
                  __pa_61   0x00bd7a    program     static D:\git\70M_Ku_Up\App\WebUI\HTTPPrint.c
                  __pa_61   0x00322e    program     static D:\git\70M_Ku_Up\Microchip\TCPIP Stack\TCP.c
                  __pa_62   0x009d5e    program     static D:\git\70M_Ku_Up\App\WebUI\HTTPGetDevInfo.c
                  __pa_62   0x003238    program     static D:\git\70M_Ku_Up\Microchip\TCPIP Stack\TCP.c
                  __pa_62   0x0083f6    program     static D:\git\70M_Ku_Up\Drivers\External-Peripherals\oled_c2.c
                  __pa_62   0x00bd8a    program     static D:\git\70M_Ku_Up\App\WebUI\HTTPPrint.c
                  __pa_62   0x00cc32    program     static D:\git\70M_Ku_Up\SysLib\util.c
                  __pa_62   0x00af5a    program     static D:\git\70M_Ku_Up\Microchip\TCPIP Stack\MPFS2.c
                  __pa_62   0x005e70    program     static D:\git\70M_Ku_Up\Microchip\TCPIP Stack\HTTP2.c
                  __pa_63   0x00bd9a    program     static D:\git\70M_Ku_Up\App\WebUI\HTTPPrint.c
                  __pa_63   0x00cc50    program     static D:\git\70M_Ku_Up\SysLib\util.c
                  __pa_63   0x003258    program     static D:\git\70M_Ku_Up\Microchip\TCPIP Stack\TCP.c
                  __pa_63   0x00af62    program     static D:\git\70M_Ku_Up\Microchip\TCPIP Stack\MPFS2.c
                  __pa_63   0x009d70    program     static D:\git\70M_Ku_Up\App\WebUI\HTTPGetDevInfo.c
                  __pa_63   0x005e7c    program     static D:\git\70M_Ku_Up\Microchip\TCPIP Stack\HTTP2.c
                  __pa_63   0x008400    program     static D:\git\70M_Ku_Up\Drivers\External-Peripherals\oled_c2.c
                  __pa_64   0x00af6c    program     static D:\git\70M_Ku_Up\Microchip\TCPIP Stack\MPFS2.c
                  __pa_64   0x005e8e    program     static D:\git\70M_Ku_Up\Microchip\TCPIP Stack\HTTP2.c
                  __pa_64   0x00bda4    program     static D:\git\70M_Ku_Up\App\WebUI\HTTPPrint.c
                  __pa_64   0x00326e    program     static D:\git\70M_Ku_Up\Microchip\TCPIP Stack\TCP.c
                  __pa_64   0x008406    program     static D:\git\70M_Ku_Up\Drivers\External-Peripherals\oled_c2.c
                  __pa_64   0x009d7c    program     static D:\git\70M_Ku_Up\App\WebUI\HTTPGetDevInfo.c
                  __pa_64   0x00cc62    program     static D:\git\70M_Ku_Up\SysLib\util.c
                  __pa_65   0x00bdac    program     static D:\git\70M_Ku_Up\App\WebUI\HTTPPrint.c
                  __pa_65   0x005e9a    program     static D:\git\70M_Ku_Up\Microchip\TCPIP Stack\HTTP2.c
                  __pa_65   0x008416    program     static D:\git\70M_Ku_Up\Drivers\External-Peripherals\oled_c2.c
                  __pa_65   0x00cc74    program     static D:\git\70M_Ku_Up\SysLib\util.c
                  __pa_65   0x009d88    program     static D:\git\70M_Ku_Up\App\WebUI\HTTPGetDevInfo.c
                  __pa_65   0x003282    program     static D:\git\70M_Ku_Up\Microchip\TCPIP Stack\TCP.c
                  __pa_65   0x00af72    program     static D:\git\70M_Ku_Up\Microchip\TCPIP Stack\MPFS2.c
                  __pa_66   0x003298    program     static D:\git\70M_Ku_Up\Microchip\TCPIP Stack\TCP.c
                  __pa_66   0x00cc82    program     static D:\git\70M_Ku_Up\SysLib\util.c
                  __pa_66   0x005ea6    program     static D:\git\70M_Ku_Up\Microchip\TCPIP Stack\HTTP2.c
                  __pa_66   0x00af8c    program     static D:\git\70M_Ku_Up\Microchip\TCPIP Stack\MPFS2.c
                  __pa_66   0x00bdb8    program     static D:\git\70M_Ku_Up\App\WebUI\HTTPPrint.c
                  __pa_66   0x009d94    program     static D:\git\70M_Ku_Up\App\WebUI\HTTPGetDevInfo.c
                  __pa_66   0x008422    program     static D:\git\70M_Ku_Up\Drivers\External-Peripherals\oled_c2.c
                  __pa_67   0x00af9a    program     static D:\git\70M_Ku_Up\Microchip\TCPIP Stack\MPFS2.c
                  __pa_67   0x009da4    program     static D:\git\70M_Ku_Up\App\WebUI\HTTPGetDevInfo.c
                  __pa_67   0x00842e    program     static D:\git\70M_Ku_Up\Drivers\External-Peripherals\oled_c2.c
                  __pa_67   0x0032b6    program     static D:\git\70M_Ku_Up\Microchip\TCPIP Stack\TCP.c
                  __pa_67   0x00bdc2    program     static D:\git\70M_Ku_Up\App\WebUI\HTTPPrint.c
                  __pa_67   0x005eb2    program     static D:\git\70M_Ku_Up\Microchip\TCPIP Stack\HTTP2.c
                  __pa_68   0x008434    program     static D:\git\70M_Ku_Up\Drivers\External-Peripherals\oled_c2.c
                  __pa_68   0x0032cc    program     static D:\git\70M_Ku_Up\Microchip\TCPIP Stack\TCP.c
                  __pa_68   0x009db2    program     static D:\git\70M_Ku_Up\App\WebUI\HTTPGetDevInfo.c
                  __pa_68   0x00afa4    program     static D:\git\70M_Ku_Up\Microchip\TCPIP Stack\MPFS2.c
                  __pa_68   0x005eb8    program     static D:\git\70M_Ku_Up\Microchip\TCPIP Stack\HTTP2.c
                  __pa_68   0x00bdcc    program     static D:\git\70M_Ku_Up\App\WebUI\HTTPPrint.c
                  __pa_69   0x00843a    program     static D:\git\70M_Ku_Up\Drivers\External-Peripherals\oled_c2.c
                  __pa_69   0x005ebe    program     static D:\git\70M_Ku_Up\Microchip\TCPIP Stack\HTTP2.c
                  __pa_69   0x00bdd6    program     static D:\git\70M_Ku_Up\App\WebUI\HTTPPrint.c
                  __pa_69   0x0032da    program     static D:\git\70M_Ku_Up\Microchip\TCPIP Stack\TCP.c
                  __pa_69   0x009dc0    program     static D:\git\70M_Ku_Up\App\WebUI\HTTPGetDevInfo.c
                   __pa_7   0x014b00    program     static D:\git\70M_Ku_Up\Microchip\TCPIP Stack\SPIEEPROM.c
                   __pa_7   0x013708    program     static D:\git\70M_Ku_Up\Devices\MainControl_c1.c
                   __pa_7   0x012a6a    program     static D:\git\70M_Ku_Up\Devices\DownConverter_c1.c
                   __pa_7   0x0144ca    program     static D:\git\70M_Ku_Up\Microchip\TCPIP Stack\IP.c
                   __pa_7   0x00baba    program     static D:\git\70M_Ku_Up\App\WebUI\HTTPPrint.c
                   __pa_7   0x01510c    program     static D:\git\70M_Ku_Up\Drivers\External-Peripherals\devadc.c
                   __pa_7   0x00995a    program     static D:\git\70M_Ku_Up\App\WebUI\HTTPGetDevInfo.c
                   __pa_7   0x005b94    program     static D:\git\70M_Ku_Up\Microchip\TCPIP Stack\HTTP2.c
                   __pa_7   0x00fc90    program     static D:\git\70M_Ku_Up\Microchip\TCPIP Stack\ETH97J60.c
                   __pa_7   0x013b0e    program     static D:\git\70M_Ku_Up\Bootstrap\Initialization.c
                   __pa_7   0x01241c    program     static D:\git\70M_Ku_Up\App\WebUI\HTTPApp.c
                   __pa_7   0x00806c    program     static D:\git\70M_Ku_Up\Drivers\External-Peripherals\oled_c2.c
                   __pa_7   0x002e4e    program     static D:\git\70M_Ku_Up\Microchip\TCPIP Stack\TCP.c
                   __pa_7   0x012f10    program     static D:\git\70M_Ku_Up\Microchip\TCPIP Stack\ARP.c
                   __pa_7   0x011d14    program     static D:\git\70M_Ku_Up\Drivers\External-Peripherals\oled_c1.c
                   __pa_7   0x0147ca    program     static D:\git\70M_Ku_Up\Drivers\MCU-Internal\i2c_c1.c
                   __pa_7   0x013dec    program     static D:\git\70M_Ku_Up\Devices\VOLDC_c1 .c
                   __pa_7   0x00d87a    program     static D:\git\70M_Ku_Up\Microchip\TCPIP Stack\Helpers.c
                   __pa_7   0x00ab88    program     static D:\git\70M_Ku_Up\Microchip\TCPIP Stack\MPFS2.c
                   __pa_7   0x010f64    program     static D:\git\70M_Ku_Up\Devices\UpConverter_c1.c
                   __pa_7   0x00e3ae    program     static C:\Program Files\mcc18\src\traditional\stdclib\vfprintf.c
                   __pa_7   0x00c91a    program     static D:\git\70M_Ku_Up\SysLib\util.c
                  __pa_70   0x00bdee    program     static D:\git\70M_Ku_Up\App\WebUI\HTTPPrint.c
                  __pa_70   0x009dce    program     static D:\git\70M_Ku_Up\App\WebUI\HTTPGetDevInfo.c
                  __pa_70   0x0032ec    program     static D:\git\70M_Ku_Up\Microchip\TCPIP Stack\TCP.c
                  __pa_70   0x005ec8    program     static D:\git\70M_Ku_Up\Microchip\TCPIP Stack\HTTP2.c
                  __pa_70   0x008446    program     static D:\git\70M_Ku_Up\Drivers\External-Peripherals\oled_c2.c
                  __pa_71   0x009ddc    program     static D:\git\70M_Ku_Up\App\WebUI\HTTPGetDevInfo.c
                  __pa_71   0x005ed2    program     static D:\git\70M_Ku_Up\Microchip\TCPIP Stack\HTTP2.c
                  __pa_71   0x008452    program     static D:\git\70M_Ku_Up\Drivers\External-Peripherals\oled_c2.c
                  __pa_71   0x0032fe    program     static D:\git\70M_Ku_Up\Microchip\TCPIP Stack\TCP.c
                  __pa_71   0x00be04    program     static D:\git\70M_Ku_Up\App\WebUI\HTTPPrint.c
                  __pa_72   0x003310    program     static D:\git\70M_Ku_Up\Microchip\TCPIP Stack\TCP.c
                  __pa_72   0x009dea    program     static D:\git\70M_Ku_Up\App\WebUI\HTTPGetDevInfo.c
                  __pa_72   0x00845e    program     static D:\git\70M_Ku_Up\Drivers\External-Peripherals\oled_c2.c
                  __pa_72   0x005ede    program     static D:\git\70M_Ku_Up\Microchip\TCPIP Stack\HTTP2.c
                  __pa_72   0x00be0a    program     static D:\git\70M_Ku_Up\App\WebUI\HTTPPrint.c
                  __pa_73   0x00846a    program     static D:\git\70M_Ku_Up\Drivers\External-Peripherals\oled_c2.c
                  __pa_73   0x005eee    program     static D:\git\70M_Ku_Up\Microchip\TCPIP Stack\HTTP2.c
                  __pa_73   0x00be12    program     static D:\git\70M_Ku_Up\App\WebUI\HTTPPrint.c
                  __pa_73   0x009df2    program     static D:\git\70M_Ku_Up\App\WebUI\HTTPGetDevInfo.c
                  __pa_73   0x003322    program     static D:\git\70M_Ku_Up\Microchip\TCPIP Stack\TCP.c
                  __pa_74   0x005ef8    program     static D:\git\70M_Ku_Up\Microchip\TCPIP Stack\HTTP2.c
                  __pa_74   0x009e00    program     static D:\git\70M_Ku_Up\App\WebUI\HTTPGetDevInfo.c
                  __pa_74   0x00332c    program     static D:\git\70M_Ku_Up\Microchip\TCPIP Stack\TCP.c
                  __pa_74   0x008476    program     static D:\git\70M_Ku_Up\Drivers\External-Peripherals\oled_c2.c
                  __pa_74   0x00be1c    program     static D:\git\70M_Ku_Up\App\WebUI\HTTPPrint.c
                  __pa_75   0x009e08    program     static D:\git\70M_Ku_Up\App\WebUI\HTTPGetDevInfo.c
                  __pa_75   0x008482    program     static D:\git\70M_Ku_Up\Drivers\External-Peripherals\oled_c2.c
                  __pa_75   0x00333e    program     static D:\git\70M_Ku_Up\Microchip\TCPIP Stack\TCP.c
                  __pa_75   0x005f00    program     static D:\git\70M_Ku_Up\Microchip\TCPIP Stack\HTTP2.c
                  __pa_75   0x00be24    program     static D:\git\70M_Ku_Up\App\WebUI\HTTPPrint.c
                  __pa_76   0x009e10    program     static D:\git\70M_Ku_Up\App\WebUI\HTTPGetDevInfo.c
                  __pa_76   0x008490    program     static D:\git\70M_Ku_Up\Drivers\External-Peripherals\oled_c2.c
                  __pa_76   0x003348    program     static D:\git\70M_Ku_Up\Microchip\TCPIP Stack\TCP.c
                  __pa_76   0x005f08    program     static D:\git\70M_Ku_Up\Microchip\TCPIP Stack\HTTP2.c
                  __pa_76   0x00be2c    program     static D:\git\70M_Ku_Up\App\WebUI\HTTPPrint.c
                  __pa_77   0x00849e    program     static D:\git\70M_Ku_Up\Drivers\External-Peripherals\oled_c2.c
                  __pa_77   0x00be3e    program     static D:\git\70M_Ku_Up\App\WebUI\HTTPPrint.c
                  __pa_77   0x003356    program     static D:\git\70M_Ku_Up\Microchip\TCPIP Stack\TCP.c
                  __pa_77   0x009e1a    program     static D:\git\70M_Ku_Up\App\WebUI\HTTPGetDevInfo.c
                  __pa_77   0x005f10    program     static D:\git\70M_Ku_Up\Microchip\TCPIP Stack\HTTP2.c
                  __pa_78   0x00be50    program     static D:\git\70M_Ku_Up\App\WebUI\HTTPPrint.c
                  __pa_78   0x0084a6    program     static D:\git\70M_Ku_Up\Drivers\External-Peripherals\oled_c2.c
                  __pa_78   0x003364    program     static D:\git\70M_Ku_Up\Microchip\TCPIP Stack\TCP.c
                  __pa_78   0x005f1e    program     static D:\git\70M_Ku_Up\Microchip\TCPIP Stack\HTTP2.c
                  __pa_78   0x009e24    program     static D:\git\70M_Ku_Up\App\WebUI\HTTPGetDevInfo.c
                  __pa_79   0x003372    program     static D:\git\70M_Ku_Up\Microchip\TCPIP Stack\TCP.c
                  __pa_79   0x00be5a    program     static D:\git\70M_Ku_Up\App\WebUI\HTTPPrint.c
                  __pa_79   0x009e2e    program     static D:\git\70M_Ku_Up\App\WebUI\HTTPGetDevInfo.c
                  __pa_79   0x0084b0    program     static D:\git\70M_Ku_Up\Drivers\External-Peripherals\oled_c2.c
                  __pa_79   0x005f2c    program     static D:\git\70M_Ku_Up\Microchip\TCPIP Stack\HTTP2.c
                   __pa_8   0x00ab90    program     static D:\git\70M_Ku_Up\Microchip\TCPIP Stack\MPFS2.c
                   __pa_8   0x013b1c    program     static D:\git\70M_Ku_Up\Bootstrap\Initialization.c
                   __pa_8   0x0147d8    program     static D:\git\70M_Ku_Up\Drivers\MCU-Internal\i2c_c1.c
                   __pa_8   0x00c922    program     static D:\git\70M_Ku_Up\SysLib\util.c
                   __pa_8   0x012f1e    program     static D:\git\70M_Ku_Up\Microchip\TCPIP Stack\ARP.c
                   __pa_8   0x00d88c    program     static D:\git\70M_Ku_Up\Microchip\TCPIP Stack\Helpers.c
                   __pa_8   0x010f6c    program     static D:\git\70M_Ku_Up\Devices\UpConverter_c1.c
                   __pa_8   0x00fc9a    program     static D:\git\70M_Ku_Up\Microchip\TCPIP Stack\ETH97J60.c
                   __pa_8   0x002e70    program     static D:\git\70M_Ku_Up\Microchip\TCPIP Stack\TCP.c
                   __pa_8   0x012428    program     static D:\git\70M_Ku_Up\App\WebUI\HTTPApp.c
                   __pa_8   0x00807a    program     static D:\git\70M_Ku_Up\Drivers\External-Peripherals\oled_c2.c
                   __pa_8   0x01511e    program     static D:\git\70M_Ku_Up\Drivers\External-Peripherals\devadc.c
                   __pa_8   0x012a74    program     static D:\git\70M_Ku_Up\Devices\DownConverter_c1.c
                   __pa_8   0x014b10    program     static D:\git\70M_Ku_Up\Microchip\TCPIP Stack\SPIEEPROM.c
                   __pa_8   0x00bac6    program     static D:\git\70M_Ku_Up\App\WebUI\HTTPPrint.c
                   __pa_8   0x005bb0    program     static D:\git\70M_Ku_Up\Microchip\TCPIP Stack\HTTP2.c
                   __pa_8   0x009966    program     static D:\git\70M_Ku_Up\App\WebUI\HTTPGetDevInfo.c
                   __pa_8   0x0144d8    program     static D:\git\70M_Ku_Up\Microchip\TCPIP Stack\IP.c
                   __pa_8   0x013df4    program     static D:\git\70M_Ku_Up\Devices\VOLDC_c1 .c
                   __pa_8   0x013714    program     static D:\git\70M_Ku_Up\Devices\MainControl_c1.c
                   __pa_8   0x00e3ba    program     static C:\Program Files\mcc18\src\traditional\stdclib\vfprintf.c
                   __pa_8   0x011d40    program     static D:\git\70M_Ku_Up\Drivers\External-Peripherals\oled_c1.c
                  __pa_80   0x009e38    program     static D:\git\70M_Ku_Up\App\WebUI\HTTPGetDevInfo.c
                  __pa_80   0x00be60    program     static D:\git\70M_Ku_Up\App\WebUI\HTTPPrint.c
                  __pa_80   0x005f3a    program     static D:\git\70M_Ku_Up\Microchip\TCPIP Stack\HTTP2.c
                  __pa_80   0x003380    program     static D:\git\70M_Ku_Up\Microchip\TCPIP Stack\TCP.c
                  __pa_80   0x0084ba    program     static D:\git\70M_Ku_Up\Drivers\External-Peripherals\oled_c2.c
                  __pa_81   0x0084c4    program     static D:\git\70M_Ku_Up\Drivers\External-Peripherals\oled_c2.c
                  __pa_81   0x009e42    program     static D:\git\70M_Ku_Up\App\WebUI\HTTPGetDevInfo.c
                  __pa_81   0x003388    program     static D:\git\70M_Ku_Up\Microchip\TCPIP Stack\TCP.c
                  __pa_81   0x005f48    program     static D:\git\70M_Ku_Up\Microchip\TCPIP Stack\HTTP2.c
                  __pa_81   0x00be6e    program     static D:\git\70M_Ku_Up\App\WebUI\HTTPPrint.c
                  __pa_82   0x009e56    program     static D:\git\70M_Ku_Up\App\WebUI\HTTPGetDevInfo.c
                  __pa_82   0x0084d6    program     static D:\git\70M_Ku_Up\Drivers\External-Peripherals\oled_c2.c
                  __pa_82   0x005f56    program     static D:\git\70M_Ku_Up\Microchip\TCPIP Stack\HTTP2.c
                  __pa_82   0x003394    program     static D:\git\70M_Ku_Up\Microchip\TCPIP Stack\TCP.c
                  __pa_82   0x00be7a    program     static D:\git\70M_Ku_Up\App\WebUI\HTTPPrint.c
                  __pa_83   0x0084e2    program     static D:\git\70M_Ku_Up\Drivers\External-Peripherals\oled_c2.c
                  __pa_83   0x009e66    program     static D:\git\70M_Ku_Up\App\WebUI\HTTPGetDevInfo.c
                  __pa_83   0x005f64    program     static D:\git\70M_Ku_Up\Microchip\TCPIP Stack\HTTP2.c
                  __pa_83   0x00be80    program     static D:\git\70M_Ku_Up\App\WebUI\HTTPPrint.c
                  __pa_83   0x00339e    program     static D:\git\70M_Ku_Up\Microchip\TCPIP Stack\TCP.c
                  __pa_84   0x0084ee    program     static D:\git\70M_Ku_Up\Drivers\External-Peripherals\oled_c2.c
                  __pa_84   0x009e74    program     static D:\git\70M_Ku_Up\App\WebUI\HTTPGetDevInfo.c
                  __pa_84   0x005f72    program     static D:\git\70M_Ku_Up\Microchip\TCPIP Stack\HTTP2.c
                  __pa_84   0x0033a8    program     static D:\git\70M_Ku_Up\Microchip\TCPIP Stack\TCP.c
                  __pa_85   0x0084fa    program     static D:\git\70M_Ku_Up\Drivers\External-Peripherals\oled_c2.c
                  __pa_85   0x009e7a    program     static D:\git\70M_Ku_Up\App\WebUI\HTTPGetDevInfo.c
                  __pa_85   0x005f80    program     static D:\git\70M_Ku_Up\Microchip\TCPIP Stack\HTTP2.c
                  __pa_85   0x0033b2    program     static D:\git\70M_Ku_Up\Microchip\TCPIP Stack\TCP.c
                  __pa_86   0x008508    program     static D:\git\70M_Ku_Up\Drivers\External-Peripherals\oled_c2.c
                  __pa_86   0x009e82    program     static D:\git\70M_Ku_Up\App\WebUI\HTTPGetDevInfo.c
                  __pa_86   0x005f8e    program     static D:\git\70M_Ku_Up\Microchip\TCPIP Stack\HTTP2.c
                  __pa_86   0x0033bc    program     static D:\git\70M_Ku_Up\Microchip\TCPIP Stack\TCP.c
                  __pa_87   0x009e96    program     static D:\git\70M_Ku_Up\App\WebUI\HTTPGetDevInfo.c
                  __pa_87   0x0033cc    program     static D:\git\70M_Ku_Up\Microchip\TCPIP Stack\TCP.c
                  __pa_87   0x005f98    program     static D:\git\70M_Ku_Up\Microchip\TCPIP Stack\HTTP2.c
                  __pa_88   0x0033da    program     static D:\git\70M_Ku_Up\Microchip\TCPIP Stack\TCP.c
                  __pa_88   0x005fa2    program     static D:\git\70M_Ku_Up\Microchip\TCPIP Stack\HTTP2.c
                  __pa_88   0x009ea0    program     static D:\git\70M_Ku_Up\App\WebUI\HTTPGetDevInfo.c
                  __pa_89   0x0033f4    program     static D:\git\70M_Ku_Up\Microchip\TCPIP Stack\TCP.c
                  __pa_89   0x005faa    program     static D:\git\70M_Ku_Up\Microchip\TCPIP Stack\HTTP2.c
                  __pa_89   0x009eae    program     static D:\git\70M_Ku_Up\App\WebUI\HTTPGetDevInfo.c
                   __pa_9   0x005bbe    program     static D:\git\70M_Ku_Up\Microchip\TCPIP Stack\HTTP2.c
                   __pa_9   0x008080    program     static D:\git\70M_Ku_Up\Drivers\External-Peripherals\oled_c2.c
                   __pa_9   0x00c954    program     static D:\git\70M_Ku_Up\SysLib\util.c
                   __pa_9   0x011d5a    program     static D:\git\70M_Ku_Up\Drivers\External-Peripherals\oled_c1.c
                   __pa_9   0x012a86    program     static D:\git\70M_Ku_Up\Devices\DownConverter_c1.c
                   __pa_9   0x013720    program     static D:\git\70M_Ku_Up\Devices\MainControl_c1.c
                   __pa_9   0x00fca8    program     static D:\git\70M_Ku_Up\Microchip\TCPIP Stack\ETH97J60.c
                   __pa_9   0x00bacc    program     static D:\git\70M_Ku_Up\App\WebUI\HTTPPrint.c
                   __pa_9   0x0099e8    program     static D:\git\70M_Ku_Up\App\WebUI\HTTPGetDevInfo.c
                   __pa_9   0x0147e6    program     static D:\git\70M_Ku_Up\Drivers\MCU-Internal\i2c_c1.c
                   __pa_9   0x013dfc    program     static D:\git\70M_Ku_Up\Devices\VOLDC_c1 .c
                   __pa_9   0x00e3dc    program     static C:\Program Files\mcc18\src\traditional\stdclib\vfprintf.c
                   __pa_9   0x012f2c    program     static D:\git\70M_Ku_Up\Microchip\TCPIP Stack\ARP.c
                   __pa_9   0x002e98    program     static D:\git\70M_Ku_Up\Microchip\TCPIP Stack\TCP.c
                   __pa_9   0x0144e6    program     static D:\git\70M_Ku_Up\Microchip\TCPIP Stack\IP.c
                   __pa_9   0x00d896    program     static D:\git\70M_Ku_Up\Microchip\TCPIP Stack\Helpers.c
                   __pa_9   0x012430    program     static D:\git\70M_Ku_Up\App\WebUI\HTTPApp.c
                   __pa_9   0x013b28    program     static D:\git\70M_Ku_Up\Bootstrap\Initialization.c
                   __pa_9   0x010f76    program     static D:\git\70M_Ku_Up\Devices\UpConverter_c1.c
                   __pa_9   0x00ab96    program     static D:\git\70M_Ku_Up\Microchip\TCPIP Stack\MPFS2.c
                  __pa_90   0x009ebc    program     static D:\git\70M_Ku_Up\App\WebUI\HTTPGetDevInfo.c
                  __pa_90   0x0033fc    program     static D:\git\70M_Ku_Up\Microchip\TCPIP Stack\TCP.c
                  __pa_90   0x005fc0    program     static D:\git\70M_Ku_Up\Microchip\TCPIP Stack\HTTP2.c
                  __pa_91   0x003406    program     static D:\git\70M_Ku_Up\Microchip\TCPIP Stack\TCP.c
                  __pa_91   0x009eca    program     static D:\git\70M_Ku_Up\App\WebUI\HTTPGetDevInfo.c
                  __pa_91   0x005fc6    program     static D:\git\70M_Ku_Up\Microchip\TCPIP Stack\HTTP2.c
                  __pa_92   0x009ed4    program     static D:\git\70M_Ku_Up\App\WebUI\HTTPGetDevInfo.c
                  __pa_92   0x005fd4    program     static D:\git\70M_Ku_Up\Microchip\TCPIP Stack\HTTP2.c
                  __pa_92   0x003410    program     static D:\git\70M_Ku_Up\Microchip\TCPIP Stack\TCP.c
                  __pa_93   0x005fde    program     static D:\git\70M_Ku_Up\Microchip\TCPIP Stack\HTTP2.c
                  __pa_93   0x009ede    program     static D:\git\70M_Ku_Up\App\WebUI\HTTPGetDevInfo.c
                  __pa_93   0x00341a    program     static D:\git\70M_Ku_Up\Microchip\TCPIP Stack\TCP.c
                  __pa_94   0x005fe8    program     static D:\git\70M_Ku_Up\Microchip\TCPIP Stack\HTTP2.c
                  __pa_94   0x003424    program     static D:\git\70M_Ku_Up\Microchip\TCPIP Stack\TCP.c
                  __pa_94   0x009eee    program     static D:\git\70M_Ku_Up\App\WebUI\HTTPGetDevInfo.c
                  __pa_95   0x005ff2    program     static D:\git\70M_Ku_Up\Microchip\TCPIP Stack\HTTP2.c
                  __pa_95   0x00342e    program     static D:\git\70M_Ku_Up\Microchip\TCPIP Stack\TCP.c
                  __pa_95   0x009efe    program     static D:\git\70M_Ku_Up\App\WebUI\HTTPGetDevInfo.c
                  __pa_96   0x003446    program     static D:\git\70M_Ku_Up\Microchip\TCPIP Stack\TCP.c
                  __pa_96   0x009f0e    program     static D:\git\70M_Ku_Up\App\WebUI\HTTPGetDevInfo.c
                  __pa_96   0x006000    program     static D:\git\70M_Ku_Up\Microchip\TCPIP Stack\HTTP2.c
                  __pa_97   0x006008    program     static D:\git\70M_Ku_Up\Microchip\TCPIP Stack\HTTP2.c
                  __pa_97   0x003454    program     static D:\git\70M_Ku_Up\Microchip\TCPIP Stack\TCP.c
                  __pa_97   0x009f1e    program     static D:\git\70M_Ku_Up\App\WebUI\HTTPGetDevInfo.c
                  __pa_98   0x006012    program     static D:\git\70M_Ku_Up\Microchip\TCPIP Stack\HTTP2.c
                  __pa_98   0x009f32    program     static D:\git\70M_Ku_Up\App\WebUI\HTTPGetDevInfo.c
                  __pa_98   0x00346c    program     static D:\git\70M_Ku_Up\Microchip\TCPIP Stack\TCP.c
                  __pa_99   0x00347c    program     static D:\git\70M_Ku_Up\Microchip\TCPIP Stack\TCP.c
                  __pa_99   0x006028    program     static D:\git\70M_Ku_Up\Microchip\TCPIP Stack\HTTP2.c
                  __pa_99   0x009f44    program     static D:\git\70M_Ku_Up\App\WebUI\HTTPGetDevInfo.c
               __string_0   0x00ee56    program     static D:\git\70M_Ku_Up\Devices\DownConverter_c1.c
               __string_0   0x00f211    program     static D:\git\70M_Ku_Up\App\WebUI\HTTPPrint.c
               __string_0   0x00ee3d    program     static D:\git\70M_Ku_Up\App\WebUI\HTTPApp.c
               __string_0   0x00e62c    program     static D:\git\70M_Ku_Up\Bootstrap\Initialization.c
               __string_0   0x00edb1    program     static D:\git\70M_Ku_Up\SysLib\util.c
               __string_0   0x00f128    program     static D:\git\70M_Ku_Up\App\WebUI\HTTPGetDevInfo.c
               __string_0   0x00ed9f    program     static D:\git\70M_Ku_Up\Microchip\TCPIP Stack\HTTP2.c
               __string_0   0x00eea9    program     static D:\git\70M_Ku_Up\Devices\UpConverter_c1.c
               __string_0   0x00edaa    program     static D:\git\70M_Ku_Up\Microchip\TCPIP Stack\MPFS2.c
               __string_0   0x00eeca    program     static D:\git\70M_Ku_Up\Devices\VOLDC_c1 .c
               __string_0   0x00ee94    program     static D:\git\70M_Ku_Up\Devices\MainControl_c1.c
               __string_1   0x00f208    program     static D:\git\70M_Ku_Up\App\WebUI\HTTPPrint.c
               __string_1   0x00ed94    program     static D:\git\70M_Ku_Up\Microchip\TCPIP Stack\HTTP2.c
               __string_1   0x00eea0    program     static D:\git\70M_Ku_Up\Devices\UpConverter_c1.c
               __string_1   0x00ee8d    program     static D:\git\70M_Ku_Up\Devices\MainControl_c1.c
               __string_1   0x00f121    program     static D:\git\70M_Ku_Up\App\WebUI\HTTPGetDevInfo.c
               __string_1   0x00ee38    program     static D:\git\70M_Ku_Up\App\WebUI\HTTPApp.c
               __string_1   0x00e622    program     static D:\git\70M_Ku_Up\Bootstrap\Initialization.c
               __string_1   0x00ee4d    program     static D:\git\70M_Ku_Up\Devices\DownConverter_c1.c
               __string_1   0x00eec1    program     static D:\git\70M_Ku_Up\Devices\VOLDC_c1 .c
              __string_10   0x00ef7f    program     static D:\git\70M_Ku_Up\Drivers\External-Peripherals\oled_c2.c
              __string_10   0x00edf3    program     static D:\git\70M_Ku_Up\App\WebUI\HTTPApp.c
              __string_10   0x00f0b5    program     static D:\git\70M_Ku_Up\App\WebUI\HTTPGetDevInfo.c
              __string_10   0x00ed72    program     static D:\git\70M_Ku_Up\Microchip\TCPIP Stack\HTTP2.c
              __string_10   0x00f1ca    program     static D:\git\70M_Ku_Up\App\WebUI\HTTPPrint.c
              __string_11   0x00f0ab    program     static D:\git\70M_Ku_Up\App\WebUI\HTTPGetDevInfo.c
              __string_11   0x00f1c1    program     static D:\git\70M_Ku_Up\App\WebUI\HTTPPrint.c
              __string_11   0x00ed6e    program     static D:\git\70M_Ku_Up\Microchip\TCPIP Stack\HTTP2.c
              __string_11   0x00edee    program     static D:\git\70M_Ku_Up\App\WebUI\HTTPApp.c
              __string_12   0x00f1b8    program     static D:\git\70M_Ku_Up\App\WebUI\HTTPPrint.c
              __string_12   0x00f0a1    program     static D:\git\70M_Ku_Up\App\WebUI\HTTPGetDevInfo.c
              __string_12   0x00ed6a    program     static D:\git\70M_Ku_Up\Microchip\TCPIP Stack\HTTP2.c
              __string_12   0x00edea    program     static D:\git\70M_Ku_Up\App\WebUI\HTTPApp.c
              __string_13   0x00f1af    program     static D:\git\70M_Ku_Up\App\WebUI\HTTPPrint.c
              __string_13   0x00f093    program     static D:\git\70M_Ku_Up\App\WebUI\HTTPGetDevInfo.c
              __string_13   0x00ed66    program     static D:\git\70M_Ku_Up\Microchip\TCPIP Stack\HTTP2.c
              __string_13   0x00ede5    program     static D:\git\70M_Ku_Up\App\WebUI\HTTPApp.c
              __string_14   0x00f085    program     static D:\git\70M_Ku_Up\App\WebUI\HTTPGetDevInfo.c
              __string_14   0x00ed62    program     static D:\git\70M_Ku_Up\Microchip\TCPIP Stack\HTTP2.c
              __string_14   0x00ede0    program     static D:\git\70M_Ku_Up\App\WebUI\HTTPApp.c
              __string_14   0x00f1ac    program     static D:\git\70M_Ku_Up\App\WebUI\HTTPPrint.c
              __string_15   0x00f078    program     static D:\git\70M_Ku_Up\App\WebUI\HTTPGetDevInfo.c
              __string_15   0x00f1a8    program     static D:\git\70M_Ku_Up\App\WebUI\HTTPPrint.c
              __string_15   0x00ed5e    program     static D:\git\70M_Ku_Up\Microchip\TCPIP Stack\HTTP2.c
              __string_15   0x00edcb    program     static D:\git\70M_Ku_Up\App\WebUI\HTTPApp.c
              __string_16   0x00f06e    program     static D:\git\70M_Ku_Up\App\WebUI\HTTPGetDevInfo.c
              __string_16   0x00ed53    program     static D:\git\70M_Ku_Up\Microchip\TCPIP Stack\HTTP2.c
              __string_16   0x00f1a2    program     static D:\git\70M_Ku_Up\App\WebUI\HTTPPrint.c
              __string_16   0x00edb7    program     static D:\git\70M_Ku_Up\App\WebUI\HTTPApp.c
              __string_17   0x00f192    program     static D:\git\70M_Ku_Up\App\WebUI\HTTPPrint.c
              __string_17   0x00ed49    program     static D:\git\70M_Ku_Up\Microchip\TCPIP Stack\HTTP2.c
              __string_17   0x00f069    program     static D:\git\70M_Ku_Up\App\WebUI\HTTPGetDevInfo.c
              __string_18   0x00ed40    program     static D:\git\70M_Ku_Up\Microchip\TCPIP Stack\HTTP2.c
              __string_18   0x00f065    program     static D:\git\70M_Ku_Up\App\WebUI\HTTPGetDevInfo.c
              __string_18   0x00f175    program     static D:\git\70M_Ku_Up\App\WebUI\HTTPPrint.c
              __string_19   0x00ed37    program     static D:\git\70M_Ku_Up\Microchip\TCPIP Stack\HTTP2.c
              __string_19   0x00f061    program     static D:\git\70M_Ku_Up\App\WebUI\HTTPGetDevInfo.c
              __string_19   0x00f162    program     static D:\git\70M_Ku_Up\App\WebUI\HTTPPrint.c
               __string_2   0x00ed8f    program     static D:\git\70M_Ku_Up\Microchip\TCPIP Stack\HTTP2.c
               __string_2   0x00f203    program     static D:\git\70M_Ku_Up\App\WebUI\HTTPPrint.c
               __string_2   0x00f11d    program     static D:\git\70M_Ku_Up\App\WebUI\HTTPGetDevInfo.c
               __string_2   0x00ee88    program     static D:\git\70M_Ku_Up\Devices\MainControl_c1.c
               __string_2   0x00ee32    program     static D:\git\70M_Ku_Up\App\WebUI\HTTPApp.c
               __string_2   0x00eebb    program     static D:\git\70M_Ku_Up\Devices\VOLDC_c1 .c
               __string_2   0x00ee98    program     static D:\git\70M_Ku_Up\Devices\UpConverter_c1.c
               __string_2   0x00ee45    program     static D:\git\70M_Ku_Up\Devices\DownConverter_c1.c
              __string_20   0x00f05c    program     static D:\git\70M_Ku_Up\App\WebUI\HTTPGetDevInfo.c
              __string_20   0x00f14e    program     static D:\git\70M_Ku_Up\App\WebUI\HTTPPrint.c
              __string_20   0x00ed2d    program     static D:\git\70M_Ku_Up\Microchip\TCPIP Stack\HTTP2.c
              __string_21   0x00f130    program     static D:\git\70M_Ku_Up\App\WebUI\HTTPPrint.c
              __string_21   0x00f056    program     static D:\git\70M_Ku_Up\App\WebUI\HTTPGetDevInfo.c
              __string_21   0x00ed23    program     static D:\git\70M_Ku_Up\Microchip\TCPIP Stack\HTTP2.c
              __string_22   0x00f04d    program     static D:\git\70M_Ku_Up\App\WebUI\HTTPGetDevInfo.c
              __string_22   0x00ed18    program     static D:\git\70M_Ku_Up\Microchip\TCPIP Stack\HTTP2.c
              __string_22   0x00f12b    program     static D:\git\70M_Ku_Up\App\WebUI\HTTPPrint.c
              __string_23   0x00f044    program     static D:\git\70M_Ku_Up\App\WebUI\HTTPGetDevInfo.c
              __string_23   0x00ed04    program     static D:\git\70M_Ku_Up\Microchip\TCPIP Stack\HTTP2.c
              __string_24   0x00f03e    program     static D:\git\70M_Ku_Up\App\WebUI\HTTPGetDevInfo.c
              __string_24   0x00ecf7    program     static D:\git\70M_Ku_Up\Microchip\TCPIP Stack\HTTP2.c
              __string_25   0x00f036    program     static D:\git\70M_Ku_Up\App\WebUI\HTTPGetDevInfo.c
              __string_25   0x00ecf6    program     static D:\git\70M_Ku_Up\Microchip\TCPIP Stack\HTTP2.c
              __string_26   0x00f02e    program     static D:\git\70M_Ku_Up\App\WebUI\HTTPGetDevInfo.c
              __string_26   0x00ecd1    program     static D:\git\70M_Ku_Up\Microchip\TCPIP Stack\HTTP2.c
              __string_27   0x00ec73    program     static D:\git\70M_Ku_Up\Microchip\TCPIP Stack\HTTP2.c
              __string_27   0x00f027    program     static D:\git\70M_Ku_Up\App\WebUI\HTTPGetDevInfo.c
              __string_28   0x00f020    program     static D:\git\70M_Ku_Up\App\WebUI\HTTPGetDevInfo.c
              __string_28   0x00ebf2    program     static D:\git\70M_Ku_Up\Microchip\TCPIP Stack\HTTP2.c
              __string_29   0x00f013    program     static D:\git\70M_Ku_Up\App\WebUI\HTTPGetDevInfo.c
              __string_29   0x00eb54    program     static D:\git\70M_Ku_Up\Microchip\TCPIP Stack\HTTP2.c
               __string_3   0x00f115    program     static D:\git\70M_Ku_Up\App\WebUI\HTTPGetDevInfo.c
               __string_3   0x00f1fc    program     static D:\git\70M_Ku_Up\App\WebUI\HTTPPrint.c
               __string_3   0x00eeb5    program     static D:\git\70M_Ku_Up\Devices\VOLDC_c1 .c
               __string_3   0x00ee1f    program     static D:\git\70M_Ku_Up\App\WebUI\HTTPApp.c
               __string_3   0x00ee81    program     static D:\git\70M_Ku_Up\Devices\MainControl_c1.c
              __string_30   0x00f006    program     static D:\git\70M_Ku_Up\App\WebUI\HTTPGetDevInfo.c
              __string_30   0x00eae7    program     static D:\git\70M_Ku_Up\Microchip\TCPIP Stack\HTTP2.c
              __string_31   0x00eff3    program     static D:\git\70M_Ku_Up\App\WebUI\HTTPGetDevInfo.c
              __string_31   0x00ea77    program     static D:\git\70M_Ku_Up\Microchip\TCPIP Stack\HTTP2.c
              __string_32   0x00efdf    program     static D:\git\70M_Ku_Up\App\WebUI\HTTPGetDevInfo.c
              __string_32   0x00ea11    program     static D:\git\70M_Ku_Up\Microchip\TCPIP Stack\HTTP2.c
              __string_33   0x00efdb    program     static D:\git\70M_Ku_Up\App\WebUI\HTTPGetDevInfo.c
              __string_33   0x00e8f1    program     static D:\git\70M_Ku_Up\Microchip\TCPIP Stack\HTTP2.c
              __string_34   0x00efcb    program     static D:\git\70M_Ku_Up\App\WebUI\HTTPGetDevInfo.c
              __string_34   0x00e844    program     static D:\git\70M_Ku_Up\Microchip\TCPIP Stack\HTTP2.c
              __string_35   0x00efc6    program     static D:\git\70M_Ku_Up\App\WebUI\HTTPGetDevInfo.c
              __string_35   0x00e771    program     static D:\git\70M_Ku_Up\Microchip\TCPIP Stack\HTTP2.c
              __string_36   0x00efc1    program     static D:\git\70M_Ku_Up\App\WebUI\HTTPGetDevInfo.c
              __string_36   0x00e73f    program     static D:\git\70M_Ku_Up\Microchip\TCPIP Stack\HTTP2.c
              __string_37   0x00efbb    program     static D:\git\70M_Ku_Up\App\WebUI\HTTPGetDevInfo.c
              __string_37   0x00e6e8    program     static D:\git\70M_Ku_Up\Microchip\TCPIP Stack\HTTP2.c
              __string_38   0x00efb1    program     static D:\git\70M_Ku_Up\App\WebUI\HTTPGetDevInfo.c
              __string_38   0x00e6e0    program     static D:\git\70M_Ku_Up\Microchip\TCPIP Stack\HTTP2.c
              __string_39   0x00efa7    program     static D:\git\70M_Ku_Up\App\WebUI\HTTPGetDevInfo.c
              __string_39   0x00e6d1    program     static D:\git\70M_Ku_Up\Microchip\TCPIP Stack\HTTP2.c
               __string_4   0x00ee0f    program     static D:\git\70M_Ku_Up\App\WebUI\HTTPApp.c
               __string_4   0x00ed8b    program     static D:\git\70M_Ku_Up\Microchip\TCPIP Stack\HTTP2.c
               __string_4   0x00eeb2    program     static D:\git\70M_Ku_Up\Devices\VOLDC_c1 .c
               __string_4   0x00f10e    program     static D:\git\70M_Ku_Up\App\WebUI\HTTPGetDevInfo.c
               __string_4   0x00ee7a    program     static D:\git\70M_Ku_Up\Devices\MainControl_c1.c
               __string_4   0x00f1f9    program     static D:\git\70M_Ku_Up\App\WebUI\HTTPPrint.c
              __string_40   0x00e6c1    program     static D:\git\70M_Ku_Up\Microchip\TCPIP Stack\HTTP2.c
              __string_40   0x00ef9a    program     static D:\git\70M_Ku_Up\App\WebUI\HTTPGetDevInfo.c
              __string_41   0x00e6bd    program     static D:\git\70M_Ku_Up\Microchip\TCPIP Stack\HTTP2.c
              __string_41   0x00ef95    program     static D:\git\70M_Ku_Up\App\WebUI\HTTPGetDevInfo.c
              __string_42   0x00e6b8    program     static D:\git\70M_Ku_Up\Microchip\TCPIP Stack\HTTP2.c
              __string_42   0x00ef90    program     static D:\git\70M_Ku_Up\App\WebUI\HTTPGetDevInfo.c
              __string_43   0x00e6ad    program     static D:\git\70M_Ku_Up\Microchip\TCPIP Stack\HTTP2.c
              __string_43   0x00ef8c    program     static D:\git\70M_Ku_Up\App\WebUI\HTTPGetDevInfo.c
              __string_44   0x00e6a3    program     static D:\git\70M_Ku_Up\Microchip\TCPIP Stack\HTTP2.c
              __string_45   0x00e690    program     static D:\git\70M_Ku_Up\Microchip\TCPIP Stack\HTTP2.c
              __string_46   0x00e681    program     static D:\git\70M_Ku_Up\Microchip\TCPIP Stack\HTTP2.c
              __string_47   0x00e668    program     static D:\git\70M_Ku_Up\Microchip\TCPIP Stack\HTTP2.c
              __string_48   0x00e658    program     static D:\git\70M_Ku_Up\Microchip\TCPIP Stack\HTTP2.c
              __string_49   0x00e64f    program     static D:\git\70M_Ku_Up\Microchip\TCPIP Stack\HTTP2.c
               __string_5   0x00ed87    program     static D:\git\70M_Ku_Up\Microchip\TCPIP Stack\HTTP2.c
               __string_5   0x00f0fd    program     static D:\git\70M_Ku_Up\App\WebUI\HTTPGetDevInfo.c
               __string_5   0x00ee71    program     static D:\git\70M_Ku_Up\Devices\MainControl_c1.c
               __string_5   0x00f1f5    program     static D:\git\70M_Ku_Up\App\WebUI\HTTPPrint.c
               __string_5   0x00ee0b    program     static D:\git\70M_Ku_Up\App\WebUI\HTTPApp.c
              __string_50   0x00e646    program     static D:\git\70M_Ku_Up\Microchip\TCPIP Stack\HTTP2.c
              __string_51   0x00e642    program     static D:\git\70M_Ku_Up\Microchip\TCPIP Stack\HTTP2.c
              __string_52   0x00e63d    program     static D:\git\70M_Ku_Up\Microchip\TCPIP Stack\HTTP2.c
              __string_53   0x00e632    program     static D:\git\70M_Ku_Up\Microchip\TCPIP Stack\HTTP2.c
              __string_59   0x00ef56    program     static D:\git\70M_Ku_Up\Drivers\External-Peripherals\oled_c2.c
               __string_6   0x00ee68    program     static D:\git\70M_Ku_Up\Devices\MainControl_c1.c
               __string_6   0x00ee02    program     static D:\git\70M_Ku_Up\App\WebUI\HTTPApp.c
               __string_6   0x00f1ec    program     static D:\git\70M_Ku_Up\App\WebUI\HTTPPrint.c
               __string_6   0x00f0ec    program     static D:\git\70M_Ku_Up\App\WebUI\HTTPGetDevInfo.c
               __string_6   0x00ed82    program     static D:\git\70M_Ku_Up\Microchip\TCPIP Stack\HTTP2.c
              __string_60   0x00ef2d    program     static D:\git\70M_Ku_Up\Drivers\External-Peripherals\oled_c2.c
              __string_61   0x00ef29    program     static D:\git\70M_Ku_Up\Drivers\External-Peripherals\oled_c2.c
              __string_62   0x00ef23    program     static D:\git\70M_Ku_Up\Drivers\External-Peripherals\oled_c2.c
              __string_63   0x00ef1d    program     static D:\git\70M_Ku_Up\Drivers\External-Peripherals\oled_c2.c
              __string_64   0x00ef14    program     static D:\git\70M_Ku_Up\Drivers\External-Peripherals\oled_c2.c
              __string_65   0x00ef0a    program     static D:\git\70M_Ku_Up\Drivers\External-Peripherals\oled_c2.c
              __string_66   0x00eefb    program     static D:\git\70M_Ku_Up\Drivers\External-Peripherals\oled_c2.c
              __string_67   0x00eeef    program     static D:\git\70M_Ku_Up\Drivers\External-Peripherals\oled_c2.c
              __string_68   0x00eee1    program     static D:\git\70M_Ku_Up\Drivers\External-Peripherals\oled_c2.c
              __string_69   0x00eed3    program     static D:\git\70M_Ku_Up\Drivers\External-Peripherals\oled_c2.c
               __string_7   0x00edff    program     static D:\git\70M_Ku_Up\App\WebUI\HTTPApp.c
               __string_7   0x00ef88    program     static D:\git\70M_Ku_Up\Drivers\External-Peripherals\oled_c2.c
               __string_7   0x00f0dc    program     static D:\git\70M_Ku_Up\App\WebUI\HTTPGetDevInfo.c
               __string_7   0x00f1e3    program     static D:\git\70M_Ku_Up\App\WebUI\HTTPPrint.c
               __string_7   0x00ed7e    program     static D:\git\70M_Ku_Up\Microchip\TCPIP Stack\HTTP2.c
               __string_7   0x00ee64    program     static D:\git\70M_Ku_Up\Devices\MainControl_c1.c
               __string_8   0x00f0cc    program     static D:\git\70M_Ku_Up\App\WebUI\HTTPGetDevInfo.c
               __string_8   0x00ee5f    program     static D:\git\70M_Ku_Up\Devices\MainControl_c1.c
               __string_8   0x00f1dc    program     static D:\git\70M_Ku_Up\App\WebUI\HTTPPrint.c
               __string_8   0x00ed7a    program     static D:\git\70M_Ku_Up\Microchip\TCPIP Stack\HTTP2.c
               __string_8   0x00edfc    program     static D:\git\70M_Ku_Up\App\WebUI\HTTPApp.c
               __string_9   0x00f0bf    program     static D:\git\70M_Ku_Up\App\WebUI\HTTPGetDevInfo.c
               __string_9   0x00f1d4    program     static D:\git\70M_Ku_Up\App\WebUI\HTTPPrint.c
               __string_9   0x00ed76    program     static D:\git\70M_Ku_Up\Microchip\TCPIP Stack\HTTP2.c
               __string_9   0x00edf8    program     static D:\git\70M_Ku_Up\App\WebUI\HTTPApp.c
               __tmplbl_0   0x00cd88    program     static                          
              __tmplbl_10   0x011a80    program     static                          
              __tmplbl_10   0x00f52e    program     static                          
             __tmplbl_100   0x002d98    program     static                          
             __tmplbl_101   0x002d98    program     static                          
             __tmplbl_102   0x002d98    program     static                          
             __tmplbl_103   0x002d98    program     static                          
             __tmplbl_104   0x002d98    program     static                          
             __tmplbl_106   0x002d98    program     static                          
             __tmplbl_108   0x002d98    program     static                          
             __tmplbl_109   0x002d98    program     static                          
              __tmplbl_11   0x00f52c    program     static                          
              __tmplbl_11   0x011a78    program     static                          
             __tmplbl_110   0x002d98    program     static                          
             __tmplbl_111   0x002d98    program     static                          
             __tmplbl_114   0x002d98    program     static                          
             __tmplbl_117   0x002d98    program     static                          
             __tmplbl_118   0x002d98    program     static                          
             __tmplbl_119   0x008158    program     static                          
              __tmplbl_12   0x00f608    program     static                          
             __tmplbl_120   0x008158    program     static                          
             __tmplbl_121   0x008192    program     static                          
             __tmplbl_122   0x008192    program     static                          
             __tmplbl_123   0x008192    program     static                          
             __tmplbl_124   0x008192    program     static                          
             __tmplbl_125   0x008312    program     static                          
             __tmplbl_125   0x00995a    program     static                          
             __tmplbl_126   0x008312    program     static                          
             __tmplbl_126   0x00995a    program     static                          
             __tmplbl_127   0x00995a    program     static                          
             __tmplbl_129   0x00995a    program     static                          
              __tmplbl_13   0x00f5fa    program     static                          
             __tmplbl_130   0x002d98    program     static                          
             __tmplbl_130   0x00995a    program     static                          
             __tmplbl_131   0x00995a    program     static                          
             __tmplbl_131   0x002d98    program     static                          
             __tmplbl_132   0x00995a    program     static                          
             __tmplbl_133   0x00995a    program     static                          
             __tmplbl_134   0x00995a    program     static                          
             __tmplbl_135   0x00995a    program     static                          
             __tmplbl_136   0x00995a    program     static                          
             __tmplbl_137   0x008158    program     static                          
             __tmplbl_137   0x009e7a    program     static                          
             __tmplbl_138   0x009e7a    program     static                          
             __tmplbl_139   0x009e7a    program     static                          
              __tmplbl_14   0x00f600    program     static                          
             __tmplbl_140   0x009e7a    program     static                          
             __tmplbl_141   0x009e7a    program     static                          
             __tmplbl_142   0x009e7a    program     static                          
             __tmplbl_143   0x009e7a    program     static                          
             __tmplbl_144   0x009e7a    program     static                          
             __tmplbl_145   0x009e7a    program     static                          
             __tmplbl_146   0x009e7a    program     static                          
             __tmplbl_148   0x002d98    program     static                          
             __tmplbl_150   0x008158    program     static                          
             __tmplbl_151   0x002d98    program     static                          
             __tmplbl_152   0x002d98    program     static                          
             __tmplbl_155   0x002a10    program     static                          
             __tmplbl_157   0x002a10    program     static                          
             __tmplbl_158   0x002a1e    program     static                          
             __tmplbl_164   0x002a1e    program     static                          
             __tmplbl_166   0x002a1e    program     static                          
             __tmplbl_167   0x002a1e    program     static                          
             __tmplbl_168   0x005b58    program     static                          
             __tmplbl_169   0x005b58    program     static                          
             __tmplbl_170   0x005b58    program     static                          
             __tmplbl_171   0x005b58    program     static                          
             __tmplbl_172   0x005006    program     static                          
             __tmplbl_173   0x004fc0    program     static                          
             __tmplbl_174   0x002a16    program     static                          
             __tmplbl_174   0x004f94    program     static                          
             __tmplbl_175   0x004f8e    program     static                          
             __tmplbl_182   0x005022    program     static                          
             __tmplbl_183   0x005022    program     static                          
             __tmplbl_184   0x005022    program     static                          
             __tmplbl_198   0x0046da    program     static                          
             __tmplbl_199   0x005b58    program     static                          
             __tmplbl_200   0x005b58    program     static                          
             __tmplbl_201   0x005b58    program     static                          
             __tmplbl_203   0x005b58    program     static                          
             __tmplbl_213   0x003daa    program     static                          
             __tmplbl_214   0x003b2e    program     static                          
             __tmplbl_215   0x003ba2    program     static                          
             __tmplbl_216   0x003de8    program     static                          
              __tmplbl_24   0x00c8b6    program     static                          
              __tmplbl_25   0x00fc3a    program     static                          
              __tmplbl_39   0x00cd00    program     static                          
              __tmplbl_40   0x00cda4    program     static                          
              __tmplbl_41   0x00cde4    program     static                          
              __tmplbl_42   0x00e4d6    program     static                          
              __tmplbl_42   0x00ce48    program     static                          
              __tmplbl_43   0x00e31e    program     static                          
              __tmplbl_44   0x00e304    program     static                          
               __tmplbl_5   0x00f598    program     static                          
              __tmplbl_55   0x00be04    program     static                          
              __tmplbl_56   0x00be04    program     static                          
              __tmplbl_58   0x00bcdc    program     static                          
               __tmplbl_6   0x00f582    program     static                          
              __tmplbl_60   0x00baba    program     static                          
              __tmplbl_60   0x00ab04    program     static                          
              __tmplbl_61   0x00ab04    program     static                          
              __tmplbl_61   0x00bb68    program     static                          
              __tmplbl_63   0x00bb68    program     static                          
              __tmplbl_64   0x00bb68    program     static                          
              __tmplbl_65   0x00bb68    program     static                          
              __tmplbl_66   0x00bb68    program     static                          
              __tmplbl_67   0x00baba    program     static                          
              __tmplbl_68   0x00baba    program     static                          
              __tmplbl_69   0x00bcdc    program     static                          
               __tmplbl_7   0x00f56a    program     static                          
              __tmplbl_79   0x002d98    program     static                          
               __tmplbl_8   0x011a36    program     static                          
               __tmplbl_8   0x00f554    program     static                          
              __tmplbl_81   0x002d98    program     static                          
              __tmplbl_85   0x00da56    program     static                          
              __tmplbl_85   0x002d98    program     static                          
              __tmplbl_87   0x002d98    program     static                          
              __tmplbl_88   0x002d98    program     static                          
              __tmplbl_89   0x002d98    program     static                          
               __tmplbl_9   0x011a2e    program     static                          
               __tmplbl_9   0x00f53c    program     static                          
              __tmplbl_90   0x002d98    program     static                          
              __tmplbl_91   0x002d98    program     static                          
              __tmplbl_92   0x002d98    program     static                          
              __tmplbl_93   0x002d98    program     static                          
              __tmplbl_95   0x002d98    program     static                          
              __tmplbl_97   0x002d98    program     static                          
              __tmplbl_99   0x002d98    program     static                          
            __zero_memory   0x015d02    program     extern C:\MCC18\src\traditional\proc\p18F97J60.asm
                _do_cinit   0x015874    program     extern C:\Program Files\mcc18\src\traditional\startup\c018iz.c
                   _entry   0x000000    program     extern C:\Program Files\mcc18\src\traditional\startup\c018iz.c
                   _false   0x015bba    program     static                          
                 _startup   0x015c34    program     extern C:\Program Files\mcc18\src\traditional\startup\c018iz.c
              _usart_putc   0x015c92    program     extern C:\MCC18\src\pmc_common\USART\_usartpc.asm
               _user_putc   0x015d1c    program     extern C:\Program Files\mcc18\src\traditional\stdclib\_user_putc.c
          acLCDBlinkTitle   0x010498    program     extern D:\git\70M_Ku_Up\Drivers\External-Peripherals\oled_c2.c
               acLCDTitle   0x00ffe8    program     extern D:\git\70M_Ku_Up\Drivers\External-Peripherals\oled_c2.c
                    atof1   0x00c70a    program     extern D:\git\70M_Ku_Up\SysLib\util.c
                    atof5   0x00c674    program     extern D:\git\70M_Ku_Up\SysLib\util.c
                     atol   0x0152e4    program     extern C:\Program Files\mcc18\src\traditional\stdclib\atol.asm
             btohexa_high   0x00d40c    program     extern D:\git\70M_Ku_Up\Microchip\TCPIP Stack\Helpers.c
              btohexa_low   0x00d434    program     extern D:\git\70M_Ku_Up\Microchip\TCPIP Stack\Helpers.c
               clear_loop   0x015d08    program     static C:\MCC18\src\traditional\proc\p18F97J60.asm
                copy_loop   0x0158e6    program     static                          
            copy_one_byte   0x0158ec    program     static                          
                     done   0x015910    program     static                          
             done_copying   0x0158fa    program     static                          
                  endloop   0x015cc4    program     static                          
                  endloop   0x015be6    program     static                          
                  hexatob   0x00d3c2    program     extern D:\git\70M_Ku_Up\Microchip\TCPIP Stack\Helpers.c
         httpContentTypes   0x015a43    program     static D:\git\70M_Ku_Up\Microchip\TCPIP Stack\HTTP2.c
       httpFileExtensions   0x015a1f    program     static D:\git\70M_Ku_Up\Microchip\TCPIP Stack\HTTP2.c
                 i2cclock   0x0145f8    program     extern D:\git\70M_Ku_Up\Drivers\MCU-Internal\i2c_c1.c
                 i2cdelay   0x014646    program     extern D:\git\70M_Ku_Up\Drivers\MCU-Internal\i2c_c1.c
                i2cgetack   0x014624    program     extern D:\git\70M_Ku_Up\Drivers\MCU-Internal\i2c_c1.c
               i2cgetbyte   0x01459a    program     extern D:\git\70M_Ku_Up\Drivers\MCU-Internal\i2c_c1.c
               i2creadbit   0x014604    program     extern D:\git\70M_Ku_Up\Drivers\MCU-Internal\i2c_c1.c
               i2csendack   0x01463e    program     extern D:\git\70M_Ku_Up\Drivers\MCU-Internal\i2c_c1.c
              i2csendbyte   0x014568    program     extern D:\git\70M_Ku_Up\Drivers\MCU-Internal\i2c_c1.c
              i2csendnack   0x014642    program     extern D:\git\70M_Ku_Up\Drivers\MCU-Internal\i2c_c1.c
                 i2cstart   0x0145d2    program     extern D:\git\70M_Ku_Up\Drivers\MCU-Internal\i2c_c1.c
                  i2cstop   0x0145e6    program     extern D:\git\70M_Ku_Up\Drivers\MCU-Internal\i2c_c1.c
                  isdigit   0x015bec    program     extern C:\Program Files\mcc18\src\traditional\stdclib\isdigit.asm
                 jANotInf   0x011236    program     static C:\Program Files\mcc18\src\traditional\math\mulFP.asm
                 jANotInf   0x01106e    program     static C:\Program Files\mcc18\src\traditional\math\addFP.asm
                 jANotInf   0x011190    program     static C:\Program Files\mcc18\src\traditional\math\divFP.asm
                 jANotNeg   0x011102    program     static C:\Program Files\mcc18\src\traditional\math\addFP.asm
                jANotZero   0x0111a4    program     static C:\Program Files\mcc18\src\traditional\math\divFP.asm
              jAandWsetup   0x0110d2    program     static C:\Program Files\mcc18\src\traditional\math\addFP.asm
                  jAisNeg   0x0115d2    program     static C:\Program Files\mcc18\src\traditional\math\compFP.asm
                 jAltBexp   0x0110c0    program     static C:\Program Files\mcc18\src\traditional\math\addFP.asm
                jBANotInf   0x011064    program     static C:\Program Files\mcc18\src\traditional\math\addFP.asm
                 jBNotInf   0x01107c    program     static C:\Program Files\mcc18\src\traditional\math\addFP.asm
              jBothFinite   0x011244    program     static C:\Program Files\mcc18\src\traditional\math\mulFP.asm
             jBothNotZero   0x011250    program     static C:\Program Files\mcc18\src\traditional\math\mulFP.asm
             jBothNotZero   0x011574    program     static C:\Program Files\mcc18\src\traditional\math\compFP.asm
            jDifOrPosSign   0x011090    program     static C:\Program Files\mcc18\src\traditional\math\addFP.asm
                      jEQ   0x011590    program     static C:\Program Files\mcc18\src\traditional\math\compFP.asm
                     jEnd   0x013018    program     static C:\Program Files\mcc18\src\traditional\stdclib\memcpy.asm
                     jEnd   0x012fd2    program     static C:\Program Files\mcc18\src\traditional\stdclib\mcmpp2r.asm
                     jEnd   0x01306e    program     static C:\Program Files\mcc18\src\traditional\stdclib\mcpyp2r.asm
                     jEnd   0x0130a2    program     static C:\Program Files\mcc18\src\traditional\stdclib\memset.asm
                     jEnd   0x012f94    program     static C:\Program Files\mcc18\src\traditional\stdclib\memchr.asm
                     jEnd   0x013122    program     static C:\Program Files\mcc18\src\traditional\stdclib\scatp2r.asm
                     jEnd   0x01314a    program     static C:\Program Files\mcc18\src\traditional\stdclib\strchr.asm
                     jEnd   0x013176    program     static C:\Program Files\mcc18\src\traditional\stdclib\strcmp.asm
                     jEnd   0x0131b6    program     static C:\Program Files\mcc18\src\traditional\stdclib\scmpp2r.asm
                     jEnd   0x015402    program     static C:\Program Files\mcc18\src\traditional\stdclib\atol.asm
                     jEnd   0x01322a    program     static C:\Program Files\mcc18\src\traditional\stdclib\scpyp2r.asm
                     jEnd   0x013246    program     static C:\Program Files\mcc18\src\traditional\stdclib\strlen.asm
                     jEnd   0x01327e    program     static C:\Program Files\mcc18\src\traditional\stdclib\slenpgm.asm
                     jEnd   0x0132e2    program     static C:\Program Files\mcc18\src\traditional\stdclib\strncat.asm
                     jEnd   0x01333e    program     static C:\Program Files\mcc18\src\traditional\stdclib\strncpy.asm
                     jEnd   0x0133c4    program     static C:\Program Files\mcc18\src\traditional\stdclib\strupr.asm
                     jEnd   0x01339a    program     static C:\Program Files\mcc18\src\traditional\stdclib\sncpyp2r.asm
                 jEndLoop   0x0153d2    program     static C:\Program Files\mcc18\src\traditional\stdclib\atol.asm
                    jExch   0x01159c    program     static C:\Program Files\mcc18\src\traditional\math\compFP.asm
                    jExit   0x011530    program     static C:\Program Files\mcc18\src\traditional\math\castFP32.asm
                    jExit   0x0114c2    program     static C:\Program Files\mcc18\src\traditional\math\castFP16.asm
                   jExpEQ   0x0115e2    program     static C:\Program Files\mcc18\src\traditional\math\compFP.asm
                   jFinal   0x0115c6    program     static C:\Program Files\mcc18\src\traditional\math\compFP.asm
               jFinalSign   0x01116a    program     static C:\Program Files\mcc18\src\traditional\math\addFP.asm
                jHaveZero   0x01124c    program     static C:\Program Files\mcc18\src\traditional\math\mulFP.asm
                jI2F08Beg   0x011006    program     static C:\Program Files\mcc18\src\traditional\math\cast08FP.asm
                jI2F16Beg   0x01102e    program     static C:\Program Files\mcc18\src\traditional\math\cast16FP.asm
                    jLoop   0x0114a2    program     static C:\Program Files\mcc18\src\traditional\math\castFP16.asm
                    jLoop   0x01323c    program     static C:\Program Files\mcc18\src\traditional\stdclib\strlen.asm
                    jLoop   0x015344    program     static C:\Program Files\mcc18\src\traditional\stdclib\atol.asm
                    jLoop   0x013220    program     static C:\Program Files\mcc18\src\traditional\stdclib\scpyp2r.asm
                    jLoop   0x01331c    program     static C:\Program Files\mcc18\src\traditional\stdclib\strncpy.asm
                    jLoop   0x0131e0    program     static C:\Program Files\mcc18\src\traditional\stdclib\strcpy.asm
                    jLoop   0x013376    program     static C:\Program Files\mcc18\src\traditional\stdclib\sncpyp2r.asm
                    jLoop   0x013266    program     static C:\Program Files\mcc18\src\traditional\stdclib\slenpgm.asm
                    jLoop   0x0131aa    program     static C:\Program Files\mcc18\src\traditional\stdclib\scmpp2r.asm
                    jLoop   0x012f66    program     static C:\Program Files\mcc18\src\traditional\stdclib\memchr.asm
                    jLoop   0x01316c    program     static C:\Program Files\mcc18\src\traditional\stdclib\strcmp.asm
                    jLoop   0x0132c0    program     static C:\Program Files\mcc18\src\traditional\stdclib\strncat.asm
                    jLoop   0x013130    program     static C:\Program Files\mcc18\src\traditional\stdclib\strchr.asm
                    jLoop   0x0111cc    program     static C:\Program Files\mcc18\src\traditional\math\divFP.asm
                    jLoop   0x012ffc    program     static C:\Program Files\mcc18\src\traditional\stdclib\memcpy.asm
                    jLoop   0x013118    program     static C:\Program Files\mcc18\src\traditional\stdclib\scatp2r.asm
                    jLoop   0x011504    program     static C:\Program Files\mcc18\src\traditional\math\castFP32.asm
                    jLoop   0x013084    program     static C:\Program Files\mcc18\src\traditional\stdclib\memset.asm
                    jLoop   0x012fb4    program     static C:\Program Files\mcc18\src\traditional\stdclib\mcmpp2r.asm
                    jLoop   0x0130d2    program     static C:\Program Files\mcc18\src\traditional\stdclib\strcat.asm
                    jLoop   0x013050    program     static C:\Program Files\mcc18\src\traditional\stdclib\mcpyp2r.asm
                    jLoop   0x0133b0    program     static C:\Program Files\mcc18\src\traditional\stdclib\strupr.asm
                jLoopExit   0x0114b2    program     static C:\Program Files\mcc18\src\traditional\math\castFP16.asm
                jLoopExit   0x011518    program     static C:\Program Files\mcc18\src\traditional\math\castFP32.asm
                   jMatch   0x015c0c    program     static C:\Program Files\mcc18\src\traditional\stdclib\isdigit.asm
                   jMatch   0x013142    program     static C:\Program Files\mcc18\src\traditional\stdclib\strchr.asm
                     jMax   0x0114d4    program     static C:\Program Files\mcc18\src\traditional\math\castFP32.asm
                     jMax   0x011476    program     static C:\Program Files\mcc18\src\traditional\math\castFP16.asm
                  jMaxNeg   0x0114e6    program     static C:\Program Files\mcc18\src\traditional\math\castFP32.asm
                  jMaxNeg   0x011484    program     static C:\Program Files\mcc18\src\traditional\math\castFP16.asm
                  jMaxPos   0x0114d8    program     static C:\Program Files\mcc18\src\traditional\math\castFP32.asm
                  jMaxPos   0x01147a    program     static C:\Program Files\mcc18\src\traditional\math\castFP16.asm
                      jNE   0x011594    program     static C:\Program Files\mcc18\src\traditional\math\compFP.asm
                    jNext   0x0111f2    program     static C:\Program Files\mcc18\src\traditional\math\divFP.asm
                jNoAdjust   0x0111f0    program     static C:\Program Files\mcc18\src\traditional\math\divFP.asm
                  jNoExch   0x0115bc    program     static C:\Program Files\mcc18\src\traditional\math\compFP.asm
                 jNoMatch   0x015c0e    program     static C:\Program Files\mcc18\src\traditional\stdclib\isdigit.asm
                 jNoMatch   0x012f90    program     static C:\Program Files\mcc18\src\traditional\stdclib\memchr.asm
             jNotBothZero   0x011094    program     static C:\Program Files\mcc18\src\traditional\math\addFP.asm
                  jNotInf   0x011492    program     static C:\Program Files\mcc18\src\traditional\math\castFP16.asm
                  jNotInf   0x0114f2    program     static C:\Program Files\mcc18\src\traditional\math\castFP32.asm
                jNullLoop   0x0132ba    program     static C:\Program Files\mcc18\src\traditional\stdclib\strncat.asm
                jNullLoop   0x0130cc    program     static C:\Program Files\mcc18\src\traditional\stdclib\strcat.asm
                jNullLoop   0x013112    program     static C:\Program Files\mcc18\src\traditional\stdclib\scatp2r.asm
                  jPkLoop   0x011646    program     static C:\Program Files\mcc18\src\traditional\math\packFP.asm
             jPkRoundDone   0x011690    program     static C:\Program Files\mcc18\src\traditional\math\packFP.asm
               jPkRoundIt   0x011678    program     static C:\Program Files\mcc18\src\traditional\math\packFP.asm
             jPkShiftDone   0x011662    program     static C:\Program Files\mcc18\src\traditional\math\packFP.asm
           jReturnPosInf0   0x01161c    program     static C:\Program Files\mcc18\src\traditional\math\packFP.asm
                  jRotate   0x0115ee    program     static C:\Program Files\mcc18\src\traditional\math\compFP.asm
                   jShift   0x0115d8    program     static C:\Program Files\mcc18\src\traditional\math\compFP.asm
               jShiftDone   0x01112a    program     static C:\Program Files\mcc18\src\traditional\math\addFP.asm
               jShiftLoop   0x01111c    program     static C:\Program Files\mcc18\src\traditional\math\addFP.asm
                jSignDone   0x01115a    program     static C:\Program Files\mcc18\src\traditional\math\addFP.asm
              jSignedZero   0x01119a    program     static C:\Program Files\mcc18\src\traditional\math\divFP.asm
                 jSignsEQ   0x011578    program     static C:\Program Files\mcc18\src\traditional\math\compFP.asm
                    jSkip   0x0133c0    program     static C:\Program Files\mcc18\src\traditional\stdclib\strupr.asm
                  jSkipWS   0x01531a    program     static C:\Program Files\mcc18\src\traditional\stdclib\atol.asm
                 jSkipWS1   0x01532c    program     static C:\Program Files\mcc18\src\traditional\stdclib\atol.asm
                    jTerm   0x0132e0    program     static C:\Program Files\mcc18\src\traditional\stdclib\strncat.asm
                 jTstSign   0x015330    program     static C:\Program Files\mcc18\src\traditional\stdclib\atol.asm
                jTstSign1   0x01533c    program     static C:\Program Files\mcc18\src\traditional\stdclib\atol.asm
                jTstSign2   0x015342    program     static C:\Program Files\mcc18\src\traditional\stdclib\atol.asm
                jTstSign3   0x015344    program     static C:\Program Files\mcc18\src\traditional\stdclib\atol.asm
                  jUnpkA1   0x0116ba    program     static C:\Program Files\mcc18\src\traditional\math\UnpackFP.asm
                  jUnpkA2   0x0116d2    program     static C:\Program Files\mcc18\src\traditional\math\UnpackFP.asm
                 jUnpkANZ   0x0116c8    program     static C:\Program Files\mcc18\src\traditional\math\UnpackFP.asm
                  jUnpkB1   0x0116ea    program     static C:\Program Files\mcc18\src\traditional\math\UnpackFP.asm
                  jUnpkB2   0x011702    program     static C:\Program Files\mcc18\src\traditional\math\UnpackFP.asm
                 jUnpkBNZ   0x0116f8    program     static C:\Program Files\mcc18\src\traditional\math\UnpackFP.asm
                 jUnpkNaN   0x0116dc    program     static C:\Program Files\mcc18\src\traditional\math\UnpackFP.asm
                 jWNotNeg   0x011116    program     static C:\Program Files\mcc18\src\traditional\math\addFP.asm
                   jWr123   0x0114de    program     static C:\Program Files\mcc18\src\traditional\math\castFP32.asm
                  jWrZ123   0x0114ee    program     static C:\Program Files\mcc18\src\traditional\math\castFP32.asm
                    jZero   0x01148c    program     static C:\Program Files\mcc18\src\traditional\math\castFP16.asm
                    jZero   0x0114ec    program     static C:\Program Files\mcc18\src\traditional\math\castFP32.asm
               jZero1and2   0x011620    program     static C:\Program Files\mcc18\src\traditional\math\packFP.asm
          leftRotateDWORD   0x00d6b0    program     extern D:\git\70M_Ku_Up\Microchip\TCPIP Stack\Helpers.c
                     loop   0x015c48    program     static                          
                     loop   0x015b86    program     static                          
                     loop   0x015bca    program     static                          
                     loop   0x015ca2    program     static C:\MCC18\src\pmc_common\USART\_usartpc.asm
                     loop   0x015cb6    program     static                          
                     main   0x0140ce    program     extern D:\git\70M_Ku_Up\Main\Main.c
                   memchr   0x012f5a    program     extern C:\Program Files\mcc18\src\traditional\stdclib\memchr.asm
            memcmppgm2ram   0x012f96    program     extern C:\Program Files\mcc18\src\traditional\stdclib\mcmpp2r.asm
                   memcpy   0x012fd4    program     extern C:\Program Files\mcc18\src\traditional\stdclib\memcpy.asm
            memcpypgm2ram   0x01302a    program     extern C:\Program Files\mcc18\src\traditional\stdclib\mcpyp2r.asm
                   memset   0x013070    program     extern C:\Program Files\mcc18\src\traditional\stdclib\memset.asm
                     putc   0x015998    program     extern C:\Program Files\mcc18\src\traditional\stdclib\putc.c
                putsUSART   0x01571a    program     extern D:\git\70M_Ku_Up\Microchip\TCPIP Stack\UART.c
               putsUSART2   0x01576e    program     extern D:\git\70M_Ku_Up\Microchip\TCPIP Stack\UART.c
                     rand   0x015448    program     extern C:\Program Files\mcc18\src\traditional\stdclib\rand.asm
                 s_digits   0x015ce0    program     static C:\Program Files\mcc18\src\traditional\stdclib\vfprintf.c
            s_put_n_chars   0x00da00    program     static C:\Program Files\mcc18\src\traditional\stdclib\vfprintf.c
                  sprintf   0x0157c8    program     extern C:\Program Files\mcc18\src\traditional\stdclib\sprintf.c
                    srand   0x01543a    program     extern C:\Program Files\mcc18\src\traditional\stdclib\rand.asm
            stMenuDisplay   0x00fdcc    program     extern D:\git\70M_Ku_Up\Drivers\External-Peripherals\oled_c2.c
                   strcat   0x0130a4    program     extern C:\Program Files\mcc18\src\traditional\stdclib\strcat.asm
            strcatpgm2ram   0x0130ec    program     extern C:\Program Files\mcc18\src\traditional\stdclib\scatp2r.asm
                   strchr   0x013124    program     extern C:\Program Files\mcc18\src\traditional\stdclib\strchr.asm
                   strcmp   0x01314c    program     extern C:\Program Files\mcc18\src\traditional\stdclib\strcmp.asm
            strcmppgm2ram   0x01318c    program     extern C:\Program Files\mcc18\src\traditional\stdclib\scmpp2r.asm
                   strcpy   0x0131b8    program     extern C:\Program Files\mcc18\src\traditional\stdclib\strcpy.asm
            strcpypgm2ram   0x0131fa    program     extern C:\Program Files\mcc18\src\traditional\stdclib\scpyp2r.asm
           stricmppgm2ram   0x00d458    program     extern D:\git\70M_Ku_Up\Microchip\TCPIP Stack\Helpers.c
                   strlen   0x01322c    program     extern C:\Program Files\mcc18\src\traditional\stdclib\strlen.asm
                strlenpgm   0x013248    program     extern C:\Program Files\mcc18\src\traditional\stdclib\slenpgm.asm
                  strncat   0x013292    program     extern C:\Program Files\mcc18\src\traditional\stdclib\strncat.asm
                  strnchr   0x00d788    program     extern D:\git\70M_Ku_Up\Microchip\TCPIP Stack\Helpers.c
                  strncpy   0x0132f4    program     extern C:\Program Files\mcc18\src\traditional\stdclib\strncpy.asm
           strncpypgm2ram   0x013350    program     extern C:\Program Files\mcc18\src\traditional\stdclib\sncpyp2r.asm
                   strupr   0x01339c    program     extern C:\Program Files\mcc18\src\traditional\stdclib\strupr.asm
                    swapl   0x00d546    program     extern D:\git\70M_Ku_Up\Microchip\TCPIP Stack\Helpers.c
                    swaps   0x00d508    program     extern D:\git\70M_Ku_Up\Microchip\TCPIP Stack\Helpers.c
                     test   0x01588e    program     static                          
                    uitoa   0x00d2cc    program     extern D:\git\70M_Ku_Up\Microchip\TCPIP Stack\Helpers.c
                 vfprintf   0x00da2c    program     extern C:\Program Files\mcc18\src\traditional\stdclib\vfprintf.c
                 ADCInfo1   0x00059a       data     extern D:\git\70M_Ku_Up\Drivers\MCU-Internal\internalADC.c
                   ADCON0   0x000fc2       data     extern C:\MCC18\src\traditional\proc\p18F97J60.asm
               ADCON0bits   0x000fc2       data     extern C:\MCC18\src\traditional\proc\p18F97J60.asm
                   ADCON1   0x000fc1       data     extern C:\MCC18\src\traditional\proc\p18F97J60.asm
               ADCON1bits   0x000fc1       data     extern C:\MCC18\src\traditional\proc\p18F97J60.asm
                   ADCON2   0x000fc0       data     extern C:\MCC18\src\traditional\proc\p18F97J60.asm
               ADCON2bits   0x000fc0       data     extern C:\MCC18\src\traditional\proc\p18F97J60.asm
               ADC_result   0x0005a2       data     extern D:\git\70M_Ku_Up\Drivers\MCU-Internal\internalADC.c
                    ADRES   0x000fc3       data     extern C:\MCC18\src\traditional\proc\p18F97J60.asm
                   ADRESH   0x000fc4       data     extern C:\MCC18\src\traditional\proc\p18F97J60.asm
                   ADRESL   0x000fc3       data     extern C:\MCC18\src\traditional\proc\p18F97J60.asm
                AppConfig   0x0001c7       data     extern D:\git\70M_Ku_Up\Main\Main.c
             AttenString1   0x00012a       data     extern D:\git\70M_Ku_Up\Drivers\External-Peripherals\oled_c2.c
             AttenString2   0x000132       data     extern D:\git\70M_Ku_Up\Drivers\External-Peripherals\oled_c2.c
                  BAUDCON   0x000f7e       data     extern C:\MCC18\src\traditional\proc\p18F97J60.asm
                 BAUDCON1   0x000f7e       data     extern C:\MCC18\src\traditional\proc\p18F97J60.asm
             BAUDCON1bits   0x000f7e       data     extern C:\MCC18\src\traditional\proc\p18F97J60.asm
                 BAUDCON2   0x000f7c       data     extern C:\MCC18\src\traditional\proc\p18F97J60.asm
             BAUDCON2bits   0x000f7c       data     extern C:\MCC18\src\traditional\proc\p18F97J60.asm
              BAUDCONbits   0x000f7e       data     extern C:\MCC18\src\traditional\proc\p18F97J60.asm
                  BAUDCTL   0x000f7e       data     extern C:\MCC18\src\traditional\proc\p18F97J60.asm
                 BAUDCTL1   0x000f7e       data     extern C:\MCC18\src\traditional\proc\p18F97J60.asm
             BAUDCTL1bits   0x000f7e       data     extern C:\MCC18\src\traditional\proc\p18F97J60.asm
                 BAUDCTL2   0x000f7c       data     extern C:\MCC18\src\traditional\proc\p18F97J60.asm
             BAUDCTL2bits   0x000f7c       data     extern C:\MCC18\src\traditional\proc\p18F97J60.asm
              BAUDCTLbits   0x000f7e       data     extern C:\MCC18\src\traditional\proc\p18F97J60.asm
                      BSR   0x000fe0       data     extern C:\MCC18\src\traditional\proc\p18F97J60.asm
                  CCP1CON   0x000fbd       data     extern C:\MCC18\src\traditional\proc\p18F97J60.asm
              CCP1CONbits   0x000fbd       data     extern C:\MCC18\src\traditional\proc\p18F97J60.asm
                  CCP2CON   0x000fba       data     extern C:\MCC18\src\traditional\proc\p18F97J60.asm
              CCP2CONbits   0x000fba       data     extern C:\MCC18\src\traditional\proc\p18F97J60.asm
                  CCP3CON   0x000fb7       data     extern C:\MCC18\src\traditional\proc\p18F97J60.asm
              CCP3CONbits   0x000fb7       data     extern C:\MCC18\src\traditional\proc\p18F97J60.asm
                  CCP4CON   0x000f73       data     extern C:\MCC18\src\traditional\proc\p18F97J60.asm
              CCP4CONbits   0x000f73       data     extern C:\MCC18\src\traditional\proc\p18F97J60.asm
                  CCP5CON   0x000f70       data     extern C:\MCC18\src\traditional\proc\p18F97J60.asm
              CCP5CONbits   0x000f70       data     extern C:\MCC18\src\traditional\proc\p18F97J60.asm
                    CCPR1   0x000fbe       data     extern C:\MCC18\src\traditional\proc\p18F97J60.asm
                   CCPR1H   0x000fbf       data     extern C:\MCC18\src\traditional\proc\p18F97J60.asm
                   CCPR1L   0x000fbe       data     extern C:\MCC18\src\traditional\proc\p18F97J60.asm
                    CCPR2   0x000fbb       data     extern C:\MCC18\src\traditional\proc\p18F97J60.asm
                   CCPR2H   0x000fbc       data     extern C:\MCC18\src\traditional\proc\p18F97J60.asm
                   CCPR2L   0x000fbb       data     extern C:\MCC18\src\traditional\proc\p18F97J60.asm
                    CCPR3   0x000fb8       data     extern C:\MCC18\src\traditional\proc\p18F97J60.asm
                   CCPR3H   0x000fb9       data     extern C:\MCC18\src\traditional\proc\p18F97J60.asm
                   CCPR3L   0x000fb8       data     extern C:\MCC18\src\traditional\proc\p18F97J60.asm
                    CCPR4   0x000f74       data     extern C:\MCC18\src\traditional\proc\p18F97J60.asm
                   CCPR4H   0x000f75       data     extern C:\MCC18\src\traditional\proc\p18F97J60.asm
                   CCPR4L   0x000f74       data     extern C:\MCC18\src\traditional\proc\p18F97J60.asm
                    CCPR5   0x000f71       data     extern C:\MCC18\src\traditional\proc\p18F97J60.asm
                   CCPR5H   0x000f72       data     extern C:\MCC18\src\traditional\proc\p18F97J60.asm
                   CCPR5L   0x000f71       data     extern C:\MCC18\src\traditional\proc\p18F97J60.asm
                    CMCON   0x000fb4       data     extern C:\MCC18\src\traditional\proc\p18F97J60.asm
                CMCONbits   0x000fb4       data     extern C:\MCC18\src\traditional\proc\p18F97J60.asm
                   CVRCON   0x000fb5       data     extern C:\MCC18\src\traditional\proc\p18F97J60.asm
               CVRCONbits   0x000fb5       data     extern C:\MCC18\src\traditional\proc\p18F97J60.asm
                    Cache   0x000e6c       data     static D:\git\70M_Ku_Up\Microchip\TCPIP Stack\ARP.c
              ConvertMenu   0x000250       data     extern D:\git\70M_Ku_Up\Drivers\External-Peripherals\oled_c2.c
              CurrentMenu   0x0001b8       data     extern D:\git\70M_Ku_Up\Drivers\External-Peripherals\oled_c2.c
    CurrentPacketLocation   0x0005b8       data     static D:\git\70M_Ku_Up\Microchip\TCPIP Stack\ETH97J60.c
                     DDRA   0x000f92       data     extern C:\MCC18\src\traditional\proc\p18F97J60.asm
                 DDRAbits   0x000f92       data     extern C:\MCC18\src\traditional\proc\p18F97J60.asm
                     DDRB   0x000f93       data     extern C:\MCC18\src\traditional\proc\p18F97J60.asm
                 DDRBbits   0x000f93       data     extern C:\MCC18\src\traditional\proc\p18F97J60.asm
                     DDRC   0x000f94       data     extern C:\MCC18\src\traditional\proc\p18F97J60.asm
                 DDRCbits   0x000f94       data     extern C:\MCC18\src\traditional\proc\p18F97J60.asm
                     DDRD   0x000f95       data     extern C:\MCC18\src\traditional\proc\p18F97J60.asm
                 DDRDbits   0x000f95       data     extern C:\MCC18\src\traditional\proc\p18F97J60.asm
                     DDRE   0x000f96       data     extern C:\MCC18\src\traditional\proc\p18F97J60.asm
                 DDREbits   0x000f96       data     extern C:\MCC18\src\traditional\proc\p18F97J60.asm
                     DDRF   0x000f97       data     extern C:\MCC18\src\traditional\proc\p18F97J60.asm
                 DDRFbits   0x000f97       data     extern C:\MCC18\src\traditional\proc\p18F97J60.asm
                     DDRG   0x000f98       data     extern C:\MCC18\src\traditional\proc\p18F97J60.asm
                 DDRGbits   0x000f98       data     extern C:\MCC18\src\traditional\proc\p18F97J60.asm
                     DDRH   0x000f99       data     extern C:\MCC18\src\traditional\proc\p18F97J60.asm
                 DDRHbits   0x000f99       data     extern C:\MCC18\src\traditional\proc\p18F97J60.asm
                     DDRJ   0x000f9a       data     extern C:\MCC18\src\traditional\proc\p18F97J60.asm
                 DDRJbits   0x000f9a       data     extern C:\MCC18\src\traditional\proc\p18F97J60.asm
            DelayCounter1   0x000025       data     extern C:\Program Files\mcc18\src\traditional\delays\delayd1.asm
                  ECCP1AS   0x000fb6       data     extern C:\MCC18\src\traditional\proc\p18F97J60.asm
              ECCP1ASbits   0x000fb6       data     extern C:\MCC18\src\traditional\proc\p18F97J60.asm
                 ECCP1CON   0x000fbd       data     extern C:\MCC18\src\traditional\proc\p18F97J60.asm
             ECCP1CONbits   0x000fbd       data     extern C:\MCC18\src\traditional\proc\p18F97J60.asm
                 ECCP1DEL   0x000f79       data     extern C:\MCC18\src\traditional\proc\p18F97J60.asm
             ECCP1DELbits   0x000f79       data     extern C:\MCC18\src\traditional\proc\p18F97J60.asm
                  ECCP2AS   0x000f68       data     extern C:\MCC18\src\traditional\proc\p18F97J60.asm
              ECCP2ASbits   0x000f68       data     extern C:\MCC18\src\traditional\proc\p18F97J60.asm
                 ECCP2CON   0x000fba       data     extern C:\MCC18\src\traditional\proc\p18F97J60.asm
             ECCP2CONbits   0x000fba       data     extern C:\MCC18\src\traditional\proc\p18F97J60.asm
                 ECCP2DEL   0x000f67       data     extern C:\MCC18\src\traditional\proc\p18F97J60.asm
             ECCP2DELbits   0x000f67       data     extern C:\MCC18\src\traditional\proc\p18F97J60.asm
                  ECCP3AS   0x000f6a       data     extern C:\MCC18\src\traditional\proc\p18F97J60.asm
              ECCP3ASbits   0x000f6a       data     extern C:\MCC18\src\traditional\proc\p18F97J60.asm
                 ECCP3CON   0x000fb7       data     extern C:\MCC18\src\traditional\proc\p18F97J60.asm
             ECCP3CONbits   0x000fb7       data     extern C:\MCC18\src\traditional\proc\p18F97J60.asm
                 ECCP3DEL   0x000f69       data     extern C:\MCC18\src\traditional\proc\p18F97J60.asm
             ECCP3DELbits   0x000f69       data     extern C:\MCC18\src\traditional\proc\p18F97J60.asm
                    ECON1   0x000fd2       data     extern C:\MCC18\src\traditional\proc\p18F97J60.asm
                ECON1bits   0x000fd2       data     extern C:\MCC18\src\traditional\proc\p18F97J60.asm
                    ECON2   0x000efe       data     extern C:\MCC18\src\traditional\proc\p18F97J60.asm
                ECON2bits   0x000efe       data     extern C:\MCC18\src\traditional\proc\p18F97J60.asm
                    EDATA   0x000f61       data     extern C:\MCC18\src\traditional\proc\p18F97J60.asm
                EDATAbits   0x000f61       data     extern C:\MCC18\src\traditional\proc\p18F97J60.asm
                   EDMACS   0x000ef6       data     extern C:\MCC18\src\traditional\proc\p18F97J60.asm
                  EDMACSH   0x000ef7       data     extern C:\MCC18\src\traditional\proc\p18F97J60.asm
                  EDMACSL   0x000ef6       data     extern C:\MCC18\src\traditional\proc\p18F97J60.asm
                  EDMADST   0x000ef4       data     extern C:\MCC18\src\traditional\proc\p18F97J60.asm
                 EDMADSTH   0x000ef5       data     extern C:\MCC18\src\traditional\proc\p18F97J60.asm
                 EDMADSTL   0x000ef4       data     extern C:\MCC18\src\traditional\proc\p18F97J60.asm
                   EDMAND   0x000ef2       data     extern C:\MCC18\src\traditional\proc\p18F97J60.asm
                  EDMANDH   0x000ef3       data     extern C:\MCC18\src\traditional\proc\p18F97J60.asm
                  EDMANDL   0x000ef2       data     extern C:\MCC18\src\traditional\proc\p18F97J60.asm
                   EDMAST   0x000ef0       data     extern C:\MCC18\src\traditional\proc\p18F97J60.asm
                  EDMASTH   0x000ef1       data     extern C:\MCC18\src\traditional\proc\p18F97J60.asm
                  EDMASTL   0x000ef0       data     extern C:\MCC18\src\traditional\proc\p18F97J60.asm
                   EECON1   0x000fa6       data     extern C:\MCC18\src\traditional\proc\p18F97J60.asm
               EECON1bits   0x000fa6       data     extern C:\MCC18\src\traditional\proc\p18F97J60.asm
                   EECON2   0x000fa7       data     extern C:\MCC18\src\traditional\proc\p18F97J60.asm
            EEPROMAddress   0x000e47       data     static D:\git\70M_Ku_Up\Microchip\TCPIP Stack\SPIEEPROM.c
             EEPROMBuffer   0x000e4b       data     static D:\git\70M_Ku_Up\Microchip\TCPIP Stack\SPIEEPROM.c
                  EFLOCON   0x000e97       data     extern C:\MCC18\src\traditional\proc\p18F97J60.asm
              EFLOCONbits   0x000e97       data     extern C:\MCC18\src\traditional\proc\p18F97J60.asm
                     EHT0   0x000ec0       data     extern C:\MCC18\src\traditional\proc\p18F97J60.asm
                     EHT1   0x000ec1       data     extern C:\MCC18\src\traditional\proc\p18F97J60.asm
                     EHT2   0x000ec2       data     extern C:\MCC18\src\traditional\proc\p18F97J60.asm
                     EHT3   0x000ec3       data     extern C:\MCC18\src\traditional\proc\p18F97J60.asm
                     EHT4   0x000ec4       data     extern C:\MCC18\src\traditional\proc\p18F97J60.asm
                     EHT5   0x000ec5       data     extern C:\MCC18\src\traditional\proc\p18F97J60.asm
                     EHT6   0x000ec6       data     extern C:\MCC18\src\traditional\proc\p18F97J60.asm
                     EHT7   0x000ec7       data     extern C:\MCC18\src\traditional\proc\p18F97J60.asm
                      EIE   0x000efb       data     extern C:\MCC18\src\traditional\proc\p18F97J60.asm
                  EIEbits   0x000efb       data     extern C:\MCC18\src\traditional\proc\p18F97J60.asm
                      EIR   0x000f60       data     extern C:\MCC18\src\traditional\proc\p18F97J60.asm
                  EIRbits   0x000f60       data     extern C:\MCC18\src\traditional\proc\p18F97J60.asm
                    EPAUS   0x000e98       data     extern C:\MCC18\src\traditional\proc\p18F97J60.asm
                   EPAUSH   0x000e99       data     extern C:\MCC18\src\traditional\proc\p18F97J60.asm
                   EPAUSL   0x000e98       data     extern C:\MCC18\src\traditional\proc\p18F97J60.asm
                  EPKTCNT   0x000ed9       data     extern C:\MCC18\src\traditional\proc\p18F97J60.asm
                    EPMCS   0x000ed0       data     extern C:\MCC18\src\traditional\proc\p18F97J60.asm
                   EPMCSH   0x000ed1       data     extern C:\MCC18\src\traditional\proc\p18F97J60.asm
                   EPMCSL   0x000ed0       data     extern C:\MCC18\src\traditional\proc\p18F97J60.asm
                    EPMM0   0x000ec8       data     extern C:\MCC18\src\traditional\proc\p18F97J60.asm
                    EPMM1   0x000ec9       data     extern C:\MCC18\src\traditional\proc\p18F97J60.asm
                    EPMM2   0x000eca       data     extern C:\MCC18\src\traditional\proc\p18F97J60.asm
                    EPMM3   0x000ecb       data     extern C:\MCC18\src\traditional\proc\p18F97J60.asm
                    EPMM4   0x000ecc       data     extern C:\MCC18\src\traditional\proc\p18F97J60.asm
                    EPMM5   0x000ecd       data     extern C:\MCC18\src\traditional\proc\p18F97J60.asm
                    EPMM6   0x000ece       data     extern C:\MCC18\src\traditional\proc\p18F97J60.asm
                    EPMM7   0x000ecf       data     extern C:\MCC18\src\traditional\proc\p18F97J60.asm
                     EPMO   0x000ed4       data     extern C:\MCC18\src\traditional\proc\p18F97J60.asm
                    EPMOH   0x000ed5       data     extern C:\MCC18\src\traditional\proc\p18F97J60.asm
                    EPMOL   0x000ed4       data     extern C:\MCC18\src\traditional\proc\p18F97J60.asm
                    ERDPT   0x000f7a       data     extern C:\MCC18\src\traditional\proc\p18F97J60.asm
                   ERDPTH   0x000f7b       data     extern C:\MCC18\src\traditional\proc\p18F97J60.asm
                   ERDPTL   0x000f7a       data     extern C:\MCC18\src\traditional\proc\p18F97J60.asm
                  ERXFCON   0x000ed8       data     extern C:\MCC18\src\traditional\proc\p18F97J60.asm
              ERXFCONbits   0x000ed8       data     extern C:\MCC18\src\traditional\proc\p18F97J60.asm
                    ERXND   0x000eea       data     extern C:\MCC18\src\traditional\proc\p18F97J60.asm
                   ERXNDH   0x000eeb       data     extern C:\MCC18\src\traditional\proc\p18F97J60.asm
                   ERXNDL   0x000eea       data     extern C:\MCC18\src\traditional\proc\p18F97J60.asm
                  ERXRDPT   0x000eec       data     extern C:\MCC18\src\traditional\proc\p18F97J60.asm
                 ERXRDPTH   0x000eed       data     extern C:\MCC18\src\traditional\proc\p18F97J60.asm
                 ERXRDPTL   0x000eec       data     extern C:\MCC18\src\traditional\proc\p18F97J60.asm
                    ERXST   0x000ee8       data     extern C:\MCC18\src\traditional\proc\p18F97J60.asm
                   ERXSTH   0x000ee9       data     extern C:\MCC18\src\traditional\proc\p18F97J60.asm
                   ERXSTL   0x000ee8       data     extern C:\MCC18\src\traditional\proc\p18F97J60.asm
                  ERXWRPT   0x000eee       data     extern C:\MCC18\src\traditional\proc\p18F97J60.asm
                 ERXWRPTH   0x000eef       data     extern C:\MCC18\src\traditional\proc\p18F97J60.asm
                 ERXWRPTL   0x000eee       data     extern C:\MCC18\src\traditional\proc\p18F97J60.asm
                    ESTAT   0x000efd       data     extern C:\MCC18\src\traditional\proc\p18F97J60.asm
                ESTATbits   0x000efd       data     extern C:\MCC18\src\traditional\proc\p18F97J60.asm
                    ETXND   0x000ee6       data     extern C:\MCC18\src\traditional\proc\p18F97J60.asm
                   ETXNDH   0x000ee7       data     extern C:\MCC18\src\traditional\proc\p18F97J60.asm
                   ETXNDL   0x000ee6       data     extern C:\MCC18\src\traditional\proc\p18F97J60.asm
                    ETXST   0x000ee4       data     extern C:\MCC18\src\traditional\proc\p18F97J60.asm
                   ETXSTH   0x000ee5       data     extern C:\MCC18\src\traditional\proc\p18F97J60.asm
                   ETXSTL   0x000ee4       data     extern C:\MCC18\src\traditional\proc\p18F97J60.asm
                    EWRPT   0x000ee2       data     extern C:\MCC18\src\traditional\proc\p18F97J60.asm
                   EWRPTH   0x000ee3       data     extern C:\MCC18\src\traditional\proc\p18F97J60.asm
                   EWRPTL   0x000ee2       data     extern C:\MCC18\src\traditional\proc\p18F97J60.asm
                 EditMode   0x0001be       data     extern D:\git\70M_Ku_Up\Drivers\External-Peripherals\oled_c2.c
             EditPosition   0x0001bf       data     extern D:\git\70M_Ku_Up\Drivers\External-Peripherals\oled_c2.c
           EditUpdateFlag   0x0001bc       data     extern D:\git\70M_Ku_Up\Drivers\External-Peripherals\oled_c2.c
                     FSR0   0x000fe9       data     extern C:\MCC18\src\traditional\proc\p18F97J60.asm
                    FSR0H   0x000fea       data     extern C:\MCC18\src\traditional\proc\p18F97J60.asm
                    FSR0L   0x000fe9       data     extern C:\MCC18\src\traditional\proc\p18F97J60.asm
                     FSR1   0x000fe1       data     extern C:\MCC18\src\traditional\proc\p18F97J60.asm
                    FSR1H   0x000fe2       data     extern C:\MCC18\src\traditional\proc\p18F97J60.asm
                    FSR1L   0x000fe1       data     extern C:\MCC18\src\traditional\proc\p18F97J60.asm
                     FSR2   0x000fd9       data     extern C:\MCC18\src\traditional\proc\p18F97J60.asm
                    FSR2H   0x000fda       data     extern C:\MCC18\src\traditional\proc\p18F97J60.asm
                    FSR2L   0x000fd9       data     extern C:\MCC18\src\traditional\proc\p18F97J60.asm
          FirmwareVersion   0x000578       data     extern D:\git\70M_Ku_Up\Main\Main.c
            FirstPressKey   0x0001c0       data     extern D:\git\70M_Ku_Up\Drivers\External-Peripherals\oled_c2.c
              HardwareWDT   0x00057e       data     extern D:\git\70M_Ku_Up\Main\Main.c
         I2CReceiveBuffer   0x0000f0       data     extern D:\git\70M_Ku_Up\Drivers\MCU-Internal\i2c_c1.c
          I2CSlaveAddress   0x0005d7       data     extern D:\git\70M_Ku_Up\App\WebUI\HTTPGetDevInfo.c
                    INDF0   0x000fef       data     extern C:\MCC18\src\traditional\proc\p18F97J60.asm
                    INDF1   0x000fe7       data     extern C:\MCC18\src\traditional\proc\p18F97J60.asm
                    INDF2   0x000fdf       data     extern C:\MCC18\src\traditional\proc\p18F97J60.asm
                   INTCON   0x000ff2       data     extern C:\MCC18\src\traditional\proc\p18F97J60.asm
                  INTCON2   0x000ff1       data     extern C:\MCC18\src\traditional\proc\p18F97J60.asm
              INTCON2bits   0x000ff1       data     extern C:\MCC18\src\traditional\proc\p18F97J60.asm
                  INTCON3   0x000ff0       data     extern C:\MCC18\src\traditional\proc\p18F97J60.asm
              INTCON3bits   0x000ff0       data     extern C:\MCC18\src\traditional\proc\p18F97J60.asm
               INTCONbits   0x000ff2       data     extern C:\MCC18\src\traditional\proc\p18F97J60.asm
              IPHeaderLen   0x0005db       data     static D:\git\70M_Ku_Up\Microchip\TCPIP Stack\IP.c
                     IPR1   0x000f9f       data     extern C:\MCC18\src\traditional\proc\p18F97J60.asm
                 IPR1bits   0x000f9f       data     extern C:\MCC18\src\traditional\proc\p18F97J60.asm
                     IPR2   0x000fa2       data     extern C:\MCC18\src\traditional\proc\p18F97J60.asm
                 IPR2bits   0x000fa2       data     extern C:\MCC18\src\traditional\proc\p18F97J60.asm
                     IPR3   0x000fa5       data     extern C:\MCC18\src\traditional\proc\p18F97J60.asm
                 IPR3bits   0x000fa5       data     extern C:\MCC18\src\traditional\proc\p18F97J60.asm
                 IPString   0x00013a       data     extern D:\git\70M_Ku_Up\Drivers\External-Peripherals\oled_c2.c
           KeyPressedFlag   0x0001b9       data     extern D:\git\70M_Ku_Up\Drivers\External-Peripherals\oled_c2.c
                        L   0x0005d2       data     extern D:\git\70M_Ku_Up\SysLib\util.c
                     LATA   0x000f89       data     extern C:\MCC18\src\traditional\proc\p18F97J60.asm
                 LATAbits   0x000f89       data     extern C:\MCC18\src\traditional\proc\p18F97J60.asm
                     LATB   0x000f8a       data     extern C:\MCC18\src\traditional\proc\p18F97J60.asm
                 LATBbits   0x000f8a       data     extern C:\MCC18\src\traditional\proc\p18F97J60.asm
                     LATC   0x000f8b       data     extern C:\MCC18\src\traditional\proc\p18F97J60.asm
                 LATCbits   0x000f8b       data     extern C:\MCC18\src\traditional\proc\p18F97J60.asm
                     LATD   0x000f8c       data     extern C:\MCC18\src\traditional\proc\p18F97J60.asm
                 LATDbits   0x000f8c       data     extern C:\MCC18\src\traditional\proc\p18F97J60.asm
                     LATE   0x000f8d       data     extern C:\MCC18\src\traditional\proc\p18F97J60.asm
                 LATEbits   0x000f8d       data     extern C:\MCC18\src\traditional\proc\p18F97J60.asm
                     LATF   0x000f8e       data     extern C:\MCC18\src\traditional\proc\p18F97J60.asm
                 LATFbits   0x000f8e       data     extern C:\MCC18\src\traditional\proc\p18F97J60.asm
                     LATG   0x000f8f       data     extern C:\MCC18\src\traditional\proc\p18F97J60.asm
                 LATGbits   0x000f8f       data     extern C:\MCC18\src\traditional\proc\p18F97J60.asm
                     LATH   0x000f90       data     extern C:\MCC18\src\traditional\proc\p18F97J60.asm
                 LATHbits   0x000f90       data     extern C:\MCC18\src\traditional\proc\p18F97J60.asm
                     LATJ   0x000f91       data     extern C:\MCC18\src\traditional\proc\p18F97J60.asm
                 LATJbits   0x000f91       data     extern C:\MCC18\src\traditional\proc\p18F97J60.asm
           LCDBlinkBuffer   0x000200       data     extern D:\git\70M_Ku_Up\Drivers\External-Peripherals\oled_c2.c
        LCDBufferPosition   0x000e00       data     extern D:\git\70M_Ku_Up\Drivers\External-Peripherals\oled_c2.c
           LCDPrintBuffer   0x000060       data     extern D:\git\70M_Ku_Up\Drivers\External-Peripherals\oled_c2.c
          LOStatusString1   0x000100       data     extern D:\git\70M_Ku_Up\Drivers\External-Peripherals\oled_c2.c
          LOStatusString2   0x000109       data     extern D:\git\70M_Ku_Up\Drivers\External-Peripherals\oled_c2.c
                 LastMenu   0x0001b7       data     extern D:\git\70M_Ku_Up\Drivers\External-Peripherals\oled_c2.c
                   MAADR1   0x000e84       data     extern C:\MCC18\src\traditional\proc\p18F97J60.asm
                   MAADR2   0x000e85       data     extern C:\MCC18\src\traditional\proc\p18F97J60.asm
                   MAADR3   0x000e82       data     extern C:\MCC18\src\traditional\proc\p18F97J60.asm
                   MAADR4   0x000e83       data     extern C:\MCC18\src\traditional\proc\p18F97J60.asm
                   MAADR5   0x000e80       data     extern C:\MCC18\src\traditional\proc\p18F97J60.asm
                   MAADR6   0x000e81       data     extern C:\MCC18\src\traditional\proc\p18F97J60.asm
                  MABBIPG   0x000ea4       data     extern C:\MCC18\src\traditional\proc\p18F97J60.asm
                   MACON1   0x000ea0       data     extern C:\MCC18\src\traditional\proc\p18F97J60.asm
               MACON1bits   0x000ea0       data     extern C:\MCC18\src\traditional\proc\p18F97J60.asm
                   MACON3   0x000ea2       data     extern C:\MCC18\src\traditional\proc\p18F97J60.asm
               MACON3bits   0x000ea2       data     extern C:\MCC18\src\traditional\proc\p18F97J60.asm
                   MACON4   0x000ea3       data     extern C:\MCC18\src\traditional\proc\p18F97J60.asm
               MACON4bits   0x000ea3       data     extern C:\MCC18\src\traditional\proc\p18F97J60.asm
                    MAIPG   0x000ea6       data     extern C:\MCC18\src\traditional\proc\p18F97J60.asm
                   MAIPGH   0x000ea7       data     extern C:\MCC18\src\traditional\proc\p18F97J60.asm
                   MAIPGL   0x000ea6       data     extern C:\MCC18\src\traditional\proc\p18F97J60.asm
                   MAMXFL   0x000eaa       data     extern C:\MCC18\src\traditional\proc\p18F97J60.asm
                  MAMXFLH   0x000eab       data     extern C:\MCC18\src\traditional\proc\p18F97J60.asm
                  MAMXFLL   0x000eaa       data     extern C:\MCC18\src\traditional\proc\p18F97J60.asm
                   MEMCON   0x000f9c       data     extern C:\MCC18\src\traditional\proc\p18F97J60.asm
               MEMCONbits   0x000f9c       data     extern C:\MCC18\src\traditional\proc\p18F97J60.asm
                    MICMD   0x000eb2       data     extern C:\MCC18\src\traditional\proc\p18F97J60.asm
                MICMDbits   0x000eb2       data     extern C:\MCC18\src\traditional\proc\p18F97J60.asm
                     MIRD   0x000eb8       data     extern C:\MCC18\src\traditional\proc\p18F97J60.asm
                    MIRDH   0x000eb9       data     extern C:\MCC18\src\traditional\proc\p18F97J60.asm
                    MIRDL   0x000eb8       data     extern C:\MCC18\src\traditional\proc\p18F97J60.asm
                 MIREGADR   0x000eb4       data     extern C:\MCC18\src\traditional\proc\p18F97J60.asm
                   MISTAT   0x000e8a       data     extern C:\MCC18\src\traditional\proc\p18F97J60.asm
               MISTATbits   0x000e8a       data     extern C:\MCC18\src\traditional\proc\p18F97J60.asm
                     MIWR   0x000eb6       data     extern C:\MCC18\src\traditional\proc\p18F97J60.asm
                    MIWRH   0x000eb7       data     extern C:\MCC18\src\traditional\proc\p18F97J60.asm
                    MIWRL   0x000eb6       data     extern C:\MCC18\src\traditional\proc\p18F97J60.asm
                 MNString   0x00014a       data     extern D:\git\70M_Ku_Up\Drivers\External-Peripherals\oled_c2.c
                MPFSStubs   0x000484       data     static D:\git\70M_Ku_Up\Microchip\TCPIP Stack\MPFS2.c
               Manager_IP   0x0005c2       data     extern D:\git\70M_Ku_Up\Bootstrap\Initialization.c
            MinuteCounter   0x00057d       data     extern D:\git\70M_Ku_Up\Main\Main.c
           MyStaticIPAddr   0x0003f0       data     extern D:\git\70M_Ku_Up\Main\Main.c
                    MyTCB   0x000f02       data     static D:\git\70M_Ku_Up\Microchip\TCPIP Stack\TCP.c
                MyTCBStub   0x000f27       data     static D:\git\70M_Ku_Up\Microchip\TCPIP Stack\TCP.c
       NextPacketLocation   0x0005b6       data     static D:\git\70M_Ku_Up\Microchip\TCPIP Stack\ETH97J60.c
                 NextPort   0x000f00       data     static D:\git\70M_Ku_Up\Microchip\TCPIP Stack\TCP.c
                   OSCCON   0x000fd3       data     extern C:\MCC18\src\traditional\proc\p18F97J60.asm
               OSCCONbits   0x000fd3       data     extern C:\MCC18\src\traditional\proc\p18F97J60.asm
                  OSCTUNE   0x000f9b       data     extern C:\MCC18\src\traditional\proc\p18F97J60.asm
              OSCTUNEbits   0x000f9b       data     extern C:\MCC18\src\traditional\proc\p18F97J60.asm
                       PC   0x000ff9       data     extern C:\MCC18\src\traditional\proc\p18F97J60.asm
                      PCL   0x000ff9       data     extern C:\MCC18\src\traditional\proc\p18F97J60.asm
                   PCLATH   0x000ffa       data     extern C:\MCC18\src\traditional\proc\p18F97J60.asm
                   PCLATU   0x000ffb       data     extern C:\MCC18\src\traditional\proc\p18F97J60.asm
                     PIE1   0x000f9d       data     extern C:\MCC18\src\traditional\proc\p18F97J60.asm
                 PIE1bits   0x000f9d       data     extern C:\MCC18\src\traditional\proc\p18F97J60.asm
                     PIE2   0x000fa0       data     extern C:\MCC18\src\traditional\proc\p18F97J60.asm
                 PIE2bits   0x000fa0       data     extern C:\MCC18\src\traditional\proc\p18F97J60.asm
                     PIE3   0x000fa3       data     extern C:\MCC18\src\traditional\proc\p18F97J60.asm
                 PIE3bits   0x000fa3       data     extern C:\MCC18\src\traditional\proc\p18F97J60.asm
                     PIR1   0x000f9e       data     extern C:\MCC18\src\traditional\proc\p18F97J60.asm
                 PIR1bits   0x000f9e       data     extern C:\MCC18\src\traditional\proc\p18F97J60.asm
                     PIR2   0x000fa1       data     extern C:\MCC18\src\traditional\proc\p18F97J60.asm
                 PIR2bits   0x000fa1       data     extern C:\MCC18\src\traditional\proc\p18F97J60.asm
                     PIR3   0x000fa4       data     extern C:\MCC18\src\traditional\proc\p18F97J60.asm
                 PIR3bits   0x000fa4       data     extern C:\MCC18\src\traditional\proc\p18F97J60.asm
                   PLUSW0   0x000feb       data     extern C:\MCC18\src\traditional\proc\p18F97J60.asm
                   PLUSW1   0x000fe3       data     extern C:\MCC18\src\traditional\proc\p18F97J60.asm
                   PLUSW2   0x000fdb       data     extern C:\MCC18\src\traditional\proc\p18F97J60.asm
                    PORTA   0x000f80       data     extern C:\MCC18\src\traditional\proc\p18F97J60.asm
                PORTAbits   0x000f80       data     extern C:\MCC18\src\traditional\proc\p18F97J60.asm
                    PORTB   0x000f81       data     extern C:\MCC18\src\traditional\proc\p18F97J60.asm
                PORTBbits   0x000f81       data     extern C:\MCC18\src\traditional\proc\p18F97J60.asm
                    PORTC   0x000f82       data     extern C:\MCC18\src\traditional\proc\p18F97J60.asm
                PORTCbits   0x000f82       data     extern C:\MCC18\src\traditional\proc\p18F97J60.asm
                    PORTD   0x000f83       data     extern C:\MCC18\src\traditional\proc\p18F97J60.asm
                PORTDbits   0x000f83       data     extern C:\MCC18\src\traditional\proc\p18F97J60.asm
                    PORTE   0x000f84       data     extern C:\MCC18\src\traditional\proc\p18F97J60.asm
                PORTEbits   0x000f84       data     extern C:\MCC18\src\traditional\proc\p18F97J60.asm
                    PORTF   0x000f85       data     extern C:\MCC18\src\traditional\proc\p18F97J60.asm
                PORTFbits   0x000f85       data     extern C:\MCC18\src\traditional\proc\p18F97J60.asm
                    PORTG   0x000f86       data     extern C:\MCC18\src\traditional\proc\p18F97J60.asm
                PORTGbits   0x000f86       data     extern C:\MCC18\src\traditional\proc\p18F97J60.asm
                    PORTH   0x000f87       data     extern C:\MCC18\src\traditional\proc\p18F97J60.asm
                PORTHbits   0x000f87       data     extern C:\MCC18\src\traditional\proc\p18F97J60.asm
                    PORTJ   0x000f88       data     extern C:\MCC18\src\traditional\proc\p18F97J60.asm
                PORTJbits   0x000f88       data     extern C:\MCC18\src\traditional\proc\p18F97J60.asm
                 POSTDEC0   0x000fed       data     extern C:\MCC18\src\traditional\proc\p18F97J60.asm
                 POSTDEC1   0x000fe5       data     extern C:\MCC18\src\traditional\proc\p18F97J60.asm
                 POSTDEC2   0x000fdd       data     extern C:\MCC18\src\traditional\proc\p18F97J60.asm
                 POSTINC0   0x000fee       data     extern C:\MCC18\src\traditional\proc\p18F97J60.asm
                 POSTINC1   0x000fe6       data     extern C:\MCC18\src\traditional\proc\p18F97J60.asm
                 POSTINC2   0x000fde       data     extern C:\MCC18\src\traditional\proc\p18F97J60.asm
                      PR2   0x000fcb       data     extern C:\MCC18\src\traditional\proc\p18F97J60.asm
                      PR4   0x000f77       data     extern C:\MCC18\src\traditional\proc\p18F97J60.asm
                  PREINC0   0x000fec       data     extern C:\MCC18\src\traditional\proc\p18F97J60.asm
                  PREINC1   0x000fe4       data     extern C:\MCC18\src\traditional\proc\p18F97J60.asm
                  PREINC2   0x000fdc       data     extern C:\MCC18\src\traditional\proc\p18F97J60.asm
                     PROD   0x000ff3       data     extern C:\MCC18\src\traditional\proc\p18F97J60.asm
                    PRODH   0x000ff4       data     extern C:\MCC18\src\traditional\proc\p18F97J60.asm
                    PRODL   0x000ff3       data     extern C:\MCC18\src\traditional\proc\p18F97J60.asm
                   PSPCON   0x000fb0       data     extern C:\MCC18\src\traditional\proc\p18F97J60.asm
               PSPCONbits   0x000fb0       data     extern C:\MCC18\src\traditional\proc\p18F97J60.asm
               PressedKey   0x0001ba       data     extern D:\git\70M_Ku_Up\Drivers\External-Peripherals\oled_c2.c
                     RCON   0x000fd0       data     extern C:\MCC18\src\traditional\proc\p18F97J60.asm
                 RCONbits   0x000fd0       data     extern C:\MCC18\src\traditional\proc\p18F97J60.asm
                    RCREG   0x000fae       data     extern C:\MCC18\src\traditional\proc\p18F97J60.asm
                   RCREG1   0x000fae       data     extern C:\MCC18\src\traditional\proc\p18F97J60.asm
                   RCREG2   0x000f6e       data     extern C:\MCC18\src\traditional\proc\p18F97J60.asm
                    RCSTA   0x000fab       data     extern C:\MCC18\src\traditional\proc\p18F97J60.asm
                   RCSTA1   0x000fab       data     extern C:\MCC18\src\traditional\proc\p18F97J60.asm
               RCSTA1bits   0x000fab       data     extern C:\MCC18\src\traditional\proc\p18F97J60.asm
                   RCSTA2   0x000f6b       data     extern C:\MCC18\src\traditional\proc\p18F97J60.asm
               RCSTA2bits   0x000f6b       data     extern C:\MCC18\src\traditional\proc\p18F97J60.asm
                RCSTAbits   0x000fab       data     extern C:\MCC18\src\traditional\proc\p18F97J60.asm
            RFFreqString1   0x000112       data     extern D:\git\70M_Ku_Up\Drivers\External-Peripherals\oled_c2.c
            RFFreqString2   0x00011e       data     extern D:\git\70M_Ku_Up\Drivers\External-Peripherals\oled_c2.c
                RXHeadPtr   0x0005ae       data     static D:\git\70M_Ku_Up\Microchip\TCPIP Stack\UART2TCPBridge.c
                RXTailPtr   0x0005b0       data     static D:\git\70M_Ku_Up\Microchip\TCPIP Stack\UART2TCPBridge.c
              RdI2CBuffer   0x00055a       data     extern D:\git\70M_Ku_Up\App\WebUI\HTTPGetDevInfo.c
                    Read2   0x0003f7       data     extern D:\git\70M_Ku_Up\Main\Main.c
              RefreshFlag   0x0001bb       data     extern D:\git\70M_Ku_Up\Drivers\External-Peripherals\oled_c2.c
               RemoteInfo   0x000f43       data     static D:\git\70M_Ku_Up\Microchip\TCPIP Stack\TCP.c
                     SIGN   0x000000       data     extern C:\Program Files\mcc18\src\traditional\math\cmath18.asm
                 SNString   0x00015c       data     extern D:\git\70M_Ku_Up\Drivers\External-Peripherals\oled_c2.c
                    SPBRG   0x000faf       data     extern C:\MCC18\src\traditional\proc\p18F97J60.asm
                   SPBRG1   0x000faf       data     extern C:\MCC18\src\traditional\proc\p18F97J60.asm
                   SPBRG2   0x000f6f       data     extern C:\MCC18\src\traditional\proc\p18F97J60.asm
                   SPBRGH   0x000f7f       data     extern C:\MCC18\src\traditional\proc\p18F97J60.asm
                  SPBRGH1   0x000f7f       data     extern C:\MCC18\src\traditional\proc\p18F97J60.asm
                  SPBRGH2   0x000f7d       data     extern C:\MCC18\src\traditional\proc\p18F97J60.asm
                  SSP1ADD   0x000fc8       data     extern C:\MCC18\src\traditional\proc\p18F97J60.asm
                  SSP1BUF   0x000fc9       data     extern C:\MCC18\src\traditional\proc\p18F97J60.asm
                 SSP1CON1   0x000fc6       data     extern C:\MCC18\src\traditional\proc\p18F97J60.asm
             SSP1CON1bits   0x000fc6       data     extern C:\MCC18\src\traditional\proc\p18F97J60.asm
                 SSP1CON2   0x000fc5       data     extern C:\MCC18\src\traditional\proc\p18F97J60.asm
             SSP1CON2bits   0x000fc5       data     extern C:\MCC18\src\traditional\proc\p18F97J60.asm
                 SSP1STAT   0x000fc7       data     extern C:\MCC18\src\traditional\proc\p18F97J60.asm
             SSP1STATbits   0x000fc7       data     extern C:\MCC18\src\traditional\proc\p18F97J60.asm
                  SSP2ADD   0x000f65       data     extern C:\MCC18\src\traditional\proc\p18F97J60.asm
                  SSP2BUF   0x000f66       data     extern C:\MCC18\src\traditional\proc\p18F97J60.asm
                 SSP2CON1   0x000f63       data     extern C:\MCC18\src\traditional\proc\p18F97J60.asm
             SSP2CON1bits   0x000f63       data     extern C:\MCC18\src\traditional\proc\p18F97J60.asm
                 SSP2CON2   0x000f62       data     extern C:\MCC18\src\traditional\proc\p18F97J60.asm
             SSP2CON2bits   0x000f62       data     extern C:\MCC18\src\traditional\proc\p18F97J60.asm
                 SSP2STAT   0x000f64       data     extern C:\MCC18\src\traditional\proc\p18F97J60.asm
             SSP2STATbits   0x000f64       data     extern C:\MCC18\src\traditional\proc\p18F97J60.asm
                   SSPADD   0x000fc8       data     extern C:\MCC18\src\traditional\proc\p18F97J60.asm
                   SSPBUF   0x000fc9       data     extern C:\MCC18\src\traditional\proc\p18F97J60.asm
                  SSPCON1   0x000fc6       data     extern C:\MCC18\src\traditional\proc\p18F97J60.asm
              SSPCON1bits   0x000fc6       data     extern C:\MCC18\src\traditional\proc\p18F97J60.asm
                  SSPCON2   0x000fc5       data     extern C:\MCC18\src\traditional\proc\p18F97J60.asm
              SSPCON2bits   0x000fc5       data     extern C:\MCC18\src\traditional\proc\p18F97J60.asm
                  SSPSTAT   0x000fc7       data     extern C:\MCC18\src\traditional\proc\p18F97J60.asm
              SSPSTATbits   0x000fc7       data     extern C:\MCC18\src\traditional\proc\p18F97J60.asm
                   STATUS   0x000fd8       data     extern C:\MCC18\src\traditional\proc\p18F97J60.asm
               STATUSbits   0x000fd8       data     extern C:\MCC18\src\traditional\proc\p18F97J60.asm
                   STKPTR   0x000ffc       data     extern C:\MCC18\src\traditional\proc\p18F97J60.asm
               STKPTRbits   0x000ffc       data     extern C:\MCC18\src\traditional\proc\p18F97J60.asm
                 SYNQueue   0x000500       data     static D:\git\70M_Ku_Up\Microchip\TCPIP Stack\TCP.c
            SecondCounter   0x00057c       data     extern D:\git\70M_Ku_Up\Main\Main.c
                     Seed   0x0002fe       data     static C:\Program Files\mcc18\src\traditional\stdclib\rand.asm
                    T0CON   0x000fd5       data     extern C:\MCC18\src\traditional\proc\p18F97J60.asm
                T0CONbits   0x000fd5       data     extern C:\MCC18\src\traditional\proc\p18F97J60.asm
                    T1CON   0x000fcd       data     extern C:\MCC18\src\traditional\proc\p18F97J60.asm
                T1CONbits   0x000fcd       data     extern C:\MCC18\src\traditional\proc\p18F97J60.asm
                    T2CON   0x000fca       data     extern C:\MCC18\src\traditional\proc\p18F97J60.asm
                T2CONbits   0x000fca       data     extern C:\MCC18\src\traditional\proc\p18F97J60.asm
                    T3CON   0x000fb1       data     extern C:\MCC18\src\traditional\proc\p18F97J60.asm
                T3CONbits   0x000fb1       data     extern C:\MCC18\src\traditional\proc\p18F97J60.asm
                    T4CON   0x000f76       data     extern C:\MCC18\src\traditional\proc\p18F97J60.asm
                T4CONbits   0x000f76       data     extern C:\MCC18\src\traditional\proc\p18F97J60.asm
                   TABLAT   0x000ff5       data     extern C:\MCC18\src\traditional\proc\p18F97J60.asm
                   TBLPTR   0x000ff6       data     extern C:\MCC18\src\traditional\proc\p18F97J60.asm
                  TBLPTRH   0x000ff7       data     extern C:\MCC18\src\traditional\proc\p18F97J60.asm
                  TBLPTRL   0x000ff6       data     extern C:\MCC18\src\traditional\proc\p18F97J60.asm
                  TBLPTRU   0x000ff8       data     extern C:\MCC18\src\traditional\proc\p18F97J60.asm
                 TCBStubs   0x000300       data     static D:\git\70M_Ku_Up\Microchip\TCPIP Stack\TCP.c
                  TEMP_IP   0x0005be       data     extern D:\git\70M_Ku_Up\App\SNMP\SNMPLLiBUCDevInfo.c
                    TMR0H   0x000fd7       data     extern C:\MCC18\src\traditional\proc\p18F97J60.asm
                    TMR0L   0x000fd6       data     extern C:\MCC18\src\traditional\proc\p18F97J60.asm
                    TMR1H   0x000fcf       data     extern C:\MCC18\src\traditional\proc\p18F97J60.asm
                    TMR1L   0x000fce       data     extern C:\MCC18\src\traditional\proc\p18F97J60.asm
                     TMR2   0x000fcc       data     extern C:\MCC18\src\traditional\proc\p18F97J60.asm
                    TMR3H   0x000fb3       data     extern C:\MCC18\src\traditional\proc\p18F97J60.asm
                    TMR3L   0x000fb2       data     extern C:\MCC18\src\traditional\proc\p18F97J60.asm
                     TMR4   0x000f78       data     extern C:\MCC18\src\traditional\proc\p18F97J60.asm
                      TOS   0x000ffd       data     extern C:\MCC18\src\traditional\proc\p18F97J60.asm
                     TOSH   0x000ffe       data     extern C:\MCC18\src\traditional\proc\p18F97J60.asm
                     TOSL   0x000ffd       data     extern C:\MCC18\src\traditional\proc\p18F97J60.asm
                     TOSU   0x000fff       data     extern C:\MCC18\src\traditional\proc\p18F97J60.asm
                    TRISA   0x000f92       data     extern C:\MCC18\src\traditional\proc\p18F97J60.asm
                TRISAbits   0x000f92       data     extern C:\MCC18\src\traditional\proc\p18F97J60.asm
                    TRISB   0x000f93       data     extern C:\MCC18\src\traditional\proc\p18F97J60.asm
                TRISBbits   0x000f93       data     extern C:\MCC18\src\traditional\proc\p18F97J60.asm
                    TRISC   0x000f94       data     extern C:\MCC18\src\traditional\proc\p18F97J60.asm
                TRISCbits   0x000f94       data     extern C:\MCC18\src\traditional\proc\p18F97J60.asm
                    TRISD   0x000f95       data     extern C:\MCC18\src\traditional\proc\p18F97J60.asm
                TRISDbits   0x000f95       data     extern C:\MCC18\src\traditional\proc\p18F97J60.asm
                    TRISE   0x000f96       data     extern C:\MCC18\src\traditional\proc\p18F97J60.asm
                TRISEbits   0x000f96       data     extern C:\MCC18\src\traditional\proc\p18F97J60.asm
                    TRISF   0x000f97       data     extern C:\MCC18\src\traditional\proc\p18F97J60.asm
                TRISFbits   0x000f97       data     extern C:\MCC18\src\traditional\proc\p18F97J60.asm
                    TRISG   0x000f98       data     extern C:\MCC18\src\traditional\proc\p18F97J60.asm
                TRISGbits   0x000f98       data     extern C:\MCC18\src\traditional\proc\p18F97J60.asm
                    TRISH   0x000f99       data     extern C:\MCC18\src\traditional\proc\p18F97J60.asm
                TRISHbits   0x000f99       data     extern C:\MCC18\src\traditional\proc\p18F97J60.asm
                    TRISJ   0x000f9a       data     extern C:\MCC18\src\traditional\proc\p18F97J60.asm
                TRISJbits   0x000f9a       data     extern C:\MCC18\src\traditional\proc\p18F97J60.asm
                TXHeadPtr   0x0005b2       data     static D:\git\70M_Ku_Up\Microchip\TCPIP Stack\UART2TCPBridge.c
                    TXREG   0x000fad       data     extern C:\MCC18\src\traditional\proc\p18F97J60.asm
                   TXREG1   0x000fad       data     extern C:\MCC18\src\traditional\proc\p18F97J60.asm
                   TXREG2   0x000f6d       data     extern C:\MCC18\src\traditional\proc\p18F97J60.asm
                    TXSTA   0x000fac       data     extern C:\MCC18\src\traditional\proc\p18F97J60.asm
                   TXSTA1   0x000fac       data     extern C:\MCC18\src\traditional\proc\p18F97J60.asm
               TXSTA1bits   0x000fac       data     extern C:\MCC18\src\traditional\proc\p18F97J60.asm
                   TXSTA2   0x000f6c       data     extern C:\MCC18\src\traditional\proc\p18F97J60.asm
               TXSTA2bits   0x000f6c       data     extern C:\MCC18\src\traditional\proc\p18F97J60.asm
                TXSTAbits   0x000fac       data     extern C:\MCC18\src\traditional\proc\p18F97J60.asm
                TXTailPtr   0x0005b4       data     static D:\git\70M_Ku_Up\Microchip\TCPIP Stack\UART2TCPBridge.c
                   Target   0x000e76       data     static D:\git\70M_Ku_Up\Microchip\TCPIP Stack\ARP.c
            Timer2Counter   0x0005dc       data     extern D:\git\70M_Ku_Up\Drivers\MCU-Internal\ISR.c
          ValueUpdateFlag   0x0001bd       data     extern D:\git\70M_Ku_Up\Drivers\External-Peripherals\oled_c2.c
                   WDTCON   0x000fd1       data     extern C:\MCC18\src\traditional\proc\p18F97J60.asm
               WDTCONbits   0x000fd1       data     extern C:\MCC18\src\traditional\proc\p18F97J60.asm
                     WREG   0x000fe8       data     extern C:\MCC18\src\traditional\proc\p18F97J60.asm
             WasDiscarded   0x0005ba       data     static D:\git\70M_Ku_Up\Microchip\TCPIP Stack\ETH97J60.c
      WebpageWriteI2CFlag   0x0005d8       data     extern D:\git\70M_Ku_Up\App\WebUI\HTTPGetDevInfo.c
              _Identifier   0x0005d5       data     static D:\git\70M_Ku_Up\Microchip\TCPIP Stack\IP.c
                 __AARGB0   0x000009       data     extern C:\Program Files\mcc18\src\traditional\math\aarg.asm
                 __AARGB1   0x000008       data     extern C:\Program Files\mcc18\src\traditional\math\aarg.asm
                 __AARGB2   0x000007       data     extern C:\Program Files\mcc18\src\traditional\math\aarg.asm
                 __AARGB3   0x000006       data     extern C:\Program Files\mcc18\src\traditional\math\aarg.asm
                 __AARGB4   0x000005       data     extern C:\Program Files\mcc18\src\traditional\math\aarg.asm
                 __AARGB5   0x000004       data     extern C:\Program Files\mcc18\src\traditional\math\aarg.asm
                 __AARGB6   0x000003       data     extern C:\Program Files\mcc18\src\traditional\math\aarg.asm
                 __AARGB7   0x000002       data     extern C:\Program Files\mcc18\src\traditional\math\aarg.asm
                   __AEXP   0x00000a       data     extern C:\Program Files\mcc18\src\traditional\math\aarg.asm
                 __BARGB0   0x00000e       data     extern C:\Program Files\mcc18\src\traditional\math\barg.asm
                 __BARGB1   0x00000d       data     extern C:\Program Files\mcc18\src\traditional\math\barg.asm
                 __BARGB2   0x00000c       data     extern C:\Program Files\mcc18\src\traditional\math\barg.asm
                 __BARGB3   0x00000b       data     extern C:\Program Files\mcc18\src\traditional\math\barg.asm
                   __BEXP   0x00000f       data     extern C:\Program Files\mcc18\src\traditional\math\barg.asm
                __FPFLAGS   0x000001       data     extern C:\Program Files\mcc18\src\traditional\math\cmath18.asm
            __FPFLAGSbits   0x000001       data     extern C:\Program Files\mcc18\src\traditional\math\cmath18.asm
                  __REMB0   0x000005       data     extern C:\Program Files\mcc18\src\traditional\math\aarg.asm
                  __REMB1   0x000004       data     extern C:\Program Files\mcc18\src\traditional\math\aarg.asm
                  __REMB2   0x000003       data     extern C:\Program Files\mcc18\src\traditional\math\aarg.asm
                  __REMB3   0x000002       data     extern C:\Program Files\mcc18\src\traditional\math\aarg.asm
                   __TEMP   0x000013       data     extern C:\Program Files\mcc18\src\traditional\math\temparg.asm
                 __TEMPB0   0x000013       data     extern C:\Program Files\mcc18\src\traditional\math\temparg.asm
                 __TEMPB1   0x000012       data     extern C:\Program Files\mcc18\src\traditional\math\temparg.asm
                 __TEMPB2   0x000011       data     extern C:\Program Files\mcc18\src\traditional\math\temparg.asm
                 __TEMPB3   0x000010       data     extern C:\Program Files\mcc18\src\traditional\math\temparg.asm
                  __tmp_0   0x000014       data     static C:\Program Files\mcc18\src\traditional\stdclib\sprintf.c
                  __tmp_0   0x000014       data     static C:\MCC18\src\pmc_common\ADC\adcopen.c
                  __tmp_0   0x000014       data     static C:\Program Files\mcc18\src\traditional\stdclib\vfprintf.c
                  __tmp_0   0x000014       data     static C:\Program Files\mcc18\src\traditional\stdclib\putc.c
                  __tmp_0   0x000014       data     static D:\git\70M_Ku_Up\Drivers\External-Peripherals\oled_c1.c
                  __tmp_0   0x000014       data     static D:\git\70M_Ku_Up\Drivers\MCU-Internal\i2c_c1.c
                  __tmp_0   0x000014       data     static D:\git\70M_Ku_Up\Devices\VOLDC_c1 .c
                  __tmp_0   0x000014       data     static D:\git\70M_Ku_Up\Devices\UpConverter_c1.c
                  __tmp_0   0x000014       data     static D:\git\70M_Ku_Up\Devices\MainControl_c1.c
                  __tmp_0   0x000014       data     static D:\git\70M_Ku_Up\Devices\DownConverter_c1.c
                  __tmp_0   0x000014       data     static D:\git\70M_Ku_Up\App\WebUI\HTTPApp.c
                  __tmp_0   0x000014       data     static D:\git\70M_Ku_Up\SysLib\util.c
                  __tmp_0   0x000014       data     static D:\git\70M_Ku_Up\Drivers\MCU-Internal\internalADC.c
                  __tmp_0   0x000014       data     static D:\git\70M_Ku_Up\Drivers\External-Peripherals\devadc.c
                  __tmp_0   0x000014       data     static D:\git\70M_Ku_Up\Drivers\MCU-Internal\devspi.c
                  __tmp_0   0x000014       data     static D:\git\70M_Ku_Up\Microchip\TCPIP Stack\SPIEEPROM.c
                  __tmp_0   0x000014       data     static D:\git\70M_Ku_Up\Microchip\TCPIP Stack\ICMP.c
                  __tmp_0   0x000014       data     static D:\git\70M_Ku_Up\Microchip\TCPIP Stack\MPFS2.c
                  __tmp_0   0x000014       data     static D:\git\70M_Ku_Up\Microchip\TCPIP Stack\HTTP2.c
                  __tmp_0   0x000014       data     static D:\git\70M_Ku_Up\Microchip\TCPIP Stack\Helpers.c
                  __tmp_0   0x000014       data     static D:\git\70M_Ku_Up\Microchip\TCPIP Stack\IP.c
                  __tmp_0   0x000014       data     static D:\git\70M_Ku_Up\Microchip\TCPIP Stack\ETH97J60.c
                  __tmp_0   0x000014       data     static D:\git\70M_Ku_Up\Microchip\TCPIP Stack\ARP.c
                  __tmp_0   0x000014       data     static D:\git\70M_Ku_Up\Microchip\TCPIP Stack\TCP.c
                  __tmp_0   0x000014       data     static D:\git\70M_Ku_Up\Microchip\TCPIP Stack\StackTsk.c
                  __tmp_0   0x000014       data     static D:\git\70M_Ku_Up\Bootstrap\Initialization.c
                  __tmp_0   0x000014       data     static D:\git\70M_Ku_Up\Drivers\External-Peripherals\oled_c2.c
                  __tmp_0   0x000014       data     static D:\git\70M_Ku_Up\Main\Main.c
                  __tmp_0   0x000014       data     static D:\git\70M_Ku_Up\App\WebUI\HTTPGetDevInfo.c
                  __tmp_0   0x000014       data     static D:\git\70M_Ku_Up\App\WebUI\HTTPPrint.c
                  boBlink   0x0003ff       data     static D:\git\70M_Ku_Up\Drivers\External-Peripherals\oled_c1.c
                    ctemp   0x0003f6       data     extern D:\git\70M_Ku_Up\Main\Main.c
                  curHTTP   0x000400       data     extern D:\git\70M_Ku_Up\Microchip\TCPIP Stack\HTTP2.c
                curHTTPID   0x000483       data     extern D:\git\70M_Ku_Up\Microchip\TCPIP Stack\HTTP2.c
                curr_byte   0x0005a7       data     static C:\Program Files\mcc18\src\traditional\startup\c018iz.c
               curr_entry   0x0005a9       data     static C:\Program Files\mcc18\src\traditional\startup\c018iz.c
                 data_ptr   0x0005ab       data     static C:\Program Files\mcc18\src\traditional\startup\c018iz.c
          dwInternalTicks   0x0005ce       data     static D:\git\70M_Ku_Up\Microchip\TCPIP Stack\Tick.c
                 dwLastIP   0x0005ca       data     extern D:\git\70M_Ku_Up\SysLib\util.c
                 fatCache   0x0004d5       data     static D:\git\70M_Ku_Up\Microchip\TCPIP Stack\MPFS2.c
               fatCacheID   0x0004eb       data     static D:\git\70M_Ku_Up\Microchip\TCPIP Stack\MPFS2.c
         global_char_temp   0x000f4f       data     extern D:\git\70M_Ku_Up\App\WebUI\HTTPPrint.c
              hCurrentTCP   0x000f5e       data     static D:\git\70M_Ku_Up\Microchip\TCPIP Stack\TCP.c
                 hLastTCB   0x000f5f       data     static D:\git\70M_Ku_Up\Microchip\TCPIP Stack\TCP.c
                   hMPFS1   0x0005d4       data     extern D:\git\70M_Ku_Up\SysLib\util.c
                httpStubs   0x00047f       data     extern D:\git\70M_Ku_Up\Microchip\TCPIP Stack\HTTP2.c
             isMPFSLocked   0x0004d4       data     static D:\git\70M_Ku_Up\Microchip\TCPIP Stack\MPFS2.c
               keypad_tmr   0x000587       data     static D:\git\70M_Ku_Up\Main\Main.c
              lastFailure   0x0005da       data     extern D:\git\70M_Ku_Up\App\WebUI\HTTPApp.c
                 lastRead   0x0004ef       data     extern D:\git\70M_Ku_Up\Microchip\TCPIP Stack\MPFS2.c
              lastSuccess   0x0005d9       data     extern D:\git\70M_Ku_Up\App\WebUI\HTTPApp.c
                lcd_timer   0x000583       data     static D:\git\70M_Ku_Up\Main\Main.c
                    myRef   0x0005bd       data     extern D:\git\70M_Ku_Up\App\SNMP\SNMPLLiBUCDevInfo.c
                     newp   0x000546       data     extern D:\git\70M_Ku_Up\App\WebUI\HTTPGetDevInfo.c
                 numFiles   0x0004ed       data     static D:\git\70M_Ku_Up\Microchip\TCPIP Stack\MPFS2.c
                     oend   0x0003f5       data     extern D:\git\70M_Ku_Up\Main\Main.c
                     oldp   0x00053c       data     extern D:\git\70M_Ku_Up\App\WebUI\HTTPGetDevInfo.c
                   ostart   0x0003f4       data     extern D:\git\70M_Ku_Up\Main\Main.c
                     prom   0x0005a4       data     static C:\Program Files\mcc18\src\traditional\startup\c018iz.c
                 readflag   0x0001c5       data     extern D:\git\70M_Ku_Up\Drivers\External-Peripherals\oled_c2.c
               remoteNode   0x000590       data     extern D:\git\70M_Ku_Up\Microchip\TCPIP Stack\StackTsk.c
                      rep   0x000550       data     extern D:\git\70M_Ku_Up\App\WebUI\HTTPGetDevInfo.c
                   s18VDC   0x000165       data     extern D:\git\70M_Ku_Up\Drivers\External-Peripherals\oled_c2.c
                   s24VDC   0x000169       data     extern D:\git\70M_Ku_Up\Drivers\External-Peripherals\oled_c2.c
                    sALCa   0x00019d       data     extern D:\git\70M_Ku_Up\Drivers\External-Peripherals\oled_c2.c
                    sALCb   0x0001a1       data     extern D:\git\70M_Ku_Up\Drivers\External-Peripherals\oled_c2.c
                  sBUCREF   0x000171       data     extern D:\git\70M_Ku_Up\Drivers\External-Peripherals\oled_c2.c
                 sDCPower   0x00017f       data     extern D:\git\70M_Ku_Up\Drivers\External-Peripherals\oled_c2.c
               sDNC_StPwr   0x000193       data     extern D:\git\70M_Ku_Up\Drivers\External-Peripherals\oled_c2.c
                  sLNBREF   0x00016d       data     extern D:\git\70M_Ku_Up\Drivers\External-Peripherals\oled_c2.c
                   sMutea   0x0001a5       data     extern D:\git\70M_Ku_Up\Drivers\External-Peripherals\oled_c2.c
                   sMuteb   0x0001ae       data     extern D:\git\70M_Ku_Up\Drivers\External-Peripherals\oled_c2.c
                 sUCPower   0x000175       data     extern D:\git\70M_Ku_Up\Drivers\External-Peripherals\oled_c2.c
               sUPC_StPwr   0x000189       data     extern D:\git\70M_Ku_Up\Drivers\External-Peripherals\oled_c2.c
                    smARP   0x0005dd       data     static D:\git\70M_Ku_Up\Microchip\TCPIP Stack\ARP.c
                  smStack   0x00058f       data     static D:\git\70M_Ku_Up\Microchip\TCPIP Stack\StackTsk.c
              stConverter   0x0003a8       data     extern D:\git\70M_Ku_Up\Main\Main.c
               stI2CDCMsg   0x000e25       data     extern D:\git\70M_Ku_Up\Drivers\External-Peripherals\oled_c2.c
          stI2CDownCvtMsg   0x000e0c       data     extern D:\git\70M_Ku_Up\Drivers\External-Peripherals\oled_c2.c
               stI2CLOMsg   0x000e3b       data     extern D:\git\70M_Ku_Up\Drivers\External-Peripherals\oled_c2.c
              stI2CREFMsg   0x000e31       data     extern D:\git\70M_Ku_Up\Drivers\External-Peripherals\oled_c2.c
               stI2CUCMsg   0x000e19       data     extern D:\git\70M_Ku_Up\Drivers\External-Peripherals\oled_c2.c
            stI2CUpCvtMsg   0x000e02       data     extern D:\git\70M_Ku_Up\Drivers\External-Peripherals\oled_c2.c
              stI2CVOLMsg   0x000e16       data     extern D:\git\70M_Ku_Up\Drivers\External-Peripherals\oled_c2.c
              systeminfo1   0x0000b0       data     extern D:\git\70M_Ku_Up\Main\Main.c
              systeminfo2   0x00026c       data     extern D:\git\70M_Ku_Up\Main\Main.c
                tempvalue   0x0005d3       data     extern D:\git\70M_Ku_Up\SysLib\util.c
            tiDisplay_tmr   0x00058b       data     static D:\git\70M_Ku_Up\Main\Main.c
                 toRotate   0x0005c6       data     extern D:\git\70M_Ku_Up\Microchip\TCPIP Stack\Helpers.c
                u16LoFreq   0x0001c3       data     extern D:\git\70M_Ku_Up\Drivers\External-Peripherals\oled_c2.c
                  u8ExtLO   0x0001c1       data     extern D:\git\70M_Ku_Up\Drivers\External-Peripherals\oled_c2.c
                  u8Index   0x0001c6       data     static D:\git\70M_Ku_Up\Drivers\External-Peripherals\oled_c2.c
                 u8LoBand   0x0001c2       data     extern D:\git\70M_Ku_Up\Drivers\External-Peripherals\oled_c2.c
           vBytesInBuffer   0x000e6b       data     static D:\git\70M_Ku_Up\Microchip\TCPIP Stack\SPIEEPROM.c
             vTickReading   0x0001fa       data     static D:\git\70M_Ku_Up\Microchip\TCPIP Stack\Tick.c
              vUARTRXFIFO   0x0002ac       data     static D:\git\70M_Ku_Up\Microchip\TCPIP Stack\UART2TCPBridge.c
              vUARTTXFIFO   0x0002ed       data     static D:\git\70M_Ku_Up\Microchip\TCPIP Stack\UART2TCPBridge.c
              wTXWatchdog   0x0005bb       data     static D:\git\70M_Ku_Up\Microchip\TCPIP Stack\ETH97J60.c
              webPass_tmr   0x00057f       data     static D:\git\70M_Ku_Up\Main\Main.c
              webpassinfo   0x0004f3       data     extern D:\git\70M_Ku_Up\App\WebUI\HTTPApp.c



                              Symbols - Sorted by Address
                     Name    Address   Location    Storage File                     
                ---------  ---------  ---------  --------- ---------                
                   _entry   0x000000    program     extern C:\Program Files\mcc18\src\traditional\startup\c018iz.c
       ___return_lbl00000   0x000004    program     static                          
               HighVector   0x000008    program     extern D:\git\70M_Ku_Up\Drivers\MCU-Internal\ISR.c
       ___return_lbl00020   0x00000c    program     static                          
                LowVector   0x000018    program     extern D:\git\70M_Ku_Up\Drivers\MCU-Internal\ISR.c
       ___return_lbl00019   0x00001c    program     static                          
              SyncTCBStub   0x0000bc    program     static D:\git\70M_Ku_Up\Microchip\TCPIP Stack\TCP.c
                  SyncTCB   0x000126    program     static D:\git\70M_Ku_Up\Microchip\TCPIP Stack\TCP.c
                  TCPInit   0x0001a4    program     extern D:\git\70M_Ku_Up\Microchip\TCPIP Stack\TCP.c
                  TCPOpen   0x000354    program     extern D:\git\70M_Ku_Up\Microchip\TCPIP Stack\TCP.c
              TCPWasReset   0x000488    program     extern D:\git\70M_Ku_Up\Microchip\TCPIP Stack\TCP.c
           TCPIsConnected   0x00049e    program     extern D:\git\70M_Ku_Up\Microchip\TCPIP Stack\TCP.c
            TCPDisconnect   0x0004b4    program     extern D:\git\70M_Ku_Up\Microchip\TCPIP Stack\TCP.c
                 TCPClose   0x000530    program     extern D:\git\70M_Ku_Up\Microchip\TCPIP Stack\TCP.c
         TCPGetRemoteInfo   0x000544    program     extern D:\git\70M_Ku_Up\Microchip\TCPIP Stack\TCP.c
                 TCPFlush   0x00057e    program     extern D:\git\70M_Ku_Up\Microchip\TCPIP Stack\TCP.c
            TCPIsPutReady   0x00059a    program     extern D:\git\70M_Ku_Up\Microchip\TCPIP Stack\TCP.c
                   TCPPut   0x000600    program     extern D:\git\70M_Ku_Up\Microchip\TCPIP Stack\TCP.c
              TCPPutArray   0x00068e    program     extern D:\git\70M_Ku_Up\Microchip\TCPIP Stack\TCP.c
           TCPPutROMArray   0x000732    program     extern D:\git\70M_Ku_Up\Microchip\TCPIP Stack\TCP.c
             TCPPutString   0x0007e4    program     extern D:\git\70M_Ku_Up\Microchip\TCPIP Stack\TCP.c
          TCPPutROMString   0x000844    program     extern D:\git\70M_Ku_Up\Microchip\TCPIP Stack\TCP.c
         TCPGetTxFIFOFull   0x0008ae    program     extern D:\git\70M_Ku_Up\Microchip\TCPIP Stack\TCP.c
               TCPDiscard   0x0008d6    program     extern D:\git\70M_Ku_Up\Microchip\TCPIP Stack\TCP.c
            TCPIsGetReady   0x0008f8    program     extern D:\git\70M_Ku_Up\Microchip\TCPIP Stack\TCP.c
                   TCPGet   0x00093e    program     extern D:\git\70M_Ku_Up\Microchip\TCPIP Stack\TCP.c
              TCPGetArray   0x0009aa    program     extern D:\git\70M_Ku_Up\Microchip\TCPIP Stack\TCP.c
         TCPGetRxFIFOFree   0x000ae2    program     extern D:\git\70M_Ku_Up\Microchip\TCPIP Stack\TCP.c
             TCPPeekArray   0x000b0a    program     extern D:\git\70M_Ku_Up\Microchip\TCPIP Stack\TCP.c
                  TCPPeek   0x000c3a    program     extern D:\git\70M_Ku_Up\Microchip\TCPIP Stack\TCP.c
           TCPFindArrayEx   0x000c66    program     extern D:\git\70M_Ku_Up\Microchip\TCPIP Stack\TCP.c
        TCPFindROMArrayEx   0x000ee4    program     extern D:\git\70M_Ku_Up\Microchip\TCPIP Stack\TCP.c
                TCPFindEx   0x001134    program     extern D:\git\70M_Ku_Up\Microchip\TCPIP Stack\TCP.c
                  TCPTick   0x00116a    program     extern D:\git\70M_Ku_Up\Microchip\TCPIP Stack\TCP.c
               TCPProcess   0x00153e    program     extern D:\git\70M_Ku_Up\Microchip\TCPIP Stack\TCP.c
                  SendTCP   0x001698    program     static D:\git\70M_Ku_Up\Microchip\TCPIP Stack\TCP.c
       FindMatchingSocket   0x001bfe    program     static D:\git\70M_Ku_Up\Microchip\TCPIP Stack\TCP.c
            SwapTCPHeader   0x001e9c    program     static D:\git\70M_Ku_Up\Microchip\TCPIP Stack\TCP.c
              CloseSocket   0x001f18    program     static D:\git\70M_Ku_Up\Microchip\TCPIP Stack\TCP.c
             HandleTCPSeg   0x001f96    program     static D:\git\70M_Ku_Up\Microchip\TCPIP Stack\TCP.c
             __tmplbl_157   0x002a10    program     static                          
             __tmplbl_155   0x002a10    program     static                          
             __tmplbl_174   0x002a16    program     static                          
             __tmplbl_167   0x002a1e    program     static                          
             __tmplbl_166   0x002a1e    program     static                          
             __tmplbl_164   0x002a1e    program     static                          
             __tmplbl_158   0x002a1e    program     static                          
        TCPAdjustFIFOSize   0x002a2c    program     extern D:\git\70M_Ku_Up\Microchip\TCPIP Stack\TCP.c
               TCPRAMCopy   0x002be6    program     static D:\git\70M_Ku_Up\Microchip\TCPIP Stack\TCP.c
            TCPRAMCopyROM   0x002c74    program     static D:\git\70M_Ku_Up\Microchip\TCPIP Stack\TCP.c
                   __pa_0   0x002d54    program     static D:\git\70M_Ku_Up\Microchip\TCPIP Stack\TCP.c
                   __pa_1   0x002d7c    program     static D:\git\70M_Ku_Up\Microchip\TCPIP Stack\TCP.c
                   __pa_2   0x002d8a    program     static D:\git\70M_Ku_Up\Microchip\TCPIP Stack\TCP.c
                   __pa_3   0x002d98    program     static D:\git\70M_Ku_Up\Microchip\TCPIP Stack\TCP.c
             __tmplbl_118   0x002d98    program     static                          
             __tmplbl_117   0x002d98    program     static                          
             __tmplbl_114   0x002d98    program     static                          
             __tmplbl_111   0x002d98    program     static                          
             __tmplbl_110   0x002d98    program     static                          
             __tmplbl_152   0x002d98    program     static                          
              __tmplbl_97   0x002d98    program     static                          
             __tmplbl_151   0x002d98    program     static                          
             __tmplbl_148   0x002d98    program     static                          
              __tmplbl_99   0x002d98    program     static                          
             __tmplbl_131   0x002d98    program     static                          
             __tmplbl_100   0x002d98    program     static                          
             __tmplbl_101   0x002d98    program     static                          
             __tmplbl_130   0x002d98    program     static                          
             __tmplbl_102   0x002d98    program     static                          
             __tmplbl_103   0x002d98    program     static                          
             __tmplbl_104   0x002d98    program     static                          
             __tmplbl_106   0x002d98    program     static                          
             __tmplbl_108   0x002d98    program     static                          
             __tmplbl_109   0x002d98    program     static                          
              __tmplbl_79   0x002d98    program     static                          
              __tmplbl_81   0x002d98    program     static                          
              __tmplbl_85   0x002d98    program     static                          
              __tmplbl_87   0x002d98    program     static                          
              __tmplbl_88   0x002d98    program     static                          
              __tmplbl_89   0x002d98    program     static                          
              __tmplbl_90   0x002d98    program     static                          
              __tmplbl_91   0x002d98    program     static                          
              __tmplbl_92   0x002d98    program     static                          
              __tmplbl_93   0x002d98    program     static                          
              __tmplbl_95   0x002d98    program     static                          
                   __pa_4   0x002da4    program     static D:\git\70M_Ku_Up\Microchip\TCPIP Stack\TCP.c
                   __pa_5   0x002dae    program     static D:\git\70M_Ku_Up\Microchip\TCPIP Stack\TCP.c
                   __pa_6   0x002e42    program     static D:\git\70M_Ku_Up\Microchip\TCPIP Stack\TCP.c
                   __pa_7   0x002e4e    program     static D:\git\70M_Ku_Up\Microchip\TCPIP Stack\TCP.c
                   __pa_8   0x002e70    program     static D:\git\70M_Ku_Up\Microchip\TCPIP Stack\TCP.c
                   __pa_9   0x002e98    program     static D:\git\70M_Ku_Up\Microchip\TCPIP Stack\TCP.c
                  __pa_10   0x002e9e    program     static D:\git\70M_Ku_Up\Microchip\TCPIP Stack\TCP.c
                  __pa_11   0x002eca    program     static D:\git\70M_Ku_Up\Microchip\TCPIP Stack\TCP.c
                  __pa_12   0x002ed2    program     static D:\git\70M_Ku_Up\Microchip\TCPIP Stack\TCP.c
                  __pa_13   0x002eda    program     static D:\git\70M_Ku_Up\Microchip\TCPIP Stack\TCP.c
                  __pa_14   0x002ee6    program     static D:\git\70M_Ku_Up\Microchip\TCPIP Stack\TCP.c
                  __pa_15   0x002ef0    program     static D:\git\70M_Ku_Up\Microchip\TCPIP Stack\TCP.c
                  __pa_16   0x002efa    program     static D:\git\70M_Ku_Up\Microchip\TCPIP Stack\TCP.c
                  __pa_17   0x002f06    program     static D:\git\70M_Ku_Up\Microchip\TCPIP Stack\TCP.c
                  __pa_18   0x002f14    program     static D:\git\70M_Ku_Up\Microchip\TCPIP Stack\TCP.c
                  __pa_19   0x002f1e    program     static D:\git\70M_Ku_Up\Microchip\TCPIP Stack\TCP.c
                  __pa_20   0x002f3a    program     static D:\git\70M_Ku_Up\Microchip\TCPIP Stack\TCP.c
                  __pa_21   0x002f46    program     static D:\git\70M_Ku_Up\Microchip\TCPIP Stack\TCP.c
                  __pa_22   0x002f54    program     static D:\git\70M_Ku_Up\Microchip\TCPIP Stack\TCP.c
                  __pa_23   0x002f72    program     static D:\git\70M_Ku_Up\Microchip\TCPIP Stack\TCP.c
                  __pa_24   0x002f7c    program     static D:\git\70M_Ku_Up\Microchip\TCPIP Stack\TCP.c
                  __pa_25   0x002f86    program     static D:\git\70M_Ku_Up\Microchip\TCPIP Stack\TCP.c
                  __pa_26   0x002f92    program     static D:\git\70M_Ku_Up\Microchip\TCPIP Stack\TCP.c
                  __pa_27   0x002fa8    program     static D:\git\70M_Ku_Up\Microchip\TCPIP Stack\TCP.c
                  __pa_28   0x002fb6    program     static D:\git\70M_Ku_Up\Microchip\TCPIP Stack\TCP.c
                  __pa_29   0x002fc4    program     static D:\git\70M_Ku_Up\Microchip\TCPIP Stack\TCP.c
                  __pa_30   0x002fd2    program     static D:\git\70M_Ku_Up\Microchip\TCPIP Stack\TCP.c
                  __pa_31   0x002fde    program     static D:\git\70M_Ku_Up\Microchip\TCPIP Stack\TCP.c
                  __pa_32   0x002fe6    program     static D:\git\70M_Ku_Up\Microchip\TCPIP Stack\TCP.c
                  __pa_33   0x003010    program     static D:\git\70M_Ku_Up\Microchip\TCPIP Stack\TCP.c
                  __pa_34   0x003024    program     static D:\git\70M_Ku_Up\Microchip\TCPIP Stack\TCP.c
                  __pa_35   0x003040    program     static D:\git\70M_Ku_Up\Microchip\TCPIP Stack\TCP.c
                  __pa_36   0x00305a    program     static D:\git\70M_Ku_Up\Microchip\TCPIP Stack\TCP.c
                  __pa_37   0x003062    program     static D:\git\70M_Ku_Up\Microchip\TCPIP Stack\TCP.c
                  __pa_38   0x003072    program     static D:\git\70M_Ku_Up\Microchip\TCPIP Stack\TCP.c
                  __pa_39   0x003082    program     static D:\git\70M_Ku_Up\Microchip\TCPIP Stack\TCP.c
                  __pa_40   0x003090    program     static D:\git\70M_Ku_Up\Microchip\TCPIP Stack\TCP.c
                  __pa_41   0x0030ac    program     static D:\git\70M_Ku_Up\Microchip\TCPIP Stack\TCP.c
                  __pa_42   0x0030b4    program     static D:\git\70M_Ku_Up\Microchip\TCPIP Stack\TCP.c
                  __pa_43   0x0030cc    program     static D:\git\70M_Ku_Up\Microchip\TCPIP Stack\TCP.c
                  __pa_44   0x0030de    program     static D:\git\70M_Ku_Up\Microchip\TCPIP Stack\TCP.c
                  __pa_45   0x0030e8    program     static D:\git\70M_Ku_Up\Microchip\TCPIP Stack\TCP.c
                  __pa_46   0x0030fa    program     static D:\git\70M_Ku_Up\Microchip\TCPIP Stack\TCP.c
                  __pa_47   0x003120    program     static D:\git\70M_Ku_Up\Microchip\TCPIP Stack\TCP.c
                  __pa_48   0x00313e    program     static D:\git\70M_Ku_Up\Microchip\TCPIP Stack\TCP.c
                  __pa_49   0x00315e    program     static D:\git\70M_Ku_Up\Microchip\TCPIP Stack\TCP.c
                  __pa_50   0x003174    program     static D:\git\70M_Ku_Up\Microchip\TCPIP Stack\TCP.c
                  __pa_51   0x00318a    program     static D:\git\70M_Ku_Up\Microchip\TCPIP Stack\TCP.c
                  __pa_52   0x003196    program     static D:\git\70M_Ku_Up\Microchip\TCPIP Stack\TCP.c
                  __pa_53   0x0031a4    program     static D:\git\70M_Ku_Up\Microchip\TCPIP Stack\TCP.c
                  __pa_54   0x0031ac    program     static D:\git\70M_Ku_Up\Microchip\TCPIP Stack\TCP.c
                  __pa_55   0x0031ba    program     static D:\git\70M_Ku_Up\Microchip\TCPIP Stack\TCP.c
                  __pa_56   0x0031c8    program     static D:\git\70M_Ku_Up\Microchip\TCPIP Stack\TCP.c
                  __pa_57   0x0031d2    program     static D:\git\70M_Ku_Up\Microchip\TCPIP Stack\TCP.c
                  __pa_58   0x0031f0    program     static D:\git\70M_Ku_Up\Microchip\TCPIP Stack\TCP.c
                  __pa_59   0x003214    program     static D:\git\70M_Ku_Up\Microchip\TCPIP Stack\TCP.c
                  __pa_60   0x003224    program     static D:\git\70M_Ku_Up\Microchip\TCPIP Stack\TCP.c
                  __pa_61   0x00322e    program     static D:\git\70M_Ku_Up\Microchip\TCPIP Stack\TCP.c
                  __pa_62   0x003238    program     static D:\git\70M_Ku_Up\Microchip\TCPIP Stack\TCP.c
                  __pa_63   0x003258    program     static D:\git\70M_Ku_Up\Microchip\TCPIP Stack\TCP.c
                  __pa_64   0x00326e    program     static D:\git\70M_Ku_Up\Microchip\TCPIP Stack\TCP.c
                  __pa_65   0x003282    program     static D:\git\70M_Ku_Up\Microchip\TCPIP Stack\TCP.c
                  __pa_66   0x003298    program     static D:\git\70M_Ku_Up\Microchip\TCPIP Stack\TCP.c
                  __pa_67   0x0032b6    program     static D:\git\70M_Ku_Up\Microchip\TCPIP Stack\TCP.c
                  __pa_68   0x0032cc    program     static D:\git\70M_Ku_Up\Microchip\TCPIP Stack\TCP.c
                  __pa_69   0x0032da    program     static D:\git\70M_Ku_Up\Microchip\TCPIP Stack\TCP.c
                  __pa_70   0x0032ec    program     static D:\git\70M_Ku_Up\Microchip\TCPIP Stack\TCP.c
                  __pa_71   0x0032fe    program     static D:\git\70M_Ku_Up\Microchip\TCPIP Stack\TCP.c
                  __pa_72   0x003310    program     static D:\git\70M_Ku_Up\Microchip\TCPIP Stack\TCP.c
                  __pa_73   0x003322    program     static D:\git\70M_Ku_Up\Microchip\TCPIP Stack\TCP.c
                  __pa_74   0x00332c    program     static D:\git\70M_Ku_Up\Microchip\TCPIP Stack\TCP.c
                  __pa_75   0x00333e    program     static D:\git\70M_Ku_Up\Microchip\TCPIP Stack\TCP.c
                  __pa_76   0x003348    program     static D:\git\70M_Ku_Up\Microchip\TCPIP Stack\TCP.c
                  __pa_77   0x003356    program     static D:\git\70M_Ku_Up\Microchip\TCPIP Stack\TCP.c
                  __pa_78   0x003364    program     static D:\git\70M_Ku_Up\Microchip\TCPIP Stack\TCP.c
                  __pa_79   0x003372    program     static D:\git\70M_Ku_Up\Microchip\TCPIP Stack\TCP.c
                  __pa_80   0x003380    program     static D:\git\70M_Ku_Up\Microchip\TCPIP Stack\TCP.c
                  __pa_81   0x003388    program     static D:\git\70M_Ku_Up\Microchip\TCPIP Stack\TCP.c
                  __pa_82   0x003394    program     static D:\git\70M_Ku_Up\Microchip\TCPIP Stack\TCP.c
                  __pa_83   0x00339e    program     static D:\git\70M_Ku_Up\Microchip\TCPIP Stack\TCP.c
                  __pa_84   0x0033a8    program     static D:\git\70M_Ku_Up\Microchip\TCPIP Stack\TCP.c
                  __pa_85   0x0033b2    program     static D:\git\70M_Ku_Up\Microchip\TCPIP Stack\TCP.c
                  __pa_86   0x0033bc    program     static D:\git\70M_Ku_Up\Microchip\TCPIP Stack\TCP.c
                  __pa_87   0x0033cc    program     static D:\git\70M_Ku_Up\Microchip\TCPIP Stack\TCP.c
                  __pa_88   0x0033da    program     static D:\git\70M_Ku_Up\Microchip\TCPIP Stack\TCP.c
                  __pa_89   0x0033f4    program     static D:\git\70M_Ku_Up\Microchip\TCPIP Stack\TCP.c
                  __pa_90   0x0033fc    program     static D:\git\70M_Ku_Up\Microchip\TCPIP Stack\TCP.c
                  __pa_91   0x003406    program     static D:\git\70M_Ku_Up\Microchip\TCPIP Stack\TCP.c
                  __pa_92   0x003410    program     static D:\git\70M_Ku_Up\Microchip\TCPIP Stack\TCP.c
                  __pa_93   0x00341a    program     static D:\git\70M_Ku_Up\Microchip\TCPIP Stack\TCP.c
                  __pa_94   0x003424    program     static D:\git\70M_Ku_Up\Microchip\TCPIP Stack\TCP.c
                  __pa_95   0x00342e    program     static D:\git\70M_Ku_Up\Microchip\TCPIP Stack\TCP.c
                  __pa_96   0x003446    program     static D:\git\70M_Ku_Up\Microchip\TCPIP Stack\TCP.c
                  __pa_97   0x003454    program     static D:\git\70M_Ku_Up\Microchip\TCPIP Stack\TCP.c
                  __pa_98   0x00346c    program     static D:\git\70M_Ku_Up\Microchip\TCPIP Stack\TCP.c
                  __pa_99   0x00347c    program     static D:\git\70M_Ku_Up\Microchip\TCPIP Stack\TCP.c
                 __pa_100   0x003494    program     static D:\git\70M_Ku_Up\Microchip\TCPIP Stack\TCP.c
                 __pa_101   0x0034ac    program     static D:\git\70M_Ku_Up\Microchip\TCPIP Stack\TCP.c
                 __pa_102   0x0034b8    program     static D:\git\70M_Ku_Up\Microchip\TCPIP Stack\TCP.c
                 __pa_103   0x0034c4    program     static D:\git\70M_Ku_Up\Microchip\TCPIP Stack\TCP.c
                 __pa_104   0x0034d0    program     static D:\git\70M_Ku_Up\Microchip\TCPIP Stack\TCP.c
                 __pa_105   0x0034e6    program     static D:\git\70M_Ku_Up\Microchip\TCPIP Stack\TCP.c
                 __pa_106   0x0034f6    program     static D:\git\70M_Ku_Up\Microchip\TCPIP Stack\TCP.c
                 __pa_107   0x00350c    program     static D:\git\70M_Ku_Up\Microchip\TCPIP Stack\TCP.c
                 __pa_108   0x003522    program     static D:\git\70M_Ku_Up\Microchip\TCPIP Stack\TCP.c
                 __pa_109   0x003530    program     static D:\git\70M_Ku_Up\Microchip\TCPIP Stack\TCP.c
                 __pa_110   0x00353e    program     static D:\git\70M_Ku_Up\Microchip\TCPIP Stack\TCP.c
                 __pa_111   0x003546    program     static D:\git\70M_Ku_Up\Microchip\TCPIP Stack\TCP.c
                 __pa_112   0x003554    program     static D:\git\70M_Ku_Up\Microchip\TCPIP Stack\TCP.c
                 __pa_113   0x00355c    program     static D:\git\70M_Ku_Up\Microchip\TCPIP Stack\TCP.c
                 __pa_114   0x00356a    program     static D:\git\70M_Ku_Up\Microchip\TCPIP Stack\TCP.c
                 __pa_115   0x003578    program     static D:\git\70M_Ku_Up\Microchip\TCPIP Stack\TCP.c
                 __pa_116   0x003586    program     static D:\git\70M_Ku_Up\Microchip\TCPIP Stack\TCP.c
                 __pa_117   0x003590    program     static D:\git\70M_Ku_Up\Microchip\TCPIP Stack\TCP.c
                 __pa_118   0x00359a    program     static D:\git\70M_Ku_Up\Microchip\TCPIP Stack\TCP.c
                 __pa_119   0x0035a4    program     static D:\git\70M_Ku_Up\Microchip\TCPIP Stack\TCP.c
                 __pa_120   0x0035ae    program     static D:\git\70M_Ku_Up\Microchip\TCPIP Stack\TCP.c
                 __pa_121   0x0035b8    program     static D:\git\70M_Ku_Up\Microchip\TCPIP Stack\TCP.c
                 __pa_122   0x0035c0    program     static D:\git\70M_Ku_Up\Microchip\TCPIP Stack\TCP.c
                 __pa_123   0x0035d4    program     static D:\git\70M_Ku_Up\Microchip\TCPIP Stack\TCP.c
                 __pa_124   0x0035e8    program     static D:\git\70M_Ku_Up\Microchip\TCPIP Stack\TCP.c
                 __pa_125   0x0035fc    program     static D:\git\70M_Ku_Up\Microchip\TCPIP Stack\TCP.c
                 __pa_126   0x003604    program     static D:\git\70M_Ku_Up\Microchip\TCPIP Stack\TCP.c
                 __pa_127   0x00360e    program     static D:\git\70M_Ku_Up\Microchip\TCPIP Stack\TCP.c
                 __pa_128   0x003620    program     static D:\git\70M_Ku_Up\Microchip\TCPIP Stack\TCP.c
                 __pa_129   0x003632    program     static D:\git\70M_Ku_Up\Microchip\TCPIP Stack\TCP.c
                 __pa_130   0x003644    program     static D:\git\70M_Ku_Up\Microchip\TCPIP Stack\TCP.c
                 __pa_131   0x003656    program     static D:\git\70M_Ku_Up\Microchip\TCPIP Stack\TCP.c
                 __pa_132   0x003668    program     static D:\git\70M_Ku_Up\Microchip\TCPIP Stack\TCP.c
                 __pa_133   0x00367a    program     static D:\git\70M_Ku_Up\Microchip\TCPIP Stack\TCP.c
                 __pa_134   0x00368c    program     static D:\git\70M_Ku_Up\Microchip\TCPIP Stack\TCP.c
                 __pa_135   0x00369e    program     static D:\git\70M_Ku_Up\Microchip\TCPIP Stack\TCP.c
                 __pa_136   0x0036b0    program     static D:\git\70M_Ku_Up\Microchip\TCPIP Stack\TCP.c
                 __pa_137   0x0036b8    program     static D:\git\70M_Ku_Up\Microchip\TCPIP Stack\TCP.c
                 __pa_138   0x0036c6    program     static D:\git\70M_Ku_Up\Microchip\TCPIP Stack\TCP.c
                 __pa_139   0x0036d2    program     static D:\git\70M_Ku_Up\Microchip\TCPIP Stack\TCP.c
                 __pa_140   0x0036de    program     static D:\git\70M_Ku_Up\Microchip\TCPIP Stack\TCP.c
                 __pa_141   0x0036e8    program     static D:\git\70M_Ku_Up\Microchip\TCPIP Stack\TCP.c
                 __pa_142   0x0036f2    program     static D:\git\70M_Ku_Up\Microchip\TCPIP Stack\TCP.c
                 __pa_143   0x0036fc    program     static D:\git\70M_Ku_Up\Microchip\TCPIP Stack\TCP.c
                 __pa_144   0x00370c    program     static D:\git\70M_Ku_Up\Microchip\TCPIP Stack\TCP.c
                 __pa_145   0x00371c    program     static D:\git\70M_Ku_Up\Microchip\TCPIP Stack\TCP.c
                 __pa_146   0x00372c    program     static D:\git\70M_Ku_Up\Microchip\TCPIP Stack\TCP.c
                 __pa_147   0x00373c    program     static D:\git\70M_Ku_Up\Microchip\TCPIP Stack\TCP.c
                 __pa_148   0x00374c    program     static D:\git\70M_Ku_Up\Microchip\TCPIP Stack\TCP.c
                 __pa_149   0x003752    program     static D:\git\70M_Ku_Up\Microchip\TCPIP Stack\TCP.c
                 __pa_150   0x003760    program     static D:\git\70M_Ku_Up\Microchip\TCPIP Stack\TCP.c
                 __pa_151   0x00376e    program     static D:\git\70M_Ku_Up\Microchip\TCPIP Stack\TCP.c
                 __pa_152   0x00377c    program     static D:\git\70M_Ku_Up\Microchip\TCPIP Stack\TCP.c
                 __pa_153   0x00378a    program     static D:\git\70M_Ku_Up\Microchip\TCPIP Stack\TCP.c
                 __pa_154   0x003798    program     static D:\git\70M_Ku_Up\Microchip\TCPIP Stack\TCP.c
                 __pa_155   0x0037a6    program     static D:\git\70M_Ku_Up\Microchip\TCPIP Stack\TCP.c
                 __pa_156   0x0037b4    program     static D:\git\70M_Ku_Up\Microchip\TCPIP Stack\TCP.c
                 __pa_157   0x0037c2    program     static D:\git\70M_Ku_Up\Microchip\TCPIP Stack\TCP.c
                 __pa_158   0x0037d0    program     static D:\git\70M_Ku_Up\Microchip\TCPIP Stack\TCP.c
                 __pa_159   0x0037de    program     static D:\git\70M_Ku_Up\Microchip\TCPIP Stack\TCP.c
                 __pa_160   0x0037ec    program     static D:\git\70M_Ku_Up\Microchip\TCPIP Stack\TCP.c
                 __pa_161   0x0037fa    program     static D:\git\70M_Ku_Up\Microchip\TCPIP Stack\TCP.c
                 __pa_162   0x003808    program     static D:\git\70M_Ku_Up\Microchip\TCPIP Stack\TCP.c
                 __pa_163   0x003816    program     static D:\git\70M_Ku_Up\Microchip\TCPIP Stack\TCP.c
                 __pa_164   0x003824    program     static D:\git\70M_Ku_Up\Microchip\TCPIP Stack\TCP.c
                 __pa_165   0x00382e    program     static D:\git\70M_Ku_Up\Microchip\TCPIP Stack\TCP.c
                 __pa_166   0x003838    program     static D:\git\70M_Ku_Up\Microchip\TCPIP Stack\TCP.c
                 __pa_167   0x003842    program     static D:\git\70M_Ku_Up\Microchip\TCPIP Stack\TCP.c
                 __pa_168   0x00384c    program     static D:\git\70M_Ku_Up\Microchip\TCPIP Stack\TCP.c
                 __pa_169   0x003856    program     static D:\git\70M_Ku_Up\Microchip\TCPIP Stack\TCP.c
                 __pa_170   0x003860    program     static D:\git\70M_Ku_Up\Microchip\TCPIP Stack\TCP.c
                 __pa_171   0x00386a    program     static D:\git\70M_Ku_Up\Microchip\TCPIP Stack\TCP.c
                 __pa_172   0x003874    program     static D:\git\70M_Ku_Up\Microchip\TCPIP Stack\TCP.c
                 __pa_173   0x00387c    program     static D:\git\70M_Ku_Up\Microchip\TCPIP Stack\TCP.c
                 __pa_174   0x003886    program     static D:\git\70M_Ku_Up\Microchip\TCPIP Stack\TCP.c
                 __pa_175   0x003894    program     static D:\git\70M_Ku_Up\Microchip\TCPIP Stack\TCP.c
                 __pa_176   0x0038bc    program     static D:\git\70M_Ku_Up\Microchip\TCPIP Stack\TCP.c
                 __pa_177   0x0038ca    program     static D:\git\70M_Ku_Up\Microchip\TCPIP Stack\TCP.c
                 __pa_178   0x0038d2    program     static D:\git\70M_Ku_Up\Microchip\TCPIP Stack\TCP.c
                 __pa_179   0x0038dc    program     static D:\git\70M_Ku_Up\Microchip\TCPIP Stack\TCP.c
                 __pa_180   0x0038ea    program     static D:\git\70M_Ku_Up\Microchip\TCPIP Stack\TCP.c
                 __pa_181   0x0038f4    program     static D:\git\70M_Ku_Up\Microchip\TCPIP Stack\TCP.c
                 __pa_182   0x003902    program     static D:\git\70M_Ku_Up\Microchip\TCPIP Stack\TCP.c
                 __pa_183   0x00390e    program     static D:\git\70M_Ku_Up\Microchip\TCPIP Stack\TCP.c
                 __pa_184   0x003918    program     static D:\git\70M_Ku_Up\Microchip\TCPIP Stack\TCP.c
                 __pa_185   0x003928    program     static D:\git\70M_Ku_Up\Microchip\TCPIP Stack\TCP.c
                 __pa_186   0x003932    program     static D:\git\70M_Ku_Up\Microchip\TCPIP Stack\TCP.c
                 __pa_187   0x003950    program     static D:\git\70M_Ku_Up\Microchip\TCPIP Stack\TCP.c
                 __pa_188   0x003966    program     static D:\git\70M_Ku_Up\Microchip\TCPIP Stack\TCP.c
                 __pa_189   0x00397c    program     static D:\git\70M_Ku_Up\Microchip\TCPIP Stack\TCP.c
                 __pa_190   0x003998    program     static D:\git\70M_Ku_Up\Microchip\TCPIP Stack\TCP.c
                 __pa_191   0x0039b4    program     static D:\git\70M_Ku_Up\Microchip\TCPIP Stack\TCP.c
                 __pa_192   0x0039c0    program     static D:\git\70M_Ku_Up\Microchip\TCPIP Stack\TCP.c
                 __pa_193   0x0039ce    program     static D:\git\70M_Ku_Up\Microchip\TCPIP Stack\TCP.c
                 __pa_194   0x0039d8    program     static D:\git\70M_Ku_Up\Microchip\TCPIP Stack\TCP.c
                 __pa_195   0x0039e2    program     static D:\git\70M_Ku_Up\Microchip\TCPIP Stack\TCP.c
                 __pa_196   0x0039ea    program     static D:\git\70M_Ku_Up\Microchip\TCPIP Stack\TCP.c
                 __pa_197   0x0039f4    program     static D:\git\70M_Ku_Up\Microchip\TCPIP Stack\TCP.c
                 __pa_198   0x0039fe    program     static D:\git\70M_Ku_Up\Microchip\TCPIP Stack\TCP.c
                 __pa_199   0x003a08    program     static D:\git\70M_Ku_Up\Microchip\TCPIP Stack\TCP.c
                 __pa_200   0x003a12    program     static D:\git\70M_Ku_Up\Microchip\TCPIP Stack\TCP.c
                 __pa_201   0x003a28    program     static D:\git\70M_Ku_Up\Microchip\TCPIP Stack\TCP.c
                 __pa_202   0x003a34    program     static D:\git\70M_Ku_Up\Microchip\TCPIP Stack\TCP.c
                 __pa_203   0x003a40    program     static D:\git\70M_Ku_Up\Microchip\TCPIP Stack\TCP.c
                 __pa_204   0x003a46    program     static D:\git\70M_Ku_Up\Microchip\TCPIP Stack\TCP.c
                 __pa_205   0x003a52    program     static D:\git\70M_Ku_Up\Microchip\TCPIP Stack\TCP.c
                 __pa_206   0x003a66    program     static D:\git\70M_Ku_Up\Microchip\TCPIP Stack\TCP.c
                 __pa_207   0x003a7a    program     static D:\git\70M_Ku_Up\Microchip\TCPIP Stack\TCP.c
                 __pa_208   0x003a88    program     static D:\git\70M_Ku_Up\Microchip\TCPIP Stack\TCP.c
                 __pa_209   0x003a92    program     static D:\git\70M_Ku_Up\Microchip\TCPIP Stack\TCP.c
                 __pa_210   0x003a9a    program     static D:\git\70M_Ku_Up\Microchip\TCPIP Stack\TCP.c
                 __pa_211   0x003aa4    program     static D:\git\70M_Ku_Up\Microchip\TCPIP Stack\TCP.c
                 __pa_212   0x003aae    program     static D:\git\70M_Ku_Up\Microchip\TCPIP Stack\TCP.c
                 __pa_213   0x003ab6    program     static D:\git\70M_Ku_Up\Microchip\TCPIP Stack\TCP.c
                 __pa_214   0x003ac4    program     static D:\git\70M_Ku_Up\Microchip\TCPIP Stack\TCP.c
                 __pa_215   0x003ace    program     static D:\git\70M_Ku_Up\Microchip\TCPIP Stack\TCP.c
                 __pa_216   0x003ada    program     static D:\git\70M_Ku_Up\Microchip\TCPIP Stack\TCP.c
                 __pa_217   0x003aec    program     static D:\git\70M_Ku_Up\Microchip\TCPIP Stack\TCP.c
                 __pa_218   0x003af2    program     static D:\git\70M_Ku_Up\Microchip\TCPIP Stack\TCP.c
                 __pa_219   0x003afa    program     static D:\git\70M_Ku_Up\Microchip\TCPIP Stack\TCP.c
                 __pa_220   0x003b0c    program     static D:\git\70M_Ku_Up\Microchip\TCPIP Stack\TCP.c
                 __pa_221   0x003b1a    program     static D:\git\70M_Ku_Up\Microchip\TCPIP Stack\TCP.c
                 __pa_222   0x003b24    program     static D:\git\70M_Ku_Up\Microchip\TCPIP Stack\TCP.c
                 __pa_223   0x003b2e    program     static D:\git\70M_Ku_Up\Microchip\TCPIP Stack\TCP.c
             __tmplbl_214   0x003b2e    program     static                          
                 __pa_224   0x003b38    program     static D:\git\70M_Ku_Up\Microchip\TCPIP Stack\TCP.c
                 __pa_225   0x003b40    program     static D:\git\70M_Ku_Up\Microchip\TCPIP Stack\TCP.c
                 __pa_226   0x003b4a    program     static D:\git\70M_Ku_Up\Microchip\TCPIP Stack\TCP.c
                 __pa_227   0x003b54    program     static D:\git\70M_Ku_Up\Microchip\TCPIP Stack\TCP.c
                 __pa_228   0x003b5c    program     static D:\git\70M_Ku_Up\Microchip\TCPIP Stack\TCP.c
                 __pa_229   0x003b66    program     static D:\git\70M_Ku_Up\Microchip\TCPIP Stack\TCP.c
                 __pa_230   0x003b74    program     static D:\git\70M_Ku_Up\Microchip\TCPIP Stack\TCP.c
                 __pa_231   0x003b84    program     static D:\git\70M_Ku_Up\Microchip\TCPIP Stack\TCP.c
                 __pa_232   0x003b94    program     static D:\git\70M_Ku_Up\Microchip\TCPIP Stack\TCP.c
                 __pa_233   0x003ba2    program     static D:\git\70M_Ku_Up\Microchip\TCPIP Stack\TCP.c
             __tmplbl_215   0x003ba2    program     static                          
                 __pa_234   0x003bb0    program     static D:\git\70M_Ku_Up\Microchip\TCPIP Stack\TCP.c
                 __pa_235   0x003bbc    program     static D:\git\70M_Ku_Up\Microchip\TCPIP Stack\TCP.c
                 __pa_236   0x003bc8    program     static D:\git\70M_Ku_Up\Microchip\TCPIP Stack\TCP.c
                 __pa_237   0x003bd2    program     static D:\git\70M_Ku_Up\Microchip\TCPIP Stack\TCP.c
                 __pa_238   0x003bde    program     static D:\git\70M_Ku_Up\Microchip\TCPIP Stack\TCP.c
                 __pa_239   0x003bec    program     static D:\git\70M_Ku_Up\Microchip\TCPIP Stack\TCP.c
                 __pa_240   0x003bfa    program     static D:\git\70M_Ku_Up\Microchip\TCPIP Stack\TCP.c
                 __pa_241   0x003c08    program     static D:\git\70M_Ku_Up\Microchip\TCPIP Stack\TCP.c
                 __pa_242   0x003c16    program     static D:\git\70M_Ku_Up\Microchip\TCPIP Stack\TCP.c
                 __pa_243   0x003c24    program     static D:\git\70M_Ku_Up\Microchip\TCPIP Stack\TCP.c
                 __pa_244   0x003c32    program     static D:\git\70M_Ku_Up\Microchip\TCPIP Stack\TCP.c
                 __pa_245   0x003c40    program     static D:\git\70M_Ku_Up\Microchip\TCPIP Stack\TCP.c
                 __pa_246   0x003c4e    program     static D:\git\70M_Ku_Up\Microchip\TCPIP Stack\TCP.c
                 __pa_247   0x003c5c    program     static D:\git\70M_Ku_Up\Microchip\TCPIP Stack\TCP.c
                 __pa_248   0x003c6a    program     static D:\git\70M_Ku_Up\Microchip\TCPIP Stack\TCP.c
                 __pa_249   0x003c78    program     static D:\git\70M_Ku_Up\Microchip\TCPIP Stack\TCP.c
                 __pa_250   0x003c86    program     static D:\git\70M_Ku_Up\Microchip\TCPIP Stack\TCP.c
                 __pa_251   0x003c8e    program     static D:\git\70M_Ku_Up\Microchip\TCPIP Stack\TCP.c
                 __pa_252   0x003c98    program     static D:\git\70M_Ku_Up\Microchip\TCPIP Stack\TCP.c
                 __pa_253   0x003ca2    program     static D:\git\70M_Ku_Up\Microchip\TCPIP Stack\TCP.c
                 __pa_254   0x003cac    program     static D:\git\70M_Ku_Up\Microchip\TCPIP Stack\TCP.c
                 __pa_255   0x003cb6    program     static D:\git\70M_Ku_Up\Microchip\TCPIP Stack\TCP.c
                 __pa_256   0x003cbe    program     static D:\git\70M_Ku_Up\Microchip\TCPIP Stack\TCP.c
                 __pa_257   0x003cc8    program     static D:\git\70M_Ku_Up\Microchip\TCPIP Stack\TCP.c
                 __pa_258   0x003cd2    program     static D:\git\70M_Ku_Up\Microchip\TCPIP Stack\TCP.c
                 __pa_259   0x003cdc    program     static D:\git\70M_Ku_Up\Microchip\TCPIP Stack\TCP.c
                 __pa_260   0x003ce6    program     static D:\git\70M_Ku_Up\Microchip\TCPIP Stack\TCP.c
                 __pa_261   0x003cee    program     static D:\git\70M_Ku_Up\Microchip\TCPIP Stack\TCP.c
                 __pa_262   0x003cfa    program     static D:\git\70M_Ku_Up\Microchip\TCPIP Stack\TCP.c
                 __pa_263   0x003d0a    program     static D:\git\70M_Ku_Up\Microchip\TCPIP Stack\TCP.c
                 __pa_264   0x003d14    program     static D:\git\70M_Ku_Up\Microchip\TCPIP Stack\TCP.c
                 __pa_265   0x003d26    program     static D:\git\70M_Ku_Up\Microchip\TCPIP Stack\TCP.c
                 __pa_266   0x003d36    program     static D:\git\70M_Ku_Up\Microchip\TCPIP Stack\TCP.c
                 __pa_267   0x003d44    program     static D:\git\70M_Ku_Up\Microchip\TCPIP Stack\TCP.c
                 __pa_268   0x003d4a    program     static D:\git\70M_Ku_Up\Microchip\TCPIP Stack\TCP.c
                 __pa_269   0x003d58    program     static D:\git\70M_Ku_Up\Microchip\TCPIP Stack\TCP.c
                 __pa_270   0x003d60    program     static D:\git\70M_Ku_Up\Microchip\TCPIP Stack\TCP.c
                 __pa_271   0x003d6a    program     static D:\git\70M_Ku_Up\Microchip\TCPIP Stack\TCP.c
                 __pa_272   0x003d72    program     static D:\git\70M_Ku_Up\Microchip\TCPIP Stack\TCP.c
                 __pa_273   0x003d7a    program     static D:\git\70M_Ku_Up\Microchip\TCPIP Stack\TCP.c
                 __pa_274   0x003d86    program     static D:\git\70M_Ku_Up\Microchip\TCPIP Stack\TCP.c
                 __pa_275   0x003d92    program     static D:\git\70M_Ku_Up\Microchip\TCPIP Stack\TCP.c
                 __pa_276   0x003d9e    program     static D:\git\70M_Ku_Up\Microchip\TCPIP Stack\TCP.c
                 __pa_277   0x003daa    program     static D:\git\70M_Ku_Up\Microchip\TCPIP Stack\TCP.c
             __tmplbl_213   0x003daa    program     static                          
                 __pa_278   0x003db6    program     static D:\git\70M_Ku_Up\Microchip\TCPIP Stack\TCP.c
                 __pa_279   0x003dbe    program     static D:\git\70M_Ku_Up\Microchip\TCPIP Stack\TCP.c
                 __pa_280   0x003dc6    program     static D:\git\70M_Ku_Up\Microchip\TCPIP Stack\TCP.c
                 __pa_281   0x003dce    program     static D:\git\70M_Ku_Up\Microchip\TCPIP Stack\TCP.c
                 __pa_282   0x003dd6    program     static D:\git\70M_Ku_Up\Microchip\TCPIP Stack\TCP.c
                 __pa_283   0x003de0    program     static D:\git\70M_Ku_Up\Microchip\TCPIP Stack\TCP.c
                 __pa_284   0x003de8    program     static D:\git\70M_Ku_Up\Microchip\TCPIP Stack\TCP.c
             __tmplbl_216   0x003de8    program     static                          
                 __pa_285   0x003df0    program     static D:\git\70M_Ku_Up\Microchip\TCPIP Stack\TCP.c
                 __pa_286   0x003df8    program     static D:\git\70M_Ku_Up\Microchip\TCPIP Stack\TCP.c
                 __pa_287   0x003e00    program     static D:\git\70M_Ku_Up\Microchip\TCPIP Stack\TCP.c
                HTTPPrint   0x003e0a    program     extern D:\git\70M_Ku_Up\Microchip\Include\TCPIP Stack\HTTPPrint.h
               HTTPPrint_   0x00458c    program     extern D:\git\70M_Ku_Up\Microchip\Include\TCPIP Stack\HTTPPrint.h
                 HTTPInit   0x00459e    program     extern D:\git\70M_Ku_Up\Microchip\TCPIP Stack\HTTP2.c
               HTTPServer   0x004600    program     extern D:\git\70M_Ku_Up\Microchip\TCPIP Stack\HTTP2.c
             HTTPLoadConn   0x004682    program     static D:\git\70M_Ku_Up\Microchip\TCPIP Stack\HTTP2.c
              HTTPProcess   0x0046ca    program     static D:\git\70M_Ku_Up\Microchip\TCPIP Stack\HTTP2.c
             __tmplbl_198   0x0046da    program     static                          
             __tmplbl_175   0x004f8e    program     static                          
             __tmplbl_174   0x004f94    program     static                          
             __tmplbl_173   0x004fc0    program     static                          
             __tmplbl_172   0x005006    program     static                          
             __tmplbl_184   0x005022    program     static                          
             __tmplbl_183   0x005022    program     static                          
             __tmplbl_182   0x005022    program     static                          
             HTTPSendFile   0x00503c    program     static D:\git\70M_Ku_Up\Microchip\TCPIP Stack\HTTP2.c
    HTTPHeaderParseLookup   0x0051b4    program     static D:\git\70M_Ku_Up\Microchip\TCPIP Stack\HTTP2.c
HTTPHeaderParseAuthorization   0x0051d0    program     static D:\git\70M_Ku_Up\Microchip\TCPIP Stack\HTTP2.c
HTTPHeaderParseContentLength   0x0052fc    program     static D:\git\70M_Ku_Up\Microchip\TCPIP Stack\HTTP2.c
            HTTPURLDecode   0x005384    program     extern D:\git\70M_Ku_Up\Microchip\TCPIP Stack\HTTP2.c
               HTTPGetArg   0x0054be    program     extern D:\git\70M_Ku_Up\Microchip\TCPIP Stack\HTTP2.c
            HTTPGetROMArg   0x005504    program     extern D:\git\70M_Ku_Up\Microchip\TCPIP Stack\HTTP2.c
         HTTPReadPostName   0x005566    program     extern D:\git\70M_Ku_Up\Microchip\TCPIP Stack\HTTP2.c
        HTTPReadPostValue   0x005596    program     extern D:\git\70M_Ku_Up\Microchip\TCPIP Stack\HTTP2.c
               HTTPReadTo   0x005606    program     static D:\git\70M_Ku_Up\Microchip\TCPIP Stack\HTTP2.c
           HTTPMPFSUpload   0x005792    program     static D:\git\70M_Ku_Up\Microchip\TCPIP Stack\HTTP2.c
              HTTPIncFile   0x0059c2    program     extern D:\git\70M_Ku_Up\Microchip\TCPIP Stack\HTTP2.c
                   __pa_0   0x005ad4    program     static D:\git\70M_Ku_Up\Microchip\TCPIP Stack\HTTP2.c
                   __pa_1   0x005ade    program     static D:\git\70M_Ku_Up\Microchip\TCPIP Stack\HTTP2.c
                   __pa_2   0x005b30    program     static D:\git\70M_Ku_Up\Microchip\TCPIP Stack\HTTP2.c
                   __pa_3   0x005b3c    program     static D:\git\70M_Ku_Up\Microchip\TCPIP Stack\HTTP2.c
             __tmplbl_168   0x005b58    program     static                          
             __tmplbl_169   0x005b58    program     static                          
             __tmplbl_170   0x005b58    program     static                          
             __tmplbl_171   0x005b58    program     static                          
                   __pa_4   0x005b58    program     static D:\git\70M_Ku_Up\Microchip\TCPIP Stack\HTTP2.c
             __tmplbl_199   0x005b58    program     static                          
             __tmplbl_200   0x005b58    program     static                          
             __tmplbl_201   0x005b58    program     static                          
             __tmplbl_203   0x005b58    program     static                          
                   __pa_5   0x005b64    program     static D:\git\70M_Ku_Up\Microchip\TCPIP Stack\HTTP2.c
                   __pa_6   0x005b8c    program     static D:\git\70M_Ku_Up\Microchip\TCPIP Stack\HTTP2.c
                   __pa_7   0x005b94    program     static D:\git\70M_Ku_Up\Microchip\TCPIP Stack\HTTP2.c
                   __pa_8   0x005bb0    program     static D:\git\70M_Ku_Up\Microchip\TCPIP Stack\HTTP2.c
                   __pa_9   0x005bbe    program     static D:\git\70M_Ku_Up\Microchip\TCPIP Stack\HTTP2.c
                  __pa_10   0x005bc4    program     static D:\git\70M_Ku_Up\Microchip\TCPIP Stack\HTTP2.c
                  __pa_11   0x005bca    program     static D:\git\70M_Ku_Up\Microchip\TCPIP Stack\HTTP2.c
                  __pa_12   0x005bd4    program     static D:\git\70M_Ku_Up\Microchip\TCPIP Stack\HTTP2.c
                  __pa_13   0x005bfa    program     static D:\git\70M_Ku_Up\Microchip\TCPIP Stack\HTTP2.c
                  __pa_14   0x005c02    program     static D:\git\70M_Ku_Up\Microchip\TCPIP Stack\HTTP2.c
                  __pa_15   0x005c0a    program     static D:\git\70M_Ku_Up\Microchip\TCPIP Stack\HTTP2.c
                  __pa_16   0x005c18    program     static D:\git\70M_Ku_Up\Microchip\TCPIP Stack\HTTP2.c
                  __pa_17   0x005c22    program     static D:\git\70M_Ku_Up\Microchip\TCPIP Stack\HTTP2.c
                  __pa_18   0x005c32    program     static D:\git\70M_Ku_Up\Microchip\TCPIP Stack\HTTP2.c
                  __pa_19   0x005c40    program     static D:\git\70M_Ku_Up\Microchip\TCPIP Stack\HTTP2.c
                  __pa_20   0x005c46    program     static D:\git\70M_Ku_Up\Microchip\TCPIP Stack\HTTP2.c
                  __pa_21   0x005c50    program     static D:\git\70M_Ku_Up\Microchip\TCPIP Stack\HTTP2.c
                  __pa_22   0x005c5a    program     static D:\git\70M_Ku_Up\Microchip\TCPIP Stack\HTTP2.c
                  __pa_23   0x005c6e    program     static D:\git\70M_Ku_Up\Microchip\TCPIP Stack\HTTP2.c
                  __pa_24   0x005c7a    program     static D:\git\70M_Ku_Up\Microchip\TCPIP Stack\HTTP2.c
                  __pa_25   0x005c80    program     static D:\git\70M_Ku_Up\Microchip\TCPIP Stack\HTTP2.c
                  __pa_26   0x005c86    program     static D:\git\70M_Ku_Up\Microchip\TCPIP Stack\HTTP2.c
                  __pa_27   0x005c8c    program     static D:\git\70M_Ku_Up\Microchip\TCPIP Stack\HTTP2.c
                  __pa_28   0x005c92    program     static D:\git\70M_Ku_Up\Microchip\TCPIP Stack\HTTP2.c
                  __pa_29   0x005c9c    program     static D:\git\70M_Ku_Up\Microchip\TCPIP Stack\HTTP2.c
                  __pa_30   0x005caa    program     static D:\git\70M_Ku_Up\Microchip\TCPIP Stack\HTTP2.c
                  __pa_31   0x005cb4    program     static D:\git\70M_Ku_Up\Microchip\TCPIP Stack\HTTP2.c
                  __pa_32   0x005cc4    program     static D:\git\70M_Ku_Up\Microchip\TCPIP Stack\HTTP2.c
                  __pa_33   0x005cd2    program     static D:\git\70M_Ku_Up\Microchip\TCPIP Stack\HTTP2.c
                  __pa_34   0x005ce6    program     static D:\git\70M_Ku_Up\Microchip\TCPIP Stack\HTTP2.c
                  __pa_35   0x005cf6    program     static D:\git\70M_Ku_Up\Microchip\TCPIP Stack\HTTP2.c
                  __pa_36   0x005d0a    program     static D:\git\70M_Ku_Up\Microchip\TCPIP Stack\HTTP2.c
                  __pa_37   0x005d1a    program     static D:\git\70M_Ku_Up\Microchip\TCPIP Stack\HTTP2.c
                  __pa_38   0x005d28    program     static D:\git\70M_Ku_Up\Microchip\TCPIP Stack\HTTP2.c
                  __pa_39   0x005d30    program     static D:\git\70M_Ku_Up\Microchip\TCPIP Stack\HTTP2.c
                  __pa_40   0x005d3e    program     static D:\git\70M_Ku_Up\Microchip\TCPIP Stack\HTTP2.c
                  __pa_41   0x005d4a    program     static D:\git\70M_Ku_Up\Microchip\TCPIP Stack\HTTP2.c
                  __pa_42   0x005d56    program     static D:\git\70M_Ku_Up\Microchip\TCPIP Stack\HTTP2.c
                  __pa_43   0x005d60    program     static D:\git\70M_Ku_Up\Microchip\TCPIP Stack\HTTP2.c
                  __pa_44   0x005d68    program     static D:\git\70M_Ku_Up\Microchip\TCPIP Stack\HTTP2.c
                  __pa_45   0x005d78    program     static D:\git\70M_Ku_Up\Microchip\TCPIP Stack\HTTP2.c
                  __pa_46   0x005d88    program     static D:\git\70M_Ku_Up\Microchip\TCPIP Stack\HTTP2.c
                  __pa_47   0x005d98    program     static D:\git\70M_Ku_Up\Microchip\TCPIP Stack\HTTP2.c
                  __pa_48   0x005da8    program     static D:\git\70M_Ku_Up\Microchip\TCPIP Stack\HTTP2.c
                  __pa_49   0x005dae    program     static D:\git\70M_Ku_Up\Microchip\TCPIP Stack\HTTP2.c
                  __pa_50   0x005dba    program     static D:\git\70M_Ku_Up\Microchip\TCPIP Stack\HTTP2.c
                  __pa_51   0x005dc6    program     static D:\git\70M_Ku_Up\Microchip\TCPIP Stack\HTTP2.c
                  __pa_52   0x005dd6    program     static D:\git\70M_Ku_Up\Microchip\TCPIP Stack\HTTP2.c
                  __pa_53   0x005de6    program     static D:\git\70M_Ku_Up\Microchip\TCPIP Stack\HTTP2.c
                  __pa_54   0x005dfc    program     static D:\git\70M_Ku_Up\Microchip\TCPIP Stack\HTTP2.c
                  __pa_55   0x005e08    program     static D:\git\70M_Ku_Up\Microchip\TCPIP Stack\HTTP2.c
                  __pa_56   0x005e16    program     static D:\git\70M_Ku_Up\Microchip\TCPIP Stack\HTTP2.c
                  __pa_57   0x005e24    program     static D:\git\70M_Ku_Up\Microchip\TCPIP Stack\HTTP2.c
                  __pa_58   0x005e34    program     static D:\git\70M_Ku_Up\Microchip\TCPIP Stack\HTTP2.c
                  __pa_59   0x005e42    program     static D:\git\70M_Ku_Up\Microchip\TCPIP Stack\HTTP2.c
                  __pa_60   0x005e56    program     static D:\git\70M_Ku_Up\Microchip\TCPIP Stack\HTTP2.c
                  __pa_61   0x005e5e    program     static D:\git\70M_Ku_Up\Microchip\TCPIP Stack\HTTP2.c
                  __pa_62   0x005e70    program     static D:\git\70M_Ku_Up\Microchip\TCPIP Stack\HTTP2.c
                  __pa_63   0x005e7c    program     static D:\git\70M_Ku_Up\Microchip\TCPIP Stack\HTTP2.c
                  __pa_64   0x005e8e    program     static D:\git\70M_Ku_Up\Microchip\TCPIP Stack\HTTP2.c
                  __pa_65   0x005e9a    program     static D:\git\70M_Ku_Up\Microchip\TCPIP Stack\HTTP2.c
                  __pa_66   0x005ea6    program     static D:\git\70M_Ku_Up\Microchip\TCPIP Stack\HTTP2.c
                  __pa_67   0x005eb2    program     static D:\git\70M_Ku_Up\Microchip\TCPIP Stack\HTTP2.c
                  __pa_68   0x005eb8    program     static D:\git\70M_Ku_Up\Microchip\TCPIP Stack\HTTP2.c
                  __pa_69   0x005ebe    program     static D:\git\70M_Ku_Up\Microchip\TCPIP Stack\HTTP2.c
                  __pa_70   0x005ec8    program     static D:\git\70M_Ku_Up\Microchip\TCPIP Stack\HTTP2.c
                  __pa_71   0x005ed2    program     static D:\git\70M_Ku_Up\Microchip\TCPIP Stack\HTTP2.c
                  __pa_72   0x005ede    program     static D:\git\70M_Ku_Up\Microchip\TCPIP Stack\HTTP2.c
                  __pa_73   0x005eee    program     static D:\git\70M_Ku_Up\Microchip\TCPIP Stack\HTTP2.c
                  __pa_74   0x005ef8    program     static D:\git\70M_Ku_Up\Microchip\TCPIP Stack\HTTP2.c
                  __pa_75   0x005f00    program     static D:\git\70M_Ku_Up\Microchip\TCPIP Stack\HTTP2.c
                  __pa_76   0x005f08    program     static D:\git\70M_Ku_Up\Microchip\TCPIP Stack\HTTP2.c
                  __pa_77   0x005f10    program     static D:\git\70M_Ku_Up\Microchip\TCPIP Stack\HTTP2.c
                  __pa_78   0x005f1e    program     static D:\git\70M_Ku_Up\Microchip\TCPIP Stack\HTTP2.c
                  __pa_79   0x005f2c    program     static D:\git\70M_Ku_Up\Microchip\TCPIP Stack\HTTP2.c
                  __pa_80   0x005f3a    program     static D:\git\70M_Ku_Up\Microchip\TCPIP Stack\HTTP2.c
                  __pa_81   0x005f48    program     static D:\git\70M_Ku_Up\Microchip\TCPIP Stack\HTTP2.c
                  __pa_82   0x005f56    program     static D:\git\70M_Ku_Up\Microchip\TCPIP Stack\HTTP2.c
                  __pa_83   0x005f64    program     static D:\git\70M_Ku_Up\Microchip\TCPIP Stack\HTTP2.c
                  __pa_84   0x005f72    program     static D:\git\70M_Ku_Up\Microchip\TCPIP Stack\HTTP2.c
                  __pa_85   0x005f80    program     static D:\git\70M_Ku_Up\Microchip\TCPIP Stack\HTTP2.c
                  __pa_86   0x005f8e    program     static D:\git\70M_Ku_Up\Microchip\TCPIP Stack\HTTP2.c
                  __pa_87   0x005f98    program     static D:\git\70M_Ku_Up\Microchip\TCPIP Stack\HTTP2.c
                  __pa_88   0x005fa2    program     static D:\git\70M_Ku_Up\Microchip\TCPIP Stack\HTTP2.c
                  __pa_89   0x005faa    program     static D:\git\70M_Ku_Up\Microchip\TCPIP Stack\HTTP2.c
                  __pa_90   0x005fc0    program     static D:\git\70M_Ku_Up\Microchip\TCPIP Stack\HTTP2.c
                  __pa_91   0x005fc6    program     static D:\git\70M_Ku_Up\Microchip\TCPIP Stack\HTTP2.c
                  __pa_92   0x005fd4    program     static D:\git\70M_Ku_Up\Microchip\TCPIP Stack\HTTP2.c
                  __pa_93   0x005fde    program     static D:\git\70M_Ku_Up\Microchip\TCPIP Stack\HTTP2.c
                  __pa_94   0x005fe8    program     static D:\git\70M_Ku_Up\Microchip\TCPIP Stack\HTTP2.c
                  __pa_95   0x005ff2    program     static D:\git\70M_Ku_Up\Microchip\TCPIP Stack\HTTP2.c
                  __pa_96   0x006000    program     static D:\git\70M_Ku_Up\Microchip\TCPIP Stack\HTTP2.c
                  __pa_97   0x006008    program     static D:\git\70M_Ku_Up\Microchip\TCPIP Stack\HTTP2.c
                  __pa_98   0x006012    program     static D:\git\70M_Ku_Up\Microchip\TCPIP Stack\HTTP2.c
                  __pa_99   0x006028    program     static D:\git\70M_Ku_Up\Microchip\TCPIP Stack\HTTP2.c
                 __pa_100   0x00602e    program     static D:\git\70M_Ku_Up\Microchip\TCPIP Stack\HTTP2.c
                 __pa_101   0x006038    program     static D:\git\70M_Ku_Up\Microchip\TCPIP Stack\HTTP2.c
                 __pa_102   0x006040    program     static D:\git\70M_Ku_Up\Microchip\TCPIP Stack\HTTP2.c
                 __pa_103   0x00604e    program     static D:\git\70M_Ku_Up\Microchip\TCPIP Stack\HTTP2.c
                 __pa_104   0x00605c    program     static D:\git\70M_Ku_Up\Microchip\TCPIP Stack\HTTP2.c
                 __pa_105   0x006064    program     static D:\git\70M_Ku_Up\Microchip\TCPIP Stack\HTTP2.c
                 __pa_106   0x006072    program     static D:\git\70M_Ku_Up\Microchip\TCPIP Stack\HTTP2.c
                 __pa_107   0x00607c    program     static D:\git\70M_Ku_Up\Microchip\TCPIP Stack\HTTP2.c
                 __pa_108   0x006088    program     static D:\git\70M_Ku_Up\Microchip\TCPIP Stack\HTTP2.c
                 __pa_109   0x006098    program     static D:\git\70M_Ku_Up\Microchip\TCPIP Stack\HTTP2.c
                 __pa_110   0x0060a0    program     static D:\git\70M_Ku_Up\Microchip\TCPIP Stack\HTTP2.c
                 __pa_111   0x0060aa    program     static D:\git\70M_Ku_Up\Microchip\TCPIP Stack\HTTP2.c
                 __pa_112   0x0060b2    program     static D:\git\70M_Ku_Up\Microchip\TCPIP Stack\HTTP2.c
                 __pa_113   0x0060c0    program     static D:\git\70M_Ku_Up\Microchip\TCPIP Stack\HTTP2.c
                 __pa_114   0x0060c6    program     static D:\git\70M_Ku_Up\Microchip\TCPIP Stack\HTTP2.c
                 __pa_115   0x0060cc    program     static D:\git\70M_Ku_Up\Microchip\TCPIP Stack\HTTP2.c
                 __pa_116   0x0060d8    program     static D:\git\70M_Ku_Up\Microchip\TCPIP Stack\HTTP2.c
                 __pa_117   0x0060e4    program     static D:\git\70M_Ku_Up\Microchip\TCPIP Stack\HTTP2.c
                 __pa_118   0x0060f2    program     static D:\git\70M_Ku_Up\Microchip\TCPIP Stack\HTTP2.c
                 __pa_119   0x006100    program     static D:\git\70M_Ku_Up\Microchip\TCPIP Stack\HTTP2.c
                 __pa_120   0x006108    program     static D:\git\70M_Ku_Up\Microchip\TCPIP Stack\HTTP2.c
                 __pa_121   0x00610e    program     static D:\git\70M_Ku_Up\Microchip\TCPIP Stack\HTTP2.c
                 __pa_122   0x006118    program     static D:\git\70M_Ku_Up\Microchip\TCPIP Stack\HTTP2.c
                 __pa_123   0x006122    program     static D:\git\70M_Ku_Up\Microchip\TCPIP Stack\HTTP2.c
                 __pa_124   0x00612c    program     static D:\git\70M_Ku_Up\Microchip\TCPIP Stack\HTTP2.c
                 __pa_125   0x006134    program     static D:\git\70M_Ku_Up\Microchip\TCPIP Stack\HTTP2.c
                 __pa_126   0x00613c    program     static D:\git\70M_Ku_Up\Microchip\TCPIP Stack\HTTP2.c
                 __pa_127   0x006144    program     static D:\git\70M_Ku_Up\Microchip\TCPIP Stack\HTTP2.c
                 __pa_128   0x00614a    program     static D:\git\70M_Ku_Up\Microchip\TCPIP Stack\HTTP2.c
                 __pa_129   0x006164    program     static D:\git\70M_Ku_Up\Microchip\TCPIP Stack\HTTP2.c
                 __pa_130   0x00616c    program     static D:\git\70M_Ku_Up\Microchip\TCPIP Stack\HTTP2.c
                 __pa_131   0x006172    program     static D:\git\70M_Ku_Up\Microchip\TCPIP Stack\HTTP2.c
                 __pa_132   0x006178    program     static D:\git\70M_Ku_Up\Microchip\TCPIP Stack\HTTP2.c
                 __pa_133   0x006188    program     static D:\git\70M_Ku_Up\Microchip\TCPIP Stack\HTTP2.c
                 __pa_134   0x006192    program     static D:\git\70M_Ku_Up\Microchip\TCPIP Stack\HTTP2.c
                 __pa_135   0x0061a2    program     static D:\git\70M_Ku_Up\Microchip\TCPIP Stack\HTTP2.c
                 __pa_136   0x0061ae    program     static D:\git\70M_Ku_Up\Microchip\TCPIP Stack\HTTP2.c
                 __pa_137   0x0061b8    program     static D:\git\70M_Ku_Up\Microchip\TCPIP Stack\HTTP2.c
                 __pa_138   0x0061c8    program     static D:\git\70M_Ku_Up\Microchip\TCPIP Stack\HTTP2.c
                 __pa_139   0x0061d2    program     static D:\git\70M_Ku_Up\Microchip\TCPIP Stack\HTTP2.c
                 __pa_140   0x0061de    program     static D:\git\70M_Ku_Up\Microchip\TCPIP Stack\HTTP2.c
                 __pa_141   0x0061e8    program     static D:\git\70M_Ku_Up\Microchip\TCPIP Stack\HTTP2.c
                 __pa_142   0x0061f6    program     static D:\git\70M_Ku_Up\Microchip\TCPIP Stack\HTTP2.c
                 __pa_143   0x006204    program     static D:\git\70M_Ku_Up\Microchip\TCPIP Stack\HTTP2.c
                 __pa_144   0x006210    program     static D:\git\70M_Ku_Up\Microchip\TCPIP Stack\HTTP2.c
                 __pa_145   0x006218    program     static D:\git\70M_Ku_Up\Microchip\TCPIP Stack\HTTP2.c
                 __pa_146   0x00621e    program     static D:\git\70M_Ku_Up\Microchip\TCPIP Stack\HTTP2.c
                 __pa_147   0x006224    program     static D:\git\70M_Ku_Up\Microchip\TCPIP Stack\HTTP2.c
                 __pa_148   0x00622c    program     static D:\git\70M_Ku_Up\Microchip\TCPIP Stack\HTTP2.c
                 __pa_149   0x006234    program     static D:\git\70M_Ku_Up\Microchip\TCPIP Stack\HTTP2.c
                 __pa_150   0x00623e    program     static D:\git\70M_Ku_Up\Microchip\TCPIP Stack\HTTP2.c
       DisplayCompanyMenu   0x006244    program     extern D:\git\70M_Ku_Up\Drivers\External-Peripherals\oled_c2.c
            InitalizeMenu   0x006288    program     extern D:\git\70M_Ku_Up\Drivers\External-Peripherals\oled_c2.c
          LCD__u8GetOnOff   0x0063b6    program     extern D:\git\70M_Ku_Up\Drivers\External-Peripherals\oled_c2.c
    LCD__u8UpdateToModule   0x0063ca    program     extern D:\git\70M_Ku_Up\Drivers\External-Peripherals\oled_c2.c
LCD_u8UpdateDisplayContent   0x006438    program     extern D:\git\70M_Ku_Up\Drivers\External-Peripherals\oled_c2.c
      LCD__u8ToParentMenu   0x0064e0    program     static D:\git\70M_Ku_Up\Drivers\External-Peripherals\oled_c2.c
       LCD__u8ToChildMenu   0x0064ea    program     static D:\git\70M_Ku_Up\Drivers\External-Peripherals\oled_c2.c
         LCD__u8UpkeyEdit   0x0064f4    program     extern D:\git\70M_Ku_Up\Drivers\External-Peripherals\oled_c2.c
 LCD__u8UpkeyToParentMenu   0x0065fc    program     static D:\git\70M_Ku_Up\Drivers\External-Peripherals\oled_c2.c
      LCD__u8UpKeyProcess   0x006600    program     static D:\git\70M_Ku_Up\Drivers\External-Peripherals\oled_c2.c
       LCD__u8DownKeyEdit   0x00660e    program     static D:\git\70M_Ku_Up\Drivers\External-Peripherals\oled_c2.c
LCD__u8DownkeyToChildMenu   0x00670a    program     static D:\git\70M_Ku_Up\Drivers\External-Peripherals\oled_c2.c
    LCD__u8DownKeyProcess   0x00670e    program     static D:\git\70M_Ku_Up\Drivers\External-Peripherals\oled_c2.c
LCDSub_vLeftMoveCursorFreq   0x00671c    program     extern D:\git\70M_Ku_Up\Drivers\External-Peripherals\oled_c2.c
LCDSub_vLeftMoveCursorAttn   0x006736    program     extern D:\git\70M_Ku_Up\Drivers\External-Peripherals\oled_c2.c
LCDSub_vLeftMoveCursorPower   0x006750    program     extern D:\git\70M_Ku_Up\Drivers\External-Peripherals\oled_c2.c
 LCDSub_vLeftMoveCursorIP   0x00676a    program     extern D:\git\70M_Ku_Up\Drivers\External-Peripherals\oled_c2.c
 LCD__u8LeftKeyMoveCursor   0x00678a    program     static D:\git\70M_Ku_Up\Drivers\External-Peripherals\oled_c2.c
 LCD__u8LeftKeyToLeftMenu   0x00682a    program     static D:\git\70M_Ku_Up\Drivers\External-Peripherals\oled_c2.c
    LCD__u8LeftKeyProcess   0x006834    program     static D:\git\70M_Ku_Up\Drivers\External-Peripherals\oled_c2.c
LCDSub_vRightMoveCursorFreq   0x006842    program     extern D:\git\70M_Ku_Up\Drivers\External-Peripherals\oled_c2.c
LCDSub_vRightMoveCursorAttn   0x00685e    program     extern D:\git\70M_Ku_Up\Drivers\External-Peripherals\oled_c2.c
LCDSub_vRightMoveCursorPower   0x006878    program     extern D:\git\70M_Ku_Up\Drivers\External-Peripherals\oled_c2.c
LCDSub_vRightMoveCursorIP   0x006894    program     extern D:\git\70M_Ku_Up\Drivers\External-Peripherals\oled_c2.c
LCD__u8RightKeyMoveCursor   0x0068b4    program     static D:\git\70M_Ku_Up\Drivers\External-Peripherals\oled_c2.c
LCD__u8RightKeyToRightMenu   0x006954    program     static D:\git\70M_Ku_Up\Drivers\External-Peripherals\oled_c2.c
   LCD__u8RightKeyProcess   0x00695e    program     static D:\git\70M_Ku_Up\Drivers\External-Peripherals\oled_c2.c
  LCD__u8EnterKeySetValue   0x00696c    program     static D:\git\70M_Ku_Up\Drivers\External-Peripherals\oled_c2.c
LCD__u8EnterKeyToChildMenu   0x006a04    program     static D:\git\70M_Ku_Up\Drivers\External-Peripherals\oled_c2.c
LCD__u8EnterKeyToEditMode   0x006a08    program     static D:\git\70M_Ku_Up\Drivers\External-Peripherals\oled_c2.c
   LCD__u8EnterKeyProcess   0x006a26    program     static D:\git\70M_Ku_Up\Drivers\External-Peripherals\oled_c2.c
LCD__u8CancelKeyExitEditMode   0x006a46    program     static D:\git\70M_Ku_Up\Drivers\External-Peripherals\oled_c2.c
LCD__u8CancelKeyToParentMenu   0x006a56    program     static D:\git\70M_Ku_Up\Drivers\External-Peripherals\oled_c2.c
  LCD__u8CancelKeyProcess   0x006a5a    program     static D:\git\70M_Ku_Up\Drivers\External-Peripherals\oled_c2.c
            KeyProcessing   0x006a6a    program     extern D:\git\70M_Ku_Up\Drivers\External-Peripherals\oled_c2.c
 SYS__u8UpdateUpConverter   0x006aa0    program     static D:\git\70M_Ku_Up\Drivers\External-Peripherals\oled_c2.c
SYS__u8UpdateDownConverter   0x007178    program     static D:\git\70M_Ku_Up\Drivers\External-Peripherals\oled_c2.c
         SYS__u8UpdateVOL   0x0077be    program     static D:\git\70M_Ku_Up\Drivers\External-Peripherals\oled_c2.c
          SYS__u8UpdateLO   0x007dce    program     static D:\git\70M_Ku_Up\Drivers\External-Peripherals\oled_c2.c
             UpdateStatus   0x007ea6    program     extern D:\git\70M_Ku_Up\Drivers\External-Peripherals\oled_c2.c
                   __pa_0   0x007ed0    program     static D:\git\70M_Ku_Up\Drivers\External-Peripherals\oled_c2.c
                   __pa_1   0x007efa    program     static D:\git\70M_Ku_Up\Drivers\External-Peripherals\oled_c2.c
                   __pa_2   0x007f30    program     static D:\git\70M_Ku_Up\Drivers\External-Peripherals\oled_c2.c
                   __pa_3   0x007fa2    program     static D:\git\70M_Ku_Up\Drivers\External-Peripherals\oled_c2.c
                   __pa_4   0x007fea    program     static D:\git\70M_Ku_Up\Drivers\External-Peripherals\oled_c2.c
                   __pa_5   0x008026    program     static D:\git\70M_Ku_Up\Drivers\External-Peripherals\oled_c2.c
                   __pa_6   0x00805e    program     static D:\git\70M_Ku_Up\Drivers\External-Peripherals\oled_c2.c
                   __pa_7   0x00806c    program     static D:\git\70M_Ku_Up\Drivers\External-Peripherals\oled_c2.c
                   __pa_8   0x00807a    program     static D:\git\70M_Ku_Up\Drivers\External-Peripherals\oled_c2.c
                   __pa_9   0x008080    program     static D:\git\70M_Ku_Up\Drivers\External-Peripherals\oled_c2.c
                  __pa_10   0x0080a0    program     static D:\git\70M_Ku_Up\Drivers\External-Peripherals\oled_c2.c
                  __pa_11   0x0080c2    program     static D:\git\70M_Ku_Up\Drivers\External-Peripherals\oled_c2.c
                  __pa_12   0x0080ce    program     static D:\git\70M_Ku_Up\Drivers\External-Peripherals\oled_c2.c
                  __pa_13   0x0080e0    program     static D:\git\70M_Ku_Up\Drivers\External-Peripherals\oled_c2.c
                  __pa_14   0x0080ee    program     static D:\git\70M_Ku_Up\Drivers\External-Peripherals\oled_c2.c
                  __pa_15   0x0080fc    program     static D:\git\70M_Ku_Up\Drivers\External-Peripherals\oled_c2.c
                  __pa_16   0x00810a    program     static D:\git\70M_Ku_Up\Drivers\External-Peripherals\oled_c2.c
                  __pa_17   0x008120    program     static D:\git\70M_Ku_Up\Drivers\External-Peripherals\oled_c2.c
                  __pa_18   0x00812c    program     static D:\git\70M_Ku_Up\Drivers\External-Peripherals\oled_c2.c
                  __pa_19   0x008142    program     static D:\git\70M_Ku_Up\Drivers\External-Peripherals\oled_c2.c
             __tmplbl_137   0x008158    program     static                          
                  __pa_20   0x008158    program     static D:\git\70M_Ku_Up\Drivers\External-Peripherals\oled_c2.c
             __tmplbl_119   0x008158    program     static                          
             __tmplbl_150   0x008158    program     static                          
             __tmplbl_120   0x008158    program     static                          
                  __pa_21   0x008164    program     static D:\git\70M_Ku_Up\Drivers\External-Peripherals\oled_c2.c
                  __pa_22   0x008172    program     static D:\git\70M_Ku_Up\Drivers\External-Peripherals\oled_c2.c
             __tmplbl_121   0x008192    program     static                          
             __tmplbl_122   0x008192    program     static                          
             __tmplbl_123   0x008192    program     static                          
                  __pa_23   0x008192    program     static D:\git\70M_Ku_Up\Drivers\External-Peripherals\oled_c2.c
             __tmplbl_124   0x008192    program     static                          
                  __pa_24   0x0081a2    program     static D:\git\70M_Ku_Up\Drivers\External-Peripherals\oled_c2.c
                  __pa_25   0x0081ae    program     static D:\git\70M_Ku_Up\Drivers\External-Peripherals\oled_c2.c
                  __pa_26   0x0081d4    program     static D:\git\70M_Ku_Up\Drivers\External-Peripherals\oled_c2.c
                  __pa_27   0x0081e2    program     static D:\git\70M_Ku_Up\Drivers\External-Peripherals\oled_c2.c
                  __pa_28   0x0081ec    program     static D:\git\70M_Ku_Up\Drivers\External-Peripherals\oled_c2.c
                  __pa_29   0x00820c    program     static D:\git\70M_Ku_Up\Drivers\External-Peripherals\oled_c2.c
                  __pa_30   0x00821a    program     static D:\git\70M_Ku_Up\Drivers\External-Peripherals\oled_c2.c
                  __pa_31   0x008228    program     static D:\git\70M_Ku_Up\Drivers\External-Peripherals\oled_c2.c
                  __pa_32   0x008236    program     static D:\git\70M_Ku_Up\Drivers\External-Peripherals\oled_c2.c
                  __pa_33   0x008244    program     static D:\git\70M_Ku_Up\Drivers\External-Peripherals\oled_c2.c
                  __pa_34   0x00825a    program     static D:\git\70M_Ku_Up\Drivers\External-Peripherals\oled_c2.c
                  __pa_35   0x00826e    program     static D:\git\70M_Ku_Up\Drivers\External-Peripherals\oled_c2.c
                  __pa_36   0x00827c    program     static D:\git\70M_Ku_Up\Drivers\External-Peripherals\oled_c2.c
                  __pa_37   0x008294    program     static D:\git\70M_Ku_Up\Drivers\External-Peripherals\oled_c2.c
                  __pa_38   0x0082a0    program     static D:\git\70M_Ku_Up\Drivers\External-Peripherals\oled_c2.c
                  __pa_39   0x0082a8    program     static D:\git\70M_Ku_Up\Drivers\External-Peripherals\oled_c2.c
                  __pa_40   0x0082b4    program     static D:\git\70M_Ku_Up\Drivers\External-Peripherals\oled_c2.c
                  __pa_41   0x0082c2    program     static D:\git\70M_Ku_Up\Drivers\External-Peripherals\oled_c2.c
                  __pa_42   0x0082ca    program     static D:\git\70M_Ku_Up\Drivers\External-Peripherals\oled_c2.c
                  __pa_43   0x0082d2    program     static D:\git\70M_Ku_Up\Drivers\External-Peripherals\oled_c2.c
                  __pa_44   0x0082e4    program     static D:\git\70M_Ku_Up\Drivers\External-Peripherals\oled_c2.c
                  __pa_45   0x0082f6    program     static D:\git\70M_Ku_Up\Drivers\External-Peripherals\oled_c2.c
                  __pa_46   0x008300    program     static D:\git\70M_Ku_Up\Drivers\External-Peripherals\oled_c2.c
                  __pa_47   0x00830a    program     static D:\git\70M_Ku_Up\Drivers\External-Peripherals\oled_c2.c
                  __pa_48   0x008312    program     static D:\git\70M_Ku_Up\Drivers\External-Peripherals\oled_c2.c
             __tmplbl_126   0x008312    program     static                          
             __tmplbl_125   0x008312    program     static                          
                  __pa_49   0x008320    program     static D:\git\70M_Ku_Up\Drivers\External-Peripherals\oled_c2.c
                  __pa_50   0x00832e    program     static D:\git\70M_Ku_Up\Drivers\External-Peripherals\oled_c2.c
                  __pa_51   0x00833c    program     static D:\git\70M_Ku_Up\Drivers\External-Peripherals\oled_c2.c
                  __pa_52   0x00834a    program     static D:\git\70M_Ku_Up\Drivers\External-Peripherals\oled_c2.c
                  __pa_53   0x00837a    program     static D:\git\70M_Ku_Up\Drivers\External-Peripherals\oled_c2.c
                  __pa_54   0x008394    program     static D:\git\70M_Ku_Up\Drivers\External-Peripherals\oled_c2.c
                  __pa_55   0x00839a    program     static D:\git\70M_Ku_Up\Drivers\External-Peripherals\oled_c2.c
                  __pa_56   0x0083a0    program     static D:\git\70M_Ku_Up\Drivers\External-Peripherals\oled_c2.c
                  __pa_57   0x0083a6    program     static D:\git\70M_Ku_Up\Drivers\External-Peripherals\oled_c2.c
                  __pa_58   0x0083ac    program     static D:\git\70M_Ku_Up\Drivers\External-Peripherals\oled_c2.c
                  __pa_59   0x0083ba    program     static D:\git\70M_Ku_Up\Drivers\External-Peripherals\oled_c2.c
                  __pa_60   0x0083ce    program     static D:\git\70M_Ku_Up\Drivers\External-Peripherals\oled_c2.c
                  __pa_61   0x0083e2    program     static D:\git\70M_Ku_Up\Drivers\External-Peripherals\oled_c2.c
                  __pa_62   0x0083f6    program     static D:\git\70M_Ku_Up\Drivers\External-Peripherals\oled_c2.c
                  __pa_63   0x008400    program     static D:\git\70M_Ku_Up\Drivers\External-Peripherals\oled_c2.c
                  __pa_64   0x008406    program     static D:\git\70M_Ku_Up\Drivers\External-Peripherals\oled_c2.c
                  __pa_65   0x008416    program     static D:\git\70M_Ku_Up\Drivers\External-Peripherals\oled_c2.c
                  __pa_66   0x008422    program     static D:\git\70M_Ku_Up\Drivers\External-Peripherals\oled_c2.c
                  __pa_67   0x00842e    program     static D:\git\70M_Ku_Up\Drivers\External-Peripherals\oled_c2.c
                  __pa_68   0x008434    program     static D:\git\70M_Ku_Up\Drivers\External-Peripherals\oled_c2.c
                  __pa_69   0x00843a    program     static D:\git\70M_Ku_Up\Drivers\External-Peripherals\oled_c2.c
                  __pa_70   0x008446    program     static D:\git\70M_Ku_Up\Drivers\External-Peripherals\oled_c2.c
                  __pa_71   0x008452    program     static D:\git\70M_Ku_Up\Drivers\External-Peripherals\oled_c2.c
                  __pa_72   0x00845e    program     static D:\git\70M_Ku_Up\Drivers\External-Peripherals\oled_c2.c
                  __pa_73   0x00846a    program     static D:\git\70M_Ku_Up\Drivers\External-Peripherals\oled_c2.c
                  __pa_74   0x008476    program     static D:\git\70M_Ku_Up\Drivers\External-Peripherals\oled_c2.c
                  __pa_75   0x008482    program     static D:\git\70M_Ku_Up\Drivers\External-Peripherals\oled_c2.c
                  __pa_76   0x008490    program     static D:\git\70M_Ku_Up\Drivers\External-Peripherals\oled_c2.c
                  __pa_77   0x00849e    program     static D:\git\70M_Ku_Up\Drivers\External-Peripherals\oled_c2.c
                  __pa_78   0x0084a6    program     static D:\git\70M_Ku_Up\Drivers\External-Peripherals\oled_c2.c
                  __pa_79   0x0084b0    program     static D:\git\70M_Ku_Up\Drivers\External-Peripherals\oled_c2.c
                  __pa_80   0x0084ba    program     static D:\git\70M_Ku_Up\Drivers\External-Peripherals\oled_c2.c
                  __pa_81   0x0084c4    program     static D:\git\70M_Ku_Up\Drivers\External-Peripherals\oled_c2.c
                  __pa_82   0x0084d6    program     static D:\git\70M_Ku_Up\Drivers\External-Peripherals\oled_c2.c
                  __pa_83   0x0084e2    program     static D:\git\70M_Ku_Up\Drivers\External-Peripherals\oled_c2.c
                  __pa_84   0x0084ee    program     static D:\git\70M_Ku_Up\Drivers\External-Peripherals\oled_c2.c
                  __pa_85   0x0084fa    program     static D:\git\70M_Ku_Up\Drivers\External-Peripherals\oled_c2.c
                  __pa_86   0x008508    program     static D:\git\70M_Ku_Up\Drivers\External-Peripherals\oled_c2.c
    HTTPGet__boInfoConfig   0x008516    program     static D:\git\70M_Ku_Up\App\WebUI\HTTPGetDevInfo.c
 HTTPGet__boNetworkConfig   0x00855c    program     static D:\git\70M_Ku_Up\App\WebUI\HTTPGetDevInfo.c
      HTTPGet__boSetOnOff   0x0085ea    program     static D:\git\70M_Ku_Up\App\WebUI\HTTPGetDevInfo.c
HTTPGet__u8SetUpCvtRFFreq   0x008632    program     static D:\git\70M_Ku_Up\App\WebUI\HTTPGetDevInfo.c
HTTPGet__u8SetDownCvtRFFreq   0x008856    program     static D:\git\70M_Ku_Up\App\WebUI\HTTPGetDevInfo.c
  HTTPGet__u8SetUpCvtAttn   0x008972    program     static D:\git\70M_Ku_Up\App\WebUI\HTTPGetDevInfo.c
HTTPGet__u8SetDownCvtAttn   0x008a68    program     static D:\git\70M_Ku_Up\App\WebUI\HTTPGetDevInfo.c
 HTTPGet__u8SetUpCvtPower   0x008b5e    program     static D:\git\70M_Ku_Up\App\WebUI\HTTPGetDevInfo.c
HTTPGet__u8SetUpCvtSetPower   0x008c30    program     static D:\git\70M_Ku_Up\App\WebUI\HTTPGetDevInfo.c
HTTPGet__u8SetDownCvtPower   0x008d3c    program     static D:\git\70M_Ku_Up\App\WebUI\HTTPGetDevInfo.c
HTTPGet__u8SetDownCvtSetPower   0x008e0e    program     static D:\git\70M_Ku_Up\App\WebUI\HTTPGetDevInfo.c
   HTTPGet__u8SetUpCvtALC   0x008f1a    program     static D:\git\70M_Ku_Up\App\WebUI\HTTPGetDevInfo.c
 HTTPGet__u8SetDownCvtALC   0x008fba    program     static D:\git\70M_Ku_Up\App\WebUI\HTTPGetDevInfo.c
  HTTPGet__u8SetUpCvtMute   0x00905c    program     static D:\git\70M_Ku_Up\App\WebUI\HTTPGetDevInfo.c
HTTPGet__u8SetDownCvtMute   0x009112    program     static D:\git\70M_Ku_Up\App\WebUI\HTTPGetDevInfo.c
   HTTPGet__u8SetVOL18VDC   0x0091bc    program     static D:\git\70M_Ku_Up\App\WebUI\HTTPGetDevInfo.c
   HTTPGet__u8SetVOL24VDC   0x009224    program     static D:\git\70M_Ku_Up\App\WebUI\HTTPGetDevInfo.c
     HTTPGet__u8SetBUCREF   0x00928a    program     static D:\git\70M_Ku_Up\App\WebUI\HTTPGetDevInfo.c
     HTTPGet__u8SetLNBREF   0x0092f0    program     static D:\git\70M_Ku_Up\App\WebUI\HTTPGetDevInfo.c
   HTTPGet__u8ClearBUCIAm   0x009352    program     static D:\git\70M_Ku_Up\App\WebUI\HTTPGetDevInfo.c
   HTTPGet__u8ClearLNBIAm   0x009384    program     static D:\git\70M_Ku_Up\App\WebUI\HTTPGetDevInfo.c
  HTTPGet__boDeviceConfig   0x0093b6    program     static D:\git\70M_Ku_Up\App\WebUI\HTTPGetDevInfo.c
   HTTPExe_get_deviceinfo   0x0093e0    program     extern D:\git\70M_Ku_Up\App\WebUI\HTTPGetDevInfo.c
                   __pa_0   0x0098e8    program     static D:\git\70M_Ku_Up\App\WebUI\HTTPGetDevInfo.c
                   __pa_1   0x0098fe    program     static D:\git\70M_Ku_Up\App\WebUI\HTTPGetDevInfo.c
                   __pa_2   0x009918    program     static D:\git\70M_Ku_Up\App\WebUI\HTTPGetDevInfo.c
                   __pa_3   0x009934    program     static D:\git\70M_Ku_Up\App\WebUI\HTTPGetDevInfo.c
                   __pa_4   0x009946    program     static D:\git\70M_Ku_Up\App\WebUI\HTTPGetDevInfo.c
                   __pa_5   0x00994c    program     static D:\git\70M_Ku_Up\App\WebUI\HTTPGetDevInfo.c
                   __pa_6   0x009954    program     static D:\git\70M_Ku_Up\App\WebUI\HTTPGetDevInfo.c
             __tmplbl_127   0x00995a    program     static                          
                   __pa_7   0x00995a    program     static D:\git\70M_Ku_Up\App\WebUI\HTTPGetDevInfo.c
             __tmplbl_129   0x00995a    program     static                          
             __tmplbl_126   0x00995a    program     static                          
             __tmplbl_125   0x00995a    program     static                          
             __tmplbl_136   0x00995a    program     static                          
             __tmplbl_135   0x00995a    program     static                          
             __tmplbl_134   0x00995a    program     static                          
             __tmplbl_133   0x00995a    program     static                          
             __tmplbl_132   0x00995a    program     static                          
             __tmplbl_131   0x00995a    program     static                          
             __tmplbl_130   0x00995a    program     static                          
                   __pa_8   0x009966    program     static D:\git\70M_Ku_Up\App\WebUI\HTTPGetDevInfo.c
                   __pa_9   0x0099e8    program     static D:\git\70M_Ku_Up\App\WebUI\HTTPGetDevInfo.c
                  __pa_10   0x0099ee    program     static D:\git\70M_Ku_Up\App\WebUI\HTTPGetDevInfo.c
                  __pa_11   0x0099f6    program     static D:\git\70M_Ku_Up\App\WebUI\HTTPGetDevInfo.c
                  __pa_12   0x009a12    program     static D:\git\70M_Ku_Up\App\WebUI\HTTPGetDevInfo.c
                  __pa_13   0x009a32    program     static D:\git\70M_Ku_Up\App\WebUI\HTTPGetDevInfo.c
                  __pa_14   0x009a4e    program     static D:\git\70M_Ku_Up\App\WebUI\HTTPGetDevInfo.c
                  __pa_15   0x009a56    program     static D:\git\70M_Ku_Up\App\WebUI\HTTPGetDevInfo.c
                  __pa_16   0x009a6c    program     static D:\git\70M_Ku_Up\App\WebUI\HTTPGetDevInfo.c
                  __pa_17   0x009aa2    program     static D:\git\70M_Ku_Up\App\WebUI\HTTPGetDevInfo.c
                  __pa_18   0x009acc    program     static D:\git\70M_Ku_Up\App\WebUI\HTTPGetDevInfo.c
                  __pa_19   0x009ae4    program     static D:\git\70M_Ku_Up\App\WebUI\HTTPGetDevInfo.c
                  __pa_20   0x009af8    program     static D:\git\70M_Ku_Up\App\WebUI\HTTPGetDevInfo.c
                  __pa_21   0x009b0c    program     static D:\git\70M_Ku_Up\App\WebUI\HTTPGetDevInfo.c
                  __pa_22   0x009b1c    program     static D:\git\70M_Ku_Up\App\WebUI\HTTPGetDevInfo.c
                  __pa_23   0x009b2c    program     static D:\git\70M_Ku_Up\App\WebUI\HTTPGetDevInfo.c
                  __pa_24   0x009b3c    program     static D:\git\70M_Ku_Up\App\WebUI\HTTPGetDevInfo.c
                  __pa_25   0x009b46    program     static D:\git\70M_Ku_Up\App\WebUI\HTTPGetDevInfo.c
                  __pa_26   0x009b4e    program     static D:\git\70M_Ku_Up\App\WebUI\HTTPGetDevInfo.c
                  __pa_27   0x009b5c    program     static D:\git\70M_Ku_Up\App\WebUI\HTTPGetDevInfo.c
                  __pa_28   0x009b74    program     static D:\git\70M_Ku_Up\App\WebUI\HTTPGetDevInfo.c
                  __pa_29   0x009b80    program     static D:\git\70M_Ku_Up\App\WebUI\HTTPGetDevInfo.c
                  __pa_30   0x009baa    program     static D:\git\70M_Ku_Up\App\WebUI\HTTPGetDevInfo.c
                  __pa_31   0x009bb4    program     static D:\git\70M_Ku_Up\App\WebUI\HTTPGetDevInfo.c
                  __pa_32   0x009bc4    program     static D:\git\70M_Ku_Up\App\WebUI\HTTPGetDevInfo.c
                  __pa_33   0x009bca    program     static D:\git\70M_Ku_Up\App\WebUI\HTTPGetDevInfo.c
                  __pa_34   0x009bd0    program     static D:\git\70M_Ku_Up\App\WebUI\HTTPGetDevInfo.c
                  __pa_35   0x009bda    program     static D:\git\70M_Ku_Up\App\WebUI\HTTPGetDevInfo.c
                  __pa_36   0x009be8    program     static D:\git\70M_Ku_Up\App\WebUI\HTTPGetDevInfo.c
                  __pa_37   0x009bf0    program     static D:\git\70M_Ku_Up\App\WebUI\HTTPGetDevInfo.c
                  __pa_38   0x009c02    program     static D:\git\70M_Ku_Up\App\WebUI\HTTPGetDevInfo.c
                  __pa_39   0x009c12    program     static D:\git\70M_Ku_Up\App\WebUI\HTTPGetDevInfo.c
                  __pa_40   0x009c2e    program     static D:\git\70M_Ku_Up\App\WebUI\HTTPGetDevInfo.c
                  __pa_41   0x009c46    program     static D:\git\70M_Ku_Up\App\WebUI\HTTPGetDevInfo.c
                  __pa_42   0x009c4e    program     static D:\git\70M_Ku_Up\App\WebUI\HTTPGetDevInfo.c
                  __pa_43   0x009c5c    program     static D:\git\70M_Ku_Up\App\WebUI\HTTPGetDevInfo.c
                  __pa_44   0x009c6a    program     static D:\git\70M_Ku_Up\App\WebUI\HTTPGetDevInfo.c
                  __pa_45   0x009c78    program     static D:\git\70M_Ku_Up\App\WebUI\HTTPGetDevInfo.c
                  __pa_46   0x009c8e    program     static D:\git\70M_Ku_Up\App\WebUI\HTTPGetDevInfo.c
                  __pa_47   0x009c98    program     static D:\git\70M_Ku_Up\App\WebUI\HTTPGetDevInfo.c
                  __pa_48   0x009ca4    program     static D:\git\70M_Ku_Up\App\WebUI\HTTPGetDevInfo.c
                  __pa_49   0x009cb0    program     static D:\git\70M_Ku_Up\App\WebUI\HTTPGetDevInfo.c
                  __pa_50   0x009cbc    program     static D:\git\70M_Ku_Up\App\WebUI\HTTPGetDevInfo.c
                  __pa_51   0x009cc8    program     static D:\git\70M_Ku_Up\App\WebUI\HTTPGetDevInfo.c
                  __pa_52   0x009cd0    program     static D:\git\70M_Ku_Up\App\WebUI\HTTPGetDevInfo.c
                  __pa_53   0x009ce0    program     static D:\git\70M_Ku_Up\App\WebUI\HTTPGetDevInfo.c
                  __pa_54   0x009cea    program     static D:\git\70M_Ku_Up\App\WebUI\HTTPGetDevInfo.c
                  __pa_55   0x009cfa    program     static D:\git\70M_Ku_Up\App\WebUI\HTTPGetDevInfo.c
                  __pa_56   0x009d08    program     static D:\git\70M_Ku_Up\App\WebUI\HTTPGetDevInfo.c
                  __pa_57   0x009d12    program     static D:\git\70M_Ku_Up\App\WebUI\HTTPGetDevInfo.c
                  __pa_58   0x009d26    program     static D:\git\70M_Ku_Up\App\WebUI\HTTPGetDevInfo.c
                  __pa_59   0x009d3a    program     static D:\git\70M_Ku_Up\App\WebUI\HTTPGetDevInfo.c
                  __pa_60   0x009d4e    program     static D:\git\70M_Ku_Up\App\WebUI\HTTPGetDevInfo.c
                  __pa_61   0x009d56    program     static D:\git\70M_Ku_Up\App\WebUI\HTTPGetDevInfo.c
                  __pa_62   0x009d5e    program     static D:\git\70M_Ku_Up\App\WebUI\HTTPGetDevInfo.c
                  __pa_63   0x009d70    program     static D:\git\70M_Ku_Up\App\WebUI\HTTPGetDevInfo.c
                  __pa_64   0x009d7c    program     static D:\git\70M_Ku_Up\App\WebUI\HTTPGetDevInfo.c
                  __pa_65   0x009d88    program     static D:\git\70M_Ku_Up\App\WebUI\HTTPGetDevInfo.c
                  __pa_66   0x009d94    program     static D:\git\70M_Ku_Up\App\WebUI\HTTPGetDevInfo.c
                  __pa_67   0x009da4    program     static D:\git\70M_Ku_Up\App\WebUI\HTTPGetDevInfo.c
                  __pa_68   0x009db2    program     static D:\git\70M_Ku_Up\App\WebUI\HTTPGetDevInfo.c
                  __pa_69   0x009dc0    program     static D:\git\70M_Ku_Up\App\WebUI\HTTPGetDevInfo.c
                  __pa_70   0x009dce    program     static D:\git\70M_Ku_Up\App\WebUI\HTTPGetDevInfo.c
                  __pa_71   0x009ddc    program     static D:\git\70M_Ku_Up\App\WebUI\HTTPGetDevInfo.c
                  __pa_72   0x009dea    program     static D:\git\70M_Ku_Up\App\WebUI\HTTPGetDevInfo.c
                  __pa_73   0x009df2    program     static D:\git\70M_Ku_Up\App\WebUI\HTTPGetDevInfo.c
                  __pa_74   0x009e00    program     static D:\git\70M_Ku_Up\App\WebUI\HTTPGetDevInfo.c
                  __pa_75   0x009e08    program     static D:\git\70M_Ku_Up\App\WebUI\HTTPGetDevInfo.c
                  __pa_76   0x009e10    program     static D:\git\70M_Ku_Up\App\WebUI\HTTPGetDevInfo.c
                  __pa_77   0x009e1a    program     static D:\git\70M_Ku_Up\App\WebUI\HTTPGetDevInfo.c
                  __pa_78   0x009e24    program     static D:\git\70M_Ku_Up\App\WebUI\HTTPGetDevInfo.c
                  __pa_79   0x009e2e    program     static D:\git\70M_Ku_Up\App\WebUI\HTTPGetDevInfo.c
                  __pa_80   0x009e38    program     static D:\git\70M_Ku_Up\App\WebUI\HTTPGetDevInfo.c
                  __pa_81   0x009e42    program     static D:\git\70M_Ku_Up\App\WebUI\HTTPGetDevInfo.c
                  __pa_82   0x009e56    program     static D:\git\70M_Ku_Up\App\WebUI\HTTPGetDevInfo.c
                  __pa_83   0x009e66    program     static D:\git\70M_Ku_Up\App\WebUI\HTTPGetDevInfo.c
                  __pa_84   0x009e74    program     static D:\git\70M_Ku_Up\App\WebUI\HTTPGetDevInfo.c
             __tmplbl_144   0x009e7a    program     static                          
                  __pa_85   0x009e7a    program     static D:\git\70M_Ku_Up\App\WebUI\HTTPGetDevInfo.c
             __tmplbl_146   0x009e7a    program     static                          
             __tmplbl_145   0x009e7a    program     static                          
             __tmplbl_143   0x009e7a    program     static                          
             __tmplbl_142   0x009e7a    program     static                          
             __tmplbl_141   0x009e7a    program     static                          
             __tmplbl_140   0x009e7a    program     static                          
             __tmplbl_137   0x009e7a    program     static                          
             __tmplbl_138   0x009e7a    program     static                          
             __tmplbl_139   0x009e7a    program     static                          
                  __pa_86   0x009e82    program     static D:\git\70M_Ku_Up\App\WebUI\HTTPGetDevInfo.c
                  __pa_87   0x009e96    program     static D:\git\70M_Ku_Up\App\WebUI\HTTPGetDevInfo.c
                  __pa_88   0x009ea0    program     static D:\git\70M_Ku_Up\App\WebUI\HTTPGetDevInfo.c
                  __pa_89   0x009eae    program     static D:\git\70M_Ku_Up\App\WebUI\HTTPGetDevInfo.c
                  __pa_90   0x009ebc    program     static D:\git\70M_Ku_Up\App\WebUI\HTTPGetDevInfo.c
                  __pa_91   0x009eca    program     static D:\git\70M_Ku_Up\App\WebUI\HTTPGetDevInfo.c
                  __pa_92   0x009ed4    program     static D:\git\70M_Ku_Up\App\WebUI\HTTPGetDevInfo.c
                  __pa_93   0x009ede    program     static D:\git\70M_Ku_Up\App\WebUI\HTTPGetDevInfo.c
                  __pa_94   0x009eee    program     static D:\git\70M_Ku_Up\App\WebUI\HTTPGetDevInfo.c
                  __pa_95   0x009efe    program     static D:\git\70M_Ku_Up\App\WebUI\HTTPGetDevInfo.c
                  __pa_96   0x009f0e    program     static D:\git\70M_Ku_Up\App\WebUI\HTTPGetDevInfo.c
                  __pa_97   0x009f1e    program     static D:\git\70M_Ku_Up\App\WebUI\HTTPGetDevInfo.c
                  __pa_98   0x009f32    program     static D:\git\70M_Ku_Up\App\WebUI\HTTPGetDevInfo.c
                  __pa_99   0x009f44    program     static D:\git\70M_Ku_Up\App\WebUI\HTTPGetDevInfo.c
                 __pa_100   0x009f56    program     static D:\git\70M_Ku_Up\App\WebUI\HTTPGetDevInfo.c
                 __pa_101   0x009f60    program     static D:\git\70M_Ku_Up\App\WebUI\HTTPGetDevInfo.c
                 __pa_102   0x009f6e    program     static D:\git\70M_Ku_Up\App\WebUI\HTTPGetDevInfo.c
                 __pa_103   0x009f7a    program     static D:\git\70M_Ku_Up\App\WebUI\HTTPGetDevInfo.c
                 __pa_104   0x009f84    program     static D:\git\70M_Ku_Up\App\WebUI\HTTPGetDevInfo.c
                 __pa_105   0x009f92    program     static D:\git\70M_Ku_Up\App\WebUI\HTTPGetDevInfo.c
                 __pa_106   0x009fa0    program     static D:\git\70M_Ku_Up\App\WebUI\HTTPGetDevInfo.c
                 __pa_107   0x009fae    program     static D:\git\70M_Ku_Up\App\WebUI\HTTPGetDevInfo.c
                 __pa_108   0x009fbc    program     static D:\git\70M_Ku_Up\App\WebUI\HTTPGetDevInfo.c
                 __pa_109   0x009fca    program     static D:\git\70M_Ku_Up\App\WebUI\HTTPGetDevInfo.c
                 __pa_110   0x009fd2    program     static D:\git\70M_Ku_Up\App\WebUI\HTTPGetDevInfo.c
                 __pa_111   0x009fd8    program     static D:\git\70M_Ku_Up\App\WebUI\HTTPGetDevInfo.c
                 __pa_112   0x009fde    program     static D:\git\70M_Ku_Up\App\WebUI\HTTPGetDevInfo.c
                 __pa_113   0x009fe4    program     static D:\git\70M_Ku_Up\App\WebUI\HTTPGetDevInfo.c
                 __pa_114   0x009ff0    program     static D:\git\70M_Ku_Up\App\WebUI\HTTPGetDevInfo.c
                 __pa_115   0x009ff6    program     static D:\git\70M_Ku_Up\App\WebUI\HTTPGetDevInfo.c
                 __pa_116   0x009ffc    program     static D:\git\70M_Ku_Up\App\WebUI\HTTPGetDevInfo.c
                 __pa_117   0x00a004    program     static D:\git\70M_Ku_Up\App\WebUI\HTTPGetDevInfo.c
                 __pa_118   0x00a00c    program     static D:\git\70M_Ku_Up\App\WebUI\HTTPGetDevInfo.c
                 __pa_119   0x00a01a    program     static D:\git\70M_Ku_Up\App\WebUI\HTTPGetDevInfo.c
                 __pa_120   0x00a028    program     static D:\git\70M_Ku_Up\App\WebUI\HTTPGetDevInfo.c
                 __pa_121   0x00a036    program     static D:\git\70M_Ku_Up\App\WebUI\HTTPGetDevInfo.c
                 __pa_122   0x00a040    program     static D:\git\70M_Ku_Up\App\WebUI\HTTPGetDevInfo.c
                 __pa_123   0x00a048    program     static D:\git\70M_Ku_Up\App\WebUI\HTTPGetDevInfo.c
                 __pa_124   0x00a050    program     static D:\git\70M_Ku_Up\App\WebUI\HTTPGetDevInfo.c
                 __pa_125   0x00a06a    program     static D:\git\70M_Ku_Up\App\WebUI\HTTPGetDevInfo.c
                 __pa_126   0x00a07a    program     static D:\git\70M_Ku_Up\App\WebUI\HTTPGetDevInfo.c
                 __pa_127   0x00a084    program     static D:\git\70M_Ku_Up\App\WebUI\HTTPGetDevInfo.c
                 __pa_128   0x00a092    program     static D:\git\70M_Ku_Up\App\WebUI\HTTPGetDevInfo.c
                 MPFSInit   0x00a09a    program     extern D:\git\70M_Ku_Up\Microchip\TCPIP Stack\MPFS2.c
                 MPFSOpen   0x00a0d0    program     extern D:\git\70M_Ku_Up\Microchip\TCPIP Stack\MPFS2.c
              MPFSOpenROM   0x00a21e    program     extern D:\git\70M_Ku_Up\Microchip\TCPIP Stack\MPFS2.c
               MPFSOpenID   0x00a362    program     extern D:\git\70M_Ku_Up\Microchip\TCPIP Stack\MPFS2.c
                MPFSClose   0x00a3e0    program     extern D:\git\70M_Ku_Up\Microchip\TCPIP Stack\MPFS2.c
                  MPFSGet   0x00a3f8    program     extern D:\git\70M_Ku_Up\Microchip\TCPIP Stack\MPFS2.c
             MPFSGetArray   0x00a49e    program     extern D:\git\70M_Ku_Up\Microchip\TCPIP Stack\MPFS2.c
              MPFSGetLong   0x00a52e    program     extern D:\git\70M_Ku_Up\Microchip\TCPIP Stack\MPFS2.c
                 MPFSSeek   0x00a56e    program     extern D:\git\70M_Ku_Up\Microchip\TCPIP Stack\MPFS2.c
               MPFSFormat   0x00a68c    program     extern D:\git\70M_Ku_Up\Microchip\TCPIP Stack\MPFS2.c
             MPFSPutArray   0x00a70e    program     extern D:\git\70M_Ku_Up\Microchip\TCPIP Stack\MPFS2.c
               MPFSPutEnd   0x00a794    program     extern D:\git\70M_Ku_Up\Microchip\TCPIP Stack\MPFS2.c
           _LoadFATRecord   0x00a7b0    program     static D:\git\70M_Ku_Up\Microchip\TCPIP Stack\MPFS2.c
         MPFSGetTimestamp   0x00a83c    program     extern D:\git\70M_Ku_Up\Microchip\TCPIP Stack\MPFS2.c
         MPFSGetMicrotime   0x00a86e    program     extern D:\git\70M_Ku_Up\Microchip\TCPIP Stack\MPFS2.c
             MPFSGetFlags   0x00a8a0    program     extern D:\git\70M_Ku_Up\Microchip\TCPIP Stack\MPFS2.c
              MPFSGetSize   0x00a8cc    program     extern D:\git\70M_Ku_Up\Microchip\TCPIP Stack\MPFS2.c
          MPFSGetBytesRem   0x00a8fe    program     extern D:\git\70M_Ku_Up\Microchip\TCPIP Stack\MPFS2.c
         MPFSGetStartAddr   0x00a928    program     extern D:\git\70M_Ku_Up\Microchip\TCPIP Stack\MPFS2.c
           MPFSGetEndAddr   0x00a964    program     extern D:\git\70M_Ku_Up\Microchip\TCPIP Stack\MPFS2.c
          MPFSGetFilename   0x00a9b2    program     extern D:\git\70M_Ku_Up\Microchip\TCPIP Stack\MPFS2.c
          MPFSGetPosition   0x00aa38    program     extern D:\git\70M_Ku_Up\Microchip\TCPIP Stack\MPFS2.c
                MPFSGetID   0x00aa6a    program     extern D:\git\70M_Ku_Up\Microchip\TCPIP Stack\MPFS2.c
                _Validate   0x00aa7c    program     static D:\git\70M_Ku_Up\Microchip\TCPIP Stack\MPFS2.c
                   __pa_0   0x00aaf4    program     static D:\git\70M_Ku_Up\Microchip\TCPIP Stack\MPFS2.c
                   __pa_1   0x00aafa    program     static D:\git\70M_Ku_Up\Microchip\TCPIP Stack\MPFS2.c
                   __pa_2   0x00ab00    program     static D:\git\70M_Ku_Up\Microchip\TCPIP Stack\MPFS2.c
              __tmplbl_61   0x00ab04    program     static                          
                   __pa_3   0x00ab04    program     static D:\git\70M_Ku_Up\Microchip\TCPIP Stack\MPFS2.c
              __tmplbl_60   0x00ab04    program     static                          
                   __pa_4   0x00ab10    program     static D:\git\70M_Ku_Up\Microchip\TCPIP Stack\MPFS2.c
                   __pa_5   0x00ab22    program     static D:\git\70M_Ku_Up\Microchip\TCPIP Stack\MPFS2.c
                   __pa_6   0x00ab44    program     static D:\git\70M_Ku_Up\Microchip\TCPIP Stack\MPFS2.c
                   __pa_7   0x00ab88    program     static D:\git\70M_Ku_Up\Microchip\TCPIP Stack\MPFS2.c
                   __pa_8   0x00ab90    program     static D:\git\70M_Ku_Up\Microchip\TCPIP Stack\MPFS2.c
                   __pa_9   0x00ab96    program     static D:\git\70M_Ku_Up\Microchip\TCPIP Stack\MPFS2.c
                  __pa_10   0x00aba0    program     static D:\git\70M_Ku_Up\Microchip\TCPIP Stack\MPFS2.c
                  __pa_11   0x00abb6    program     static D:\git\70M_Ku_Up\Microchip\TCPIP Stack\MPFS2.c
                  __pa_12   0x00abc0    program     static D:\git\70M_Ku_Up\Microchip\TCPIP Stack\MPFS2.c
                  __pa_13   0x00abca    program     static D:\git\70M_Ku_Up\Microchip\TCPIP Stack\MPFS2.c
                  __pa_14   0x00abde    program     static D:\git\70M_Ku_Up\Microchip\TCPIP Stack\MPFS2.c
                  __pa_15   0x00abf0    program     static D:\git\70M_Ku_Up\Microchip\TCPIP Stack\MPFS2.c
                  __pa_16   0x00ac16    program     static D:\git\70M_Ku_Up\Microchip\TCPIP Stack\MPFS2.c
                  __pa_17   0x00ac30    program     static D:\git\70M_Ku_Up\Microchip\TCPIP Stack\MPFS2.c
                  __pa_18   0x00ac44    program     static D:\git\70M_Ku_Up\Microchip\TCPIP Stack\MPFS2.c
                  __pa_19   0x00ac4e    program     static D:\git\70M_Ku_Up\Microchip\TCPIP Stack\MPFS2.c
                  __pa_20   0x00ac5c    program     static D:\git\70M_Ku_Up\Microchip\TCPIP Stack\MPFS2.c
                  __pa_21   0x00ac7e    program     static D:\git\70M_Ku_Up\Microchip\TCPIP Stack\MPFS2.c
                  __pa_22   0x00ac9e    program     static D:\git\70M_Ku_Up\Microchip\TCPIP Stack\MPFS2.c
                  __pa_23   0x00acb0    program     static D:\git\70M_Ku_Up\Microchip\TCPIP Stack\MPFS2.c
                  __pa_24   0x00acc2    program     static D:\git\70M_Ku_Up\Microchip\TCPIP Stack\MPFS2.c
                  __pa_25   0x00acd0    program     static D:\git\70M_Ku_Up\Microchip\TCPIP Stack\MPFS2.c
                  __pa_26   0x00acec    program     static D:\git\70M_Ku_Up\Microchip\TCPIP Stack\MPFS2.c
                  __pa_27   0x00ad06    program     static D:\git\70M_Ku_Up\Microchip\TCPIP Stack\MPFS2.c
                  __pa_28   0x00ad20    program     static D:\git\70M_Ku_Up\Microchip\TCPIP Stack\MPFS2.c
                  __pa_29   0x00ad3a    program     static D:\git\70M_Ku_Up\Microchip\TCPIP Stack\MPFS2.c
                  __pa_30   0x00ad4a    program     static D:\git\70M_Ku_Up\Microchip\TCPIP Stack\MPFS2.c
                  __pa_31   0x00ad62    program     static D:\git\70M_Ku_Up\Microchip\TCPIP Stack\MPFS2.c
                  __pa_32   0x00ad74    program     static D:\git\70M_Ku_Up\Microchip\TCPIP Stack\MPFS2.c
                  __pa_33   0x00ad8a    program     static D:\git\70M_Ku_Up\Microchip\TCPIP Stack\MPFS2.c
                  __pa_34   0x00ad98    program     static D:\git\70M_Ku_Up\Microchip\TCPIP Stack\MPFS2.c
                  __pa_35   0x00ada6    program     static D:\git\70M_Ku_Up\Microchip\TCPIP Stack\MPFS2.c
                  __pa_36   0x00adb4    program     static D:\git\70M_Ku_Up\Microchip\TCPIP Stack\MPFS2.c
                  __pa_37   0x00adbe    program     static D:\git\70M_Ku_Up\Microchip\TCPIP Stack\MPFS2.c
                  __pa_38   0x00add0    program     static D:\git\70M_Ku_Up\Microchip\TCPIP Stack\MPFS2.c
                  __pa_39   0x00adde    program     static D:\git\70M_Ku_Up\Microchip\TCPIP Stack\MPFS2.c
                  __pa_40   0x00adec    program     static D:\git\70M_Ku_Up\Microchip\TCPIP Stack\MPFS2.c
                  __pa_41   0x00adf6    program     static D:\git\70M_Ku_Up\Microchip\TCPIP Stack\MPFS2.c
                  __pa_42   0x00ae00    program     static D:\git\70M_Ku_Up\Microchip\TCPIP Stack\MPFS2.c
                  __pa_43   0x00ae12    program     static D:\git\70M_Ku_Up\Microchip\TCPIP Stack\MPFS2.c
                  __pa_44   0x00ae3a    program     static D:\git\70M_Ku_Up\Microchip\TCPIP Stack\MPFS2.c
                  __pa_45   0x00ae44    program     static D:\git\70M_Ku_Up\Microchip\TCPIP Stack\MPFS2.c
                  __pa_46   0x00ae5e    program     static D:\git\70M_Ku_Up\Microchip\TCPIP Stack\MPFS2.c
                  __pa_47   0x00ae66    program     static D:\git\70M_Ku_Up\Microchip\TCPIP Stack\MPFS2.c
                  __pa_48   0x00ae76    program     static D:\git\70M_Ku_Up\Microchip\TCPIP Stack\MPFS2.c
                  __pa_49   0x00ae8e    program     static D:\git\70M_Ku_Up\Microchip\TCPIP Stack\MPFS2.c
                  __pa_50   0x00ae9c    program     static D:\git\70M_Ku_Up\Microchip\TCPIP Stack\MPFS2.c
                  __pa_51   0x00aea2    program     static D:\git\70M_Ku_Up\Microchip\TCPIP Stack\MPFS2.c
                  __pa_52   0x00aebe    program     static D:\git\70M_Ku_Up\Microchip\TCPIP Stack\MPFS2.c
                  __pa_53   0x00aece    program     static D:\git\70M_Ku_Up\Microchip\TCPIP Stack\MPFS2.c
                  __pa_54   0x00aee6    program     static D:\git\70M_Ku_Up\Microchip\TCPIP Stack\MPFS2.c
                  __pa_55   0x00aef4    program     static D:\git\70M_Ku_Up\Microchip\TCPIP Stack\MPFS2.c
                  __pa_56   0x00af08    program     static D:\git\70M_Ku_Up\Microchip\TCPIP Stack\MPFS2.c
                  __pa_57   0x00af16    program     static D:\git\70M_Ku_Up\Microchip\TCPIP Stack\MPFS2.c
                  __pa_58   0x00af28    program     static D:\git\70M_Ku_Up\Microchip\TCPIP Stack\MPFS2.c
                  __pa_59   0x00af32    program     static D:\git\70M_Ku_Up\Microchip\TCPIP Stack\MPFS2.c
                  __pa_60   0x00af3e    program     static D:\git\70M_Ku_Up\Microchip\TCPIP Stack\MPFS2.c
                  __pa_61   0x00af4c    program     static D:\git\70M_Ku_Up\Microchip\TCPIP Stack\MPFS2.c
                  __pa_62   0x00af5a    program     static D:\git\70M_Ku_Up\Microchip\TCPIP Stack\MPFS2.c
                  __pa_63   0x00af62    program     static D:\git\70M_Ku_Up\Microchip\TCPIP Stack\MPFS2.c
                  __pa_64   0x00af6c    program     static D:\git\70M_Ku_Up\Microchip\TCPIP Stack\MPFS2.c
                  __pa_65   0x00af72    program     static D:\git\70M_Ku_Up\Microchip\TCPIP Stack\MPFS2.c
                  __pa_66   0x00af8c    program     static D:\git\70M_Ku_Up\Microchip\TCPIP Stack\MPFS2.c
                  __pa_67   0x00af9a    program     static D:\git\70M_Ku_Up\Microchip\TCPIP Stack\MPFS2.c
                  __pa_68   0x00afa4    program     static D:\git\70M_Ku_Up\Microchip\TCPIP Stack\MPFS2.c
    HTTPPrint_DeviceModel   0x00afac    program     extern D:\git\70M_Ku_Up\App\WebUI\HTTPPrint.c
   HTTPPrint_DeviceSerial   0x00afb8    program     extern D:\git\70M_Ku_Up\App\WebUI\HTTPPrint.c
    HTTPPrint_dhcp_status   0x00afc4    program     extern D:\git\70M_Ku_Up\App\WebUI\HTTPPrint.c
              HTTPPrintIP   0x00afec    program     extern D:\git\70M_Ku_Up\App\WebUI\HTTPPrint.c
            HTTPPrint_MIP   0x00b048    program     extern D:\git\70M_Ku_Up\App\WebUI\HTTPPrint.c
      HTTPPrint_static_ip   0x00b05c    program     extern D:\git\70M_Ku_Up\App\WebUI\HTTPPrint.c
      HTTPPrint_config_ip   0x00b07c    program     extern D:\git\70M_Ku_Up\App\WebUI\HTTPPrint.c
  HTTPPrint_config_subnet   0x00b084    program     extern D:\git\70M_Ku_Up\App\WebUI\HTTPPrint.c
      HTTPPrint_config_gw   0x00b098    program     extern D:\git\70M_Ku_Up\App\WebUI\HTTPPrint.c
    HTTPPrint_Devicefwver   0x00b0ac    program     extern D:\git\70M_Ku_Up\App\WebUI\HTTPPrint.c
                 GetPower   0x00b0cc    program     extern D:\git\70M_Ku_Up\App\WebUI\HTTPPrint.c
            GetWORDString   0x00b126    program     extern D:\git\70M_Ku_Up\App\WebUI\HTTPPrint.c
           GetDWORDString   0x00b1b4    program     extern D:\git\70M_Ku_Up\App\WebUI\HTTPPrint.c
HTTPPrint_converterarffreq   0x00b3b0    program     extern D:\git\70M_Ku_Up\App\WebUI\HTTPPrint.c
HTTPPrint_converterbrffreq   0x00b3e8    program     extern D:\git\70M_Ku_Up\App\WebUI\HTTPPrint.c
HTTPPrint_converteraatten   0x00b420    program     extern D:\git\70M_Ku_Up\App\WebUI\HTTPPrint.c
HTTPPrint_converterbatten   0x00b458    program     extern D:\git\70M_Ku_Up\App\WebUI\HTTPPrint.c
         HTTPPrint_swmode   0x00b490    program     extern D:\git\70M_Ku_Up\App\WebUI\HTTPPrint.c
   HTTPPrint_converteralo   0x00b492    program     extern D:\git\70M_Ku_Up\App\WebUI\HTTPPrint.c
   HTTPPrint_outputpowera   0x00b4b2    program     extern D:\git\70M_Ku_Up\App\WebUI\HTTPPrint.c
      HTTPPrint_setpowera   0x00b4d2    program     extern D:\git\70M_Ku_Up\App\WebUI\HTTPPrint.c
           HTTPPrint_ALCa   0x00b4f2    program     extern D:\git\70M_Ku_Up\App\WebUI\HTTPPrint.c
          HTTPPrint_Mutea   0x00b500    program     extern D:\git\70M_Ku_Up\App\WebUI\HTTPPrint.c
   HTTPPrint_converterblo   0x00b51e    program     extern D:\git\70M_Ku_Up\App\WebUI\HTTPPrint.c
   HTTPPrint_outputpowerb   0x00b53c    program     extern D:\git\70M_Ku_Up\App\WebUI\HTTPPrint.c
      HTTPPrint_setpowerb   0x00b55a    program     extern D:\git\70M_Ku_Up\App\WebUI\HTTPPrint.c
           HTTPPrint_ALCb   0x00b578    program     extern D:\git\70M_Ku_Up\App\WebUI\HTTPPrint.c
          HTTPPrint_Muteb   0x00b586    program     extern D:\git\70M_Ku_Up\App\WebUI\HTTPPrint.c
        HTTPPrint_24Vctrl   0x00b5a4    program     extern D:\git\70M_Ku_Up\App\WebUI\HTTPPrint.c
        HTTPPrint_18Vctrl   0x00b5b2    program     extern D:\git\70M_Ku_Up\App\WebUI\HTTPPrint.c
HTTPPrint_config_dhcpchecked   0x00b5c0    program     extern D:\git\70M_Ku_Up\App\WebUI\HTTPPrint.c
   HTTPPrint_ALCaSelected   0x00b5e6    program     extern D:\git\70M_Ku_Up\App\WebUI\HTTPPrint.c
  HTTPPrint_MuteaSelected   0x00b5fe    program     extern D:\git\70M_Ku_Up\App\WebUI\HTTPPrint.c
   HTTPPrint_ALCbSelected   0x00b616    program     extern D:\git\70M_Ku_Up\App\WebUI\HTTPPrint.c
  HTTPPrint_MutebSelected   0x00b62e    program     extern D:\git\70M_Ku_Up\App\WebUI\HTTPPrint.c
  HTTPPrint_DC18VSelected   0x00b646    program     extern D:\git\70M_Ku_Up\App\WebUI\HTTPPrint.c
  HTTPPrint_DC24VSelected   0x00b65e    program     extern D:\git\70M_Ku_Up\App\WebUI\HTTPPrint.c
 HTTPPrint_LNBREFSelected   0x00b676    program     extern D:\git\70M_Ku_Up\App\WebUI\HTTPPrint.c
 HTTPPrint_BUCREFSelected   0x00b68e    program     extern D:\git\70M_Ku_Up\App\WebUI\HTTPPrint.c
         HTTPPrint_BUCREF   0x00b6a6    program     extern D:\git\70M_Ku_Up\App\WebUI\HTTPPrint.c
         HTTPPrint_LNBREF   0x00b6b4    program     extern D:\git\70M_Ku_Up\App\WebUI\HTTPPrint.c
         HTTPPrint_EXTREF   0x00b6c2    program     extern D:\git\70M_Ku_Up\App\WebUI\HTTPPrint.c
     HTTPPrint_BUCCurrent   0x00b6e0    program     extern D:\git\70M_Ku_Up\App\WebUI\HTTPPrint.c
     HTTPPrint_LNBCurrent   0x00b70a    program     extern D:\git\70M_Ku_Up\App\WebUI\HTTPPrint.c
      HTTPPrint_rdi2cdata   0x00b734    program     extern D:\git\70M_Ku_Up\App\WebUI\HTTPPrint.c
      HTTPPrint_wri2cdata   0x00b764    program     extern D:\git\70M_Ku_Up\App\WebUI\HTTPPrint.c
   HTTPPrint_setpasscolor   0x00b794    program     extern D:\git\70M_Ku_Up\App\WebUI\HTTPPrint.c
        HTTPPrint_setpass   0x00b7d4    program     extern D:\git\70M_Ku_Up\App\WebUI\HTTPPrint.c
HTTPPrint_converteraalarm   0x00b870    program     extern D:\git\70M_Ku_Up\App\WebUI\HTTPPrint.c
HTTPPrint_converterbalarm   0x00b886    program     extern D:\git\70M_Ku_Up\App\WebUI\HTTPPrint.c
        HTTPPrint_BUCIAlm   0x00b89c    program     extern D:\git\70M_Ku_Up\App\WebUI\HTTPPrint.c
        HTTPPrint_LNBIAlm   0x00b8ba    program     extern D:\git\70M_Ku_Up\App\WebUI\HTTPPrint.c
   HTTPPrint_ClearBUCIAlm   0x00b8d8    program     extern D:\git\70M_Ku_Up\App\WebUI\HTTPPrint.c
   HTTPPrint_ClearLNBIAlm   0x00b8de    program     extern D:\git\70M_Ku_Up\App\WebUI\HTTPPrint.c
            HTTPPrint_led   0x00b8e4    program     extern D:\git\70M_Ku_Up\App\WebUI\HTTPPrint.c
            HTTPPrint_ned   0x00b948    program     extern D:\git\70M_Ku_Up\App\WebUI\HTTPPrint.c
            HTTPPrint_maf   0x00b9ac    program     extern D:\git\70M_Ku_Up\App\WebUI\HTTPPrint.c
            HTTPPrint_mas   0x00b9c6    program     extern D:\git\70M_Ku_Up\App\WebUI\HTTPPrint.c
     HTTPPrint_config_mac   0x00b9e0    program     extern D:\git\70M_Ku_Up\App\WebUI\HTTPPrint.c
      HTTPPrint_read_comm   0x00ba3c    program     extern D:\git\70M_Ku_Up\App\WebUI\HTTPPrint.c
     HTTPPrint_write_comm   0x00ba40    program     extern D:\git\70M_Ku_Up\App\WebUI\HTTPPrint.c
                   __pa_0   0x00ba44    program     static D:\git\70M_Ku_Up\App\WebUI\HTTPPrint.c
                   __pa_1   0x00ba62    program     static D:\git\70M_Ku_Up\App\WebUI\HTTPPrint.c
                   __pa_2   0x00ba6a    program     static D:\git\70M_Ku_Up\App\WebUI\HTTPPrint.c
                   __pa_3   0x00ba84    program     static D:\git\70M_Ku_Up\App\WebUI\HTTPPrint.c
                   __pa_4   0x00ba90    program     static D:\git\70M_Ku_Up\App\WebUI\HTTPPrint.c
                   __pa_5   0x00baa0    program     static D:\git\70M_Ku_Up\App\WebUI\HTTPPrint.c
                   __pa_6   0x00bab0    program     static D:\git\70M_Ku_Up\App\WebUI\HTTPPrint.c
              __tmplbl_68   0x00baba    program     static                          
              __tmplbl_67   0x00baba    program     static                          
                   __pa_7   0x00baba    program     static D:\git\70M_Ku_Up\App\WebUI\HTTPPrint.c
              __tmplbl_60   0x00baba    program     static                          
                   __pa_8   0x00bac6    program     static D:\git\70M_Ku_Up\App\WebUI\HTTPPrint.c
                   __pa_9   0x00bacc    program     static D:\git\70M_Ku_Up\App\WebUI\HTTPPrint.c
                  __pa_10   0x00bae2    program     static D:\git\70M_Ku_Up\App\WebUI\HTTPPrint.c
                  __pa_11   0x00baee    program     static D:\git\70M_Ku_Up\App\WebUI\HTTPPrint.c
                  __pa_12   0x00bb00    program     static D:\git\70M_Ku_Up\App\WebUI\HTTPPrint.c
                  __pa_13   0x00bb12    program     static D:\git\70M_Ku_Up\App\WebUI\HTTPPrint.c
                  __pa_14   0x00bb1c    program     static D:\git\70M_Ku_Up\App\WebUI\HTTPPrint.c
                  __pa_15   0x00bb24    program     static D:\git\70M_Ku_Up\App\WebUI\HTTPPrint.c
                  __pa_16   0x00bb3a    program     static D:\git\70M_Ku_Up\App\WebUI\HTTPPrint.c
                  __pa_17   0x00bb52    program     static D:\git\70M_Ku_Up\App\WebUI\HTTPPrint.c
                  __pa_18   0x00bb58    program     static D:\git\70M_Ku_Up\App\WebUI\HTTPPrint.c
              __tmplbl_63   0x00bb68    program     static                          
              __tmplbl_61   0x00bb68    program     static                          
              __tmplbl_64   0x00bb68    program     static                          
              __tmplbl_65   0x00bb68    program     static                          
              __tmplbl_66   0x00bb68    program     static                          
                  __pa_19   0x00bb68    program     static D:\git\70M_Ku_Up\App\WebUI\HTTPPrint.c
                  __pa_20   0x00bb6e    program     static D:\git\70M_Ku_Up\App\WebUI\HTTPPrint.c
                  __pa_21   0x00bb7c    program     static D:\git\70M_Ku_Up\App\WebUI\HTTPPrint.c
                  __pa_22   0x00bb88    program     static D:\git\70M_Ku_Up\App\WebUI\HTTPPrint.c
                  __pa_23   0x00bb94    program     static D:\git\70M_Ku_Up\App\WebUI\HTTPPrint.c
                  __pa_24   0x00bbae    program     static D:\git\70M_Ku_Up\App\WebUI\HTTPPrint.c
                  __pa_25   0x00bbba    program     static D:\git\70M_Ku_Up\App\WebUI\HTTPPrint.c
                  __pa_26   0x00bbc6    program     static D:\git\70M_Ku_Up\App\WebUI\HTTPPrint.c
                  __pa_27   0x00bbd0    program     static D:\git\70M_Ku_Up\App\WebUI\HTTPPrint.c
                  __pa_28   0x00bbdc    program     static D:\git\70M_Ku_Up\App\WebUI\HTTPPrint.c
                  __pa_29   0x00bbe2    program     static D:\git\70M_Ku_Up\App\WebUI\HTTPPrint.c
                  __pa_30   0x00bbf0    program     static D:\git\70M_Ku_Up\App\WebUI\HTTPPrint.c
                  __pa_31   0x00bc04    program     static D:\git\70M_Ku_Up\App\WebUI\HTTPPrint.c
                  __pa_32   0x00bc16    program     static D:\git\70M_Ku_Up\App\WebUI\HTTPPrint.c
                  __pa_33   0x00bc28    program     static D:\git\70M_Ku_Up\App\WebUI\HTTPPrint.c
                  __pa_34   0x00bc3a    program     static D:\git\70M_Ku_Up\App\WebUI\HTTPPrint.c
                  __pa_35   0x00bc4c    program     static D:\git\70M_Ku_Up\App\WebUI\HTTPPrint.c
                  __pa_36   0x00bc58    program     static D:\git\70M_Ku_Up\App\WebUI\HTTPPrint.c
                  __pa_37   0x00bc62    program     static D:\git\70M_Ku_Up\App\WebUI\HTTPPrint.c
                  __pa_38   0x00bc68    program     static D:\git\70M_Ku_Up\App\WebUI\HTTPPrint.c
                  __pa_39   0x00bc78    program     static D:\git\70M_Ku_Up\App\WebUI\HTTPPrint.c
                  __pa_40   0x00bc88    program     static D:\git\70M_Ku_Up\App\WebUI\HTTPPrint.c
                  __pa_41   0x00bc98    program     static D:\git\70M_Ku_Up\App\WebUI\HTTPPrint.c
                  __pa_42   0x00bca8    program     static D:\git\70M_Ku_Up\App\WebUI\HTTPPrint.c
                  __pa_43   0x00bcb6    program     static D:\git\70M_Ku_Up\App\WebUI\HTTPPrint.c
                  __pa_44   0x00bcca    program     static D:\git\70M_Ku_Up\App\WebUI\HTTPPrint.c
                  __pa_45   0x00bcd8    program     static D:\git\70M_Ku_Up\App\WebUI\HTTPPrint.c
              __tmplbl_58   0x00bcdc    program     static                          
              __tmplbl_69   0x00bcdc    program     static                          
                  __pa_46   0x00bcdc    program     static D:\git\70M_Ku_Up\App\WebUI\HTTPPrint.c
                  __pa_47   0x00bce0    program     static D:\git\70M_Ku_Up\App\WebUI\HTTPPrint.c
                  __pa_48   0x00bce4    program     static D:\git\70M_Ku_Up\App\WebUI\HTTPPrint.c
                  __pa_49   0x00bcec    program     static D:\git\70M_Ku_Up\App\WebUI\HTTPPrint.c
                  __pa_50   0x00bcfe    program     static D:\git\70M_Ku_Up\App\WebUI\HTTPPrint.c
                  __pa_51   0x00bd04    program     static D:\git\70M_Ku_Up\App\WebUI\HTTPPrint.c
                  __pa_52   0x00bd0e    program     static D:\git\70M_Ku_Up\App\WebUI\HTTPPrint.c
                  __pa_53   0x00bd1c    program     static D:\git\70M_Ku_Up\App\WebUI\HTTPPrint.c
                  __pa_54   0x00bd2a    program     static D:\git\70M_Ku_Up\App\WebUI\HTTPPrint.c
                  __pa_55   0x00bd3a    program     static D:\git\70M_Ku_Up\App\WebUI\HTTPPrint.c
                  __pa_56   0x00bd40    program     static D:\git\70M_Ku_Up\App\WebUI\HTTPPrint.c
                  __pa_57   0x00bd50    program     static D:\git\70M_Ku_Up\App\WebUI\HTTPPrint.c
                  __pa_58   0x00bd5e    program     static D:\git\70M_Ku_Up\App\WebUI\HTTPPrint.c
                  __pa_59   0x00bd6c    program     static D:\git\70M_Ku_Up\App\WebUI\HTTPPrint.c
                  __pa_60   0x00bd74    program     static D:\git\70M_Ku_Up\App\WebUI\HTTPPrint.c
                  __pa_61   0x00bd7a    program     static D:\git\70M_Ku_Up\App\WebUI\HTTPPrint.c
                  __pa_62   0x00bd8a    program     static D:\git\70M_Ku_Up\App\WebUI\HTTPPrint.c
                  __pa_63   0x00bd9a    program     static D:\git\70M_Ku_Up\App\WebUI\HTTPPrint.c
                  __pa_64   0x00bda4    program     static D:\git\70M_Ku_Up\App\WebUI\HTTPPrint.c
                  __pa_65   0x00bdac    program     static D:\git\70M_Ku_Up\App\WebUI\HTTPPrint.c
                  __pa_66   0x00bdb8    program     static D:\git\70M_Ku_Up\App\WebUI\HTTPPrint.c
                  __pa_67   0x00bdc2    program     static D:\git\70M_Ku_Up\App\WebUI\HTTPPrint.c
                  __pa_68   0x00bdcc    program     static D:\git\70M_Ku_Up\App\WebUI\HTTPPrint.c
                  __pa_69   0x00bdd6    program     static D:\git\70M_Ku_Up\App\WebUI\HTTPPrint.c
                  __pa_70   0x00bdee    program     static D:\git\70M_Ku_Up\App\WebUI\HTTPPrint.c
                  __pa_71   0x00be04    program     static D:\git\70M_Ku_Up\App\WebUI\HTTPPrint.c
              __tmplbl_56   0x00be04    program     static                          
              __tmplbl_55   0x00be04    program     static                          
                  __pa_72   0x00be0a    program     static D:\git\70M_Ku_Up\App\WebUI\HTTPPrint.c
                  __pa_73   0x00be12    program     static D:\git\70M_Ku_Up\App\WebUI\HTTPPrint.c
                  __pa_74   0x00be1c    program     static D:\git\70M_Ku_Up\App\WebUI\HTTPPrint.c
                  __pa_75   0x00be24    program     static D:\git\70M_Ku_Up\App\WebUI\HTTPPrint.c
                  __pa_76   0x00be2c    program     static D:\git\70M_Ku_Up\App\WebUI\HTTPPrint.c
                  __pa_77   0x00be3e    program     static D:\git\70M_Ku_Up\App\WebUI\HTTPPrint.c
                  __pa_78   0x00be50    program     static D:\git\70M_Ku_Up\App\WebUI\HTTPPrint.c
                  __pa_79   0x00be5a    program     static D:\git\70M_Ku_Up\App\WebUI\HTTPPrint.c
                  __pa_80   0x00be60    program     static D:\git\70M_Ku_Up\App\WebUI\HTTPPrint.c
                  __pa_81   0x00be6e    program     static D:\git\70M_Ku_Up\App\WebUI\HTTPPrint.c
                  __pa_82   0x00be7a    program     static D:\git\70M_Ku_Up\App\WebUI\HTTPPrint.c
                  __pa_83   0x00be80    program     static D:\git\70M_Ku_Up\App\WebUI\HTTPPrint.c
         Util_u16ByteSwap   0x00be8a    program     extern D:\git\70M_Ku_Up\SysLib\util.c
        Util_u16DWORDSwap   0x00bf16    program     extern D:\git\70M_Ku_Up\SysLib\util.c
      Util_u8String2int16   0x00c0fe    program     extern D:\git\70M_Ku_Up\SysLib\util.c
      Util_u8String2DWORD   0x00c1ca    program     extern D:\git\70M_Ku_Up\SysLib\util.c
      Util_u8Float2String   0x00c262    program     extern D:\git\70M_Ku_Up\SysLib\util.c
      Util_u8String2Float   0x00c31c    program     extern D:\git\70M_Ku_Up\SysLib\util.c
     Util_u8String2NFloat   0x00c3ee    program     extern D:\git\70M_Ku_Up\SysLib\util.c
                ASC2toHEX   0x00c4da    program     extern D:\git\70M_Ku_Up\SysLib\util.c
                HEXto2ASC   0x00c552    program     extern D:\git\70M_Ku_Up\SysLib\util.c
                  DelayMS   0x00c59a    program     extern D:\git\70M_Ku_Up\SysLib\util.c
                  Hex2Int   0x00c5ca    program     extern D:\git\70M_Ku_Up\SysLib\util.c
                  Int2Hex   0x00c60c    program     extern D:\git\70M_Ku_Up\SysLib\util.c
                    atof5   0x00c674    program     extern D:\git\70M_Ku_Up\SysLib\util.c
                    atof1   0x00c70a    program     extern D:\git\70M_Ku_Up\SysLib\util.c
            SaveAppConfig   0x00c7a4    program     extern D:\git\70M_Ku_Up\SysLib\util.c
              SaveSetting   0x00c7c8    program     extern D:\git\70M_Ku_Up\SysLib\util.c
           DisplayIPValue   0x00c816    program     extern D:\git\70M_Ku_Up\SysLib\util.c
                   __pa_0   0x00c89a    program     static D:\git\70M_Ku_Up\SysLib\util.c
                   __pa_1   0x00c8a4    program     static D:\git\70M_Ku_Up\SysLib\util.c
                   __pa_2   0x00c8aa    program     static D:\git\70M_Ku_Up\SysLib\util.c
                   __pa_3   0x00c8b6    program     static D:\git\70M_Ku_Up\SysLib\util.c
              __tmplbl_24   0x00c8b6    program     static                          
                   __pa_4   0x00c8c2    program     static D:\git\70M_Ku_Up\SysLib\util.c
                   __pa_5   0x00c8dc    program     static D:\git\70M_Ku_Up\SysLib\util.c
                   __pa_6   0x00c8e6    program     static D:\git\70M_Ku_Up\SysLib\util.c
                   __pa_7   0x00c91a    program     static D:\git\70M_Ku_Up\SysLib\util.c
                   __pa_8   0x00c922    program     static D:\git\70M_Ku_Up\SysLib\util.c
                   __pa_9   0x00c954    program     static D:\git\70M_Ku_Up\SysLib\util.c
                  __pa_10   0x00c95a    program     static D:\git\70M_Ku_Up\SysLib\util.c
                  __pa_11   0x00c96c    program     static D:\git\70M_Ku_Up\SysLib\util.c
                  __pa_12   0x00c978    program     static D:\git\70M_Ku_Up\SysLib\util.c
                  __pa_13   0x00c986    program     static D:\git\70M_Ku_Up\SysLib\util.c
                  __pa_14   0x00c9a0    program     static D:\git\70M_Ku_Up\SysLib\util.c
                  __pa_15   0x00c9ba    program     static D:\git\70M_Ku_Up\SysLib\util.c
                  __pa_16   0x00c9c4    program     static D:\git\70M_Ku_Up\SysLib\util.c
                  __pa_17   0x00c9da    program     static D:\git\70M_Ku_Up\SysLib\util.c
                  __pa_18   0x00c9ee    program     static D:\git\70M_Ku_Up\SysLib\util.c
                  __pa_19   0x00ca02    program     static D:\git\70M_Ku_Up\SysLib\util.c
                  __pa_20   0x00ca0a    program     static D:\git\70M_Ku_Up\SysLib\util.c
                  __pa_21   0x00ca1c    program     static D:\git\70M_Ku_Up\SysLib\util.c
                  __pa_22   0x00ca2a    program     static D:\git\70M_Ku_Up\SysLib\util.c
                  __pa_23   0x00ca44    program     static D:\git\70M_Ku_Up\SysLib\util.c
                  __pa_24   0x00ca50    program     static D:\git\70M_Ku_Up\SysLib\util.c
                  __pa_25   0x00ca5c    program     static D:\git\70M_Ku_Up\SysLib\util.c
                  __pa_26   0x00ca6a    program     static D:\git\70M_Ku_Up\SysLib\util.c
                  __pa_27   0x00ca78    program     static D:\git\70M_Ku_Up\SysLib\util.c
                  __pa_28   0x00ca82    program     static D:\git\70M_Ku_Up\SysLib\util.c
                  __pa_29   0x00ca96    program     static D:\git\70M_Ku_Up\SysLib\util.c
                  __pa_30   0x00caa2    program     static D:\git\70M_Ku_Up\SysLib\util.c
                  __pa_31   0x00caaa    program     static D:\git\70M_Ku_Up\SysLib\util.c
                  __pa_32   0x00cab6    program     static D:\git\70M_Ku_Up\SysLib\util.c
                  __pa_33   0x00cac0    program     static D:\git\70M_Ku_Up\SysLib\util.c
                  __pa_34   0x00cad0    program     static D:\git\70M_Ku_Up\SysLib\util.c
                  __pa_35   0x00cade    program     static D:\git\70M_Ku_Up\SysLib\util.c
                  __pa_36   0x00caec    program     static D:\git\70M_Ku_Up\SysLib\util.c
                  __pa_37   0x00cafa    program     static D:\git\70M_Ku_Up\SysLib\util.c
                  __pa_38   0x00cb04    program     static D:\git\70M_Ku_Up\SysLib\util.c
                  __pa_39   0x00cb0e    program     static D:\git\70M_Ku_Up\SysLib\util.c
                  __pa_40   0x00cb18    program     static D:\git\70M_Ku_Up\SysLib\util.c
                  __pa_41   0x00cb22    program     static D:\git\70M_Ku_Up\SysLib\util.c
                  __pa_42   0x00cb46    program     static D:\git\70M_Ku_Up\SysLib\util.c
                  __pa_43   0x00cb4e    program     static D:\git\70M_Ku_Up\SysLib\util.c
                  __pa_44   0x00cb54    program     static D:\git\70M_Ku_Up\SysLib\util.c
                  __pa_45   0x00cb66    program     static D:\git\70M_Ku_Up\SysLib\util.c
                  __pa_46   0x00cb74    program     static D:\git\70M_Ku_Up\SysLib\util.c
                  __pa_47   0x00cb82    program     static D:\git\70M_Ku_Up\SysLib\util.c
                  __pa_48   0x00cb8c    program     static D:\git\70M_Ku_Up\SysLib\util.c
                  __pa_49   0x00cb9e    program     static D:\git\70M_Ku_Up\SysLib\util.c
                  __pa_50   0x00cba6    program     static D:\git\70M_Ku_Up\SysLib\util.c
                  __pa_51   0x00cbb0    program     static D:\git\70M_Ku_Up\SysLib\util.c
                  __pa_52   0x00cbb6    program     static D:\git\70M_Ku_Up\SysLib\util.c
                  __pa_53   0x00cbc4    program     static D:\git\70M_Ku_Up\SysLib\util.c
                  __pa_54   0x00cbd2    program     static D:\git\70M_Ku_Up\SysLib\util.c
                  __pa_55   0x00cbde    program     static D:\git\70M_Ku_Up\SysLib\util.c
                  __pa_56   0x00cbe8    program     static D:\git\70M_Ku_Up\SysLib\util.c
                  __pa_57   0x00cbee    program     static D:\git\70M_Ku_Up\SysLib\util.c
                  __pa_58   0x00cbf6    program     static D:\git\70M_Ku_Up\SysLib\util.c
                  __pa_59   0x00cc00    program     static D:\git\70M_Ku_Up\SysLib\util.c
                  __pa_60   0x00cc0a    program     static D:\git\70M_Ku_Up\SysLib\util.c
                  __pa_61   0x00cc14    program     static D:\git\70M_Ku_Up\SysLib\util.c
                  __pa_62   0x00cc32    program     static D:\git\70M_Ku_Up\SysLib\util.c
                  __pa_63   0x00cc50    program     static D:\git\70M_Ku_Up\SysLib\util.c
                  __pa_64   0x00cc62    program     static D:\git\70M_Ku_Up\SysLib\util.c
                  __pa_65   0x00cc74    program     static D:\git\70M_Ku_Up\SysLib\util.c
                  __pa_66   0x00cc82    program     static D:\git\70M_Ku_Up\SysLib\util.c
      GenerateRandomDWORD   0x00cc88    program     extern D:\git\70M_Ku_Up\Microchip\TCPIP Stack\Helpers.c
              __tmplbl_39   0x00cd00    program     static                          
        ___while_lbl00001   0x00cd18    program     static                          
        ___while_lbl00003   0x00cd20    program     static                          
        ___while_lbl00004   0x00cd24    program     static                          
               __tmplbl_0   0x00cd88    program     static                          
              __tmplbl_40   0x00cda4    program     static                          
              __tmplbl_41   0x00cde4    program     static                          
              __tmplbl_42   0x00ce48    program     static                          
           ___if_lbl00005   0x00ce8a    program     static                          
           ___if_lbl00006   0x00cea8    program     static                          
           ___if_lbl00007   0x00cf42    program     static                          
           ___if_lbl00008   0x00cf48    program     static                          
        ___while_lbl00002   0x00cf4a    program     static                          
       ___return_lbl00000   0x00cf92    program     static                          
        StringToIPAddress   0x00cfaa    program     extern D:\git\70M_Ku_Up\Microchip\TCPIP Stack\Helpers.c
     ROMStringToIPAddress   0x00d07a    program     extern D:\git\70M_Ku_Up\Microchip\TCPIP Stack\Helpers.c
             Base64Decode   0x00d15c    program     extern D:\git\70M_Ku_Up\Microchip\TCPIP Stack\Helpers.c
                    uitoa   0x00d2cc    program     extern D:\git\70M_Ku_Up\Microchip\TCPIP Stack\Helpers.c
                  hexatob   0x00d3c2    program     extern D:\git\70M_Ku_Up\Microchip\TCPIP Stack\Helpers.c
             btohexa_high   0x00d40c    program     extern D:\git\70M_Ku_Up\Microchip\TCPIP Stack\Helpers.c
              btohexa_low   0x00d434    program     extern D:\git\70M_Ku_Up\Microchip\TCPIP Stack\Helpers.c
           stricmppgm2ram   0x00d458    program     extern D:\git\70M_Ku_Up\Microchip\TCPIP Stack\Helpers.c
                    swaps   0x00d508    program     extern D:\git\70M_Ku_Up\Microchip\TCPIP Stack\Helpers.c
                    swapl   0x00d546    program     extern D:\git\70M_Ku_Up\Microchip\TCPIP Stack\Helpers.c
           CalcIPChecksum   0x00d594    program     extern D:\git\70M_Ku_Up\Microchip\TCPIP Stack\Helpers.c
          leftRotateDWORD   0x00d6b0    program     extern D:\git\70M_Ku_Up\Microchip\TCPIP Stack\Helpers.c
          ___for_lbl00124   0x00d6e2    program     static                          
          ___for_lbl00122   0x00d700    program     static                          
          ___for_lbl00123   0x00d706    program     static                          
          ___for_lbl00127   0x00d706    program     static                          
          ___for_lbl00125   0x00d71a    program     static                          
          ___for_lbl00126   0x00d71e    program     static                          
       ___return_lbl00121   0x00d730    program     static                          
        FormatNetBIOSName   0x00d740    program     extern D:\git\70M_Ku_Up\Microchip\TCPIP Stack\Helpers.c
                  strnchr   0x00d788    program     extern D:\git\70M_Ku_Up\Microchip\TCPIP Stack\Helpers.c
                   __pa_0   0x00d7c8    program     static D:\git\70M_Ku_Up\Microchip\TCPIP Stack\Helpers.c
                   __pa_1   0x00d7da    program     static D:\git\70M_Ku_Up\Microchip\TCPIP Stack\Helpers.c
                   __pa_2   0x00d7f6    program     static D:\git\70M_Ku_Up\Microchip\TCPIP Stack\Helpers.c
                   __pa_3   0x00d802    program     static D:\git\70M_Ku_Up\Microchip\TCPIP Stack\Helpers.c
                   __pa_4   0x00d824    program     static D:\git\70M_Ku_Up\Microchip\TCPIP Stack\Helpers.c
                   __pa_5   0x00d832    program     static D:\git\70M_Ku_Up\Microchip\TCPIP Stack\Helpers.c
                   __pa_6   0x00d858    program     static D:\git\70M_Ku_Up\Microchip\TCPIP Stack\Helpers.c
                   __pa_7   0x00d87a    program     static D:\git\70M_Ku_Up\Microchip\TCPIP Stack\Helpers.c
                   __pa_8   0x00d88c    program     static D:\git\70M_Ku_Up\Microchip\TCPIP Stack\Helpers.c
                   __pa_9   0x00d896    program     static D:\git\70M_Ku_Up\Microchip\TCPIP Stack\Helpers.c
                  __pa_10   0x00d8b0    program     static D:\git\70M_Ku_Up\Microchip\TCPIP Stack\Helpers.c
                  __pa_11   0x00d8ca    program     static D:\git\70M_Ku_Up\Microchip\TCPIP Stack\Helpers.c
                  __pa_12   0x00d8da    program     static D:\git\70M_Ku_Up\Microchip\TCPIP Stack\Helpers.c
                  __pa_13   0x00d8ea    program     static D:\git\70M_Ku_Up\Microchip\TCPIP Stack\Helpers.c
                  __pa_14   0x00d902    program     static D:\git\70M_Ku_Up\Microchip\TCPIP Stack\Helpers.c
                  __pa_15   0x00d918    program     static D:\git\70M_Ku_Up\Microchip\TCPIP Stack\Helpers.c
                  __pa_16   0x00d922    program     static D:\git\70M_Ku_Up\Microchip\TCPIP Stack\Helpers.c
                  __pa_17   0x00d934    program     static D:\git\70M_Ku_Up\Microchip\TCPIP Stack\Helpers.c
                  __pa_18   0x00d944    program     static D:\git\70M_Ku_Up\Microchip\TCPIP Stack\Helpers.c
                  __pa_19   0x00d954    program     static D:\git\70M_Ku_Up\Microchip\TCPIP Stack\Helpers.c
                  __pa_20   0x00d964    program     static D:\git\70M_Ku_Up\Microchip\TCPIP Stack\Helpers.c
                  __pa_21   0x00d96c    program     static D:\git\70M_Ku_Up\Microchip\TCPIP Stack\Helpers.c
                  __pa_22   0x00d97a    program     static D:\git\70M_Ku_Up\Microchip\TCPIP Stack\Helpers.c
                  __pa_23   0x00d988    program     static D:\git\70M_Ku_Up\Microchip\TCPIP Stack\Helpers.c
                  __pa_24   0x00d99c    program     static D:\git\70M_Ku_Up\Microchip\TCPIP Stack\Helpers.c
                  __pa_25   0x00d9a6    program     static D:\git\70M_Ku_Up\Microchip\TCPIP Stack\Helpers.c
                  __pa_26   0x00d9b4    program     static D:\git\70M_Ku_Up\Microchip\TCPIP Stack\Helpers.c
                  __pa_27   0x00d9c2    program     static D:\git\70M_Ku_Up\Microchip\TCPIP Stack\Helpers.c
                  __pa_28   0x00d9d2    program     static D:\git\70M_Ku_Up\Microchip\TCPIP Stack\Helpers.c
                  __pa_29   0x00d9e0    program     static D:\git\70M_Ku_Up\Microchip\TCPIP Stack\Helpers.c
                  __pa_30   0x00d9ea    program     static D:\git\70M_Ku_Up\Microchip\TCPIP Stack\Helpers.c
                  __pa_31   0x00d9f2    program     static D:\git\70M_Ku_Up\Microchip\TCPIP Stack\Helpers.c
            s_put_n_chars   0x00da00    program     static C:\Program Files\mcc18\src\traditional\stdclib\vfprintf.c
                 vfprintf   0x00da2c    program     extern C:\Program Files\mcc18\src\traditional\stdclib\vfprintf.c
              __tmplbl_85   0x00da56    program     static                          
              __tmplbl_44   0x00e304    program     static                          
              __tmplbl_43   0x00e31e    program     static                          
                   __pa_0   0x00e340    program     static C:\Program Files\mcc18\src\traditional\stdclib\vfprintf.c
                   __pa_1   0x00e348    program     static C:\Program Files\mcc18\src\traditional\stdclib\vfprintf.c
                   __pa_2   0x00e352    program     static C:\Program Files\mcc18\src\traditional\stdclib\vfprintf.c
                   __pa_3   0x00e35c    program     static C:\Program Files\mcc18\src\traditional\stdclib\vfprintf.c
                   __pa_4   0x00e374    program     static C:\Program Files\mcc18\src\traditional\stdclib\vfprintf.c
                   __pa_5   0x00e388    program     static C:\Program Files\mcc18\src\traditional\stdclib\vfprintf.c
                   __pa_6   0x00e3a4    program     static C:\Program Files\mcc18\src\traditional\stdclib\vfprintf.c
                   __pa_7   0x00e3ae    program     static C:\Program Files\mcc18\src\traditional\stdclib\vfprintf.c
                   __pa_8   0x00e3ba    program     static C:\Program Files\mcc18\src\traditional\stdclib\vfprintf.c
                   __pa_9   0x00e3dc    program     static C:\Program Files\mcc18\src\traditional\stdclib\vfprintf.c
                  __pa_10   0x00e3fc    program     static C:\Program Files\mcc18\src\traditional\stdclib\vfprintf.c
                  __pa_11   0x00e40a    program     static C:\Program Files\mcc18\src\traditional\stdclib\vfprintf.c
                  __pa_12   0x00e420    program     static C:\Program Files\mcc18\src\traditional\stdclib\vfprintf.c
                  __pa_13   0x00e43a    program     static C:\Program Files\mcc18\src\traditional\stdclib\vfprintf.c
                  __pa_14   0x00e452    program     static C:\Program Files\mcc18\src\traditional\stdclib\vfprintf.c
                  __pa_15   0x00e462    program     static C:\Program Files\mcc18\src\traditional\stdclib\vfprintf.c
                  __pa_16   0x00e478    program     static C:\Program Files\mcc18\src\traditional\stdclib\vfprintf.c
                  __pa_17   0x00e48a    program     static C:\Program Files\mcc18\src\traditional\stdclib\vfprintf.c
                  __pa_18   0x00e49c    program     static C:\Program Files\mcc18\src\traditional\stdclib\vfprintf.c
                  __pa_19   0x00e4a6    program     static C:\Program Files\mcc18\src\traditional\stdclib\vfprintf.c
                  __pa_20   0x00e4b6    program     static C:\Program Files\mcc18\src\traditional\stdclib\vfprintf.c
                  __pa_21   0x00e4c6    program     static C:\Program Files\mcc18\src\traditional\stdclib\vfprintf.c
              __tmplbl_42   0x00e4d6    program     static                          
                  __pa_22   0x00e4d6    program     static C:\Program Files\mcc18\src\traditional\stdclib\vfprintf.c
                  __pa_23   0x00e4e2    program     static C:\Program Files\mcc18\src\traditional\stdclib\vfprintf.c
                  __pa_24   0x00e4f0    program     static C:\Program Files\mcc18\src\traditional\stdclib\vfprintf.c
                  __pa_25   0x00e4f8    program     static C:\Program Files\mcc18\src\traditional\stdclib\vfprintf.c
                  __pa_26   0x00e502    program     static C:\Program Files\mcc18\src\traditional\stdclib\vfprintf.c
                  __pa_27   0x00e50c    program     static C:\Program Files\mcc18\src\traditional\stdclib\vfprintf.c
                  __pa_28   0x00e514    program     static C:\Program Files\mcc18\src\traditional\stdclib\vfprintf.c
                  __pa_29   0x00e522    program     static C:\Program Files\mcc18\src\traditional\stdclib\vfprintf.c
                  __pa_30   0x00e53e    program     static C:\Program Files\mcc18\src\traditional\stdclib\vfprintf.c
                  __pa_31   0x00e558    program     static C:\Program Files\mcc18\src\traditional\stdclib\vfprintf.c
                  __pa_32   0x00e572    program     static C:\Program Files\mcc18\src\traditional\stdclib\vfprintf.c
                  __pa_33   0x00e58a    program     static C:\Program Files\mcc18\src\traditional\stdclib\vfprintf.c
                  __pa_34   0x00e594    program     static C:\Program Files\mcc18\src\traditional\stdclib\vfprintf.c
                  __pa_35   0x00e5a2    program     static C:\Program Files\mcc18\src\traditional\stdclib\vfprintf.c
                  __pa_36   0x00e5aa    program     static C:\Program Files\mcc18\src\traditional\stdclib\vfprintf.c
                  __pa_37   0x00e5b4    program     static C:\Program Files\mcc18\src\traditional\stdclib\vfprintf.c
                  __pa_38   0x00e5c4    program     static C:\Program Files\mcc18\src\traditional\stdclib\vfprintf.c
                  __pa_39   0x00e5d2    program     static C:\Program Files\mcc18\src\traditional\stdclib\vfprintf.c
                  __pa_40   0x00e5de    program     static C:\Program Files\mcc18\src\traditional\stdclib\vfprintf.c
                  __pa_41   0x00e5ea    program     static C:\Program Files\mcc18\src\traditional\stdclib\vfprintf.c
                  __pa_42   0x00e5f2    program     static C:\Program Files\mcc18\src\traditional\stdclib\vfprintf.c
                  __pa_43   0x00e5fc    program     static C:\Program Files\mcc18\src\traditional\stdclib\vfprintf.c
                  __pa_44   0x00e602    program     static C:\Program Files\mcc18\src\traditional\stdclib\vfprintf.c
                  __pa_45   0x00e60c    program     static C:\Program Files\mcc18\src\traditional\stdclib\vfprintf.c
                  __pa_46   0x00e618    program     static C:\Program Files\mcc18\src\traditional\stdclib\vfprintf.c
               __string_1   0x00e622    program     static D:\git\70M_Ku_Up\Bootstrap\Initialization.c
               __string_0   0x00e62c    program     static D:\git\70M_Ku_Up\Bootstrap\Initialization.c
              __string_53   0x00e632    program     static D:\git\70M_Ku_Up\Microchip\TCPIP Stack\HTTP2.c
              __string_52   0x00e63d    program     static D:\git\70M_Ku_Up\Microchip\TCPIP Stack\HTTP2.c
              __string_51   0x00e642    program     static D:\git\70M_Ku_Up\Microchip\TCPIP Stack\HTTP2.c
              __string_50   0x00e646    program     static D:\git\70M_Ku_Up\Microchip\TCPIP Stack\HTTP2.c
              __string_49   0x00e64f    program     static D:\git\70M_Ku_Up\Microchip\TCPIP Stack\HTTP2.c
              __string_48   0x00e658    program     static D:\git\70M_Ku_Up\Microchip\TCPIP Stack\HTTP2.c
              __string_47   0x00e668    program     static D:\git\70M_Ku_Up\Microchip\TCPIP Stack\HTTP2.c
              __string_46   0x00e681    program     static D:\git\70M_Ku_Up\Microchip\TCPIP Stack\HTTP2.c
              __string_45   0x00e690    program     static D:\git\70M_Ku_Up\Microchip\TCPIP Stack\HTTP2.c
              __string_44   0x00e6a3    program     static D:\git\70M_Ku_Up\Microchip\TCPIP Stack\HTTP2.c
              __string_43   0x00e6ad    program     static D:\git\70M_Ku_Up\Microchip\TCPIP Stack\HTTP2.c
              __string_42   0x00e6b8    program     static D:\git\70M_Ku_Up\Microchip\TCPIP Stack\HTTP2.c
              __string_41   0x00e6bd    program     static D:\git\70M_Ku_Up\Microchip\TCPIP Stack\HTTP2.c
              __string_40   0x00e6c1    program     static D:\git\70M_Ku_Up\Microchip\TCPIP Stack\HTTP2.c
              __string_39   0x00e6d1    program     static D:\git\70M_Ku_Up\Microchip\TCPIP Stack\HTTP2.c
              __string_38   0x00e6e0    program     static D:\git\70M_Ku_Up\Microchip\TCPIP Stack\HTTP2.c
              __string_37   0x00e6e8    program     static D:\git\70M_Ku_Up\Microchip\TCPIP Stack\HTTP2.c
              __string_36   0x00e73f    program     static D:\git\70M_Ku_Up\Microchip\TCPIP Stack\HTTP2.c
              __string_35   0x00e771    program     static D:\git\70M_Ku_Up\Microchip\TCPIP Stack\HTTP2.c
              __string_34   0x00e844    program     static D:\git\70M_Ku_Up\Microchip\TCPIP Stack\HTTP2.c
              __string_33   0x00e8f1    program     static D:\git\70M_Ku_Up\Microchip\TCPIP Stack\HTTP2.c
              __string_32   0x00ea11    program     static D:\git\70M_Ku_Up\Microchip\TCPIP Stack\HTTP2.c
              __string_31   0x00ea77    program     static D:\git\70M_Ku_Up\Microchip\TCPIP Stack\HTTP2.c
              __string_30   0x00eae7    program     static D:\git\70M_Ku_Up\Microchip\TCPIP Stack\HTTP2.c
              __string_29   0x00eb54    program     static D:\git\70M_Ku_Up\Microchip\TCPIP Stack\HTTP2.c
              __string_28   0x00ebf2    program     static D:\git\70M_Ku_Up\Microchip\TCPIP Stack\HTTP2.c
              __string_27   0x00ec73    program     static D:\git\70M_Ku_Up\Microchip\TCPIP Stack\HTTP2.c
              __string_26   0x00ecd1    program     static D:\git\70M_Ku_Up\Microchip\TCPIP Stack\HTTP2.c
              __string_25   0x00ecf6    program     static D:\git\70M_Ku_Up\Microchip\TCPIP Stack\HTTP2.c
              __string_24   0x00ecf7    program     static D:\git\70M_Ku_Up\Microchip\TCPIP Stack\HTTP2.c
              __string_23   0x00ed04    program     static D:\git\70M_Ku_Up\Microchip\TCPIP Stack\HTTP2.c
              __string_22   0x00ed18    program     static D:\git\70M_Ku_Up\Microchip\TCPIP Stack\HTTP2.c
              __string_21   0x00ed23    program     static D:\git\70M_Ku_Up\Microchip\TCPIP Stack\HTTP2.c
              __string_20   0x00ed2d    program     static D:\git\70M_Ku_Up\Microchip\TCPIP Stack\HTTP2.c
              __string_19   0x00ed37    program     static D:\git\70M_Ku_Up\Microchip\TCPIP Stack\HTTP2.c
              __string_18   0x00ed40    program     static D:\git\70M_Ku_Up\Microchip\TCPIP Stack\HTTP2.c
              __string_17   0x00ed49    program     static D:\git\70M_Ku_Up\Microchip\TCPIP Stack\HTTP2.c
              __string_16   0x00ed53    program     static D:\git\70M_Ku_Up\Microchip\TCPIP Stack\HTTP2.c
              __string_15   0x00ed5e    program     static D:\git\70M_Ku_Up\Microchip\TCPIP Stack\HTTP2.c
              __string_14   0x00ed62    program     static D:\git\70M_Ku_Up\Microchip\TCPIP Stack\HTTP2.c
              __string_13   0x00ed66    program     static D:\git\70M_Ku_Up\Microchip\TCPIP Stack\HTTP2.c
              __string_12   0x00ed6a    program     static D:\git\70M_Ku_Up\Microchip\TCPIP Stack\HTTP2.c
              __string_11   0x00ed6e    program     static D:\git\70M_Ku_Up\Microchip\TCPIP Stack\HTTP2.c
              __string_10   0x00ed72    program     static D:\git\70M_Ku_Up\Microchip\TCPIP Stack\HTTP2.c
               __string_9   0x00ed76    program     static D:\git\70M_Ku_Up\Microchip\TCPIP Stack\HTTP2.c
               __string_8   0x00ed7a    program     static D:\git\70M_Ku_Up\Microchip\TCPIP Stack\HTTP2.c
               __string_7   0x00ed7e    program     static D:\git\70M_Ku_Up\Microchip\TCPIP Stack\HTTP2.c
               __string_6   0x00ed82    program     static D:\git\70M_Ku_Up\Microchip\TCPIP Stack\HTTP2.c
               __string_5   0x00ed87    program     static D:\git\70M_Ku_Up\Microchip\TCPIP Stack\HTTP2.c
               __string_4   0x00ed8b    program     static D:\git\70M_Ku_Up\Microchip\TCPIP Stack\HTTP2.c
               __string_2   0x00ed8f    program     static D:\git\70M_Ku_Up\Microchip\TCPIP Stack\HTTP2.c
               __string_1   0x00ed94    program     static D:\git\70M_Ku_Up\Microchip\TCPIP Stack\HTTP2.c
               __string_0   0x00ed9f    program     static D:\git\70M_Ku_Up\Microchip\TCPIP Stack\HTTP2.c
               __string_0   0x00edaa    program     static D:\git\70M_Ku_Up\Microchip\TCPIP Stack\MPFS2.c
               __string_0   0x00edb1    program     static D:\git\70M_Ku_Up\SysLib\util.c
              __string_16   0x00edb7    program     static D:\git\70M_Ku_Up\App\WebUI\HTTPApp.c
              __string_15   0x00edcb    program     static D:\git\70M_Ku_Up\App\WebUI\HTTPApp.c
              __string_14   0x00ede0    program     static D:\git\70M_Ku_Up\App\WebUI\HTTPApp.c
              __string_13   0x00ede5    program     static D:\git\70M_Ku_Up\App\WebUI\HTTPApp.c
              __string_12   0x00edea    program     static D:\git\70M_Ku_Up\App\WebUI\HTTPApp.c
              __string_11   0x00edee    program     static D:\git\70M_Ku_Up\App\WebUI\HTTPApp.c
              __string_10   0x00edf3    program     static D:\git\70M_Ku_Up\App\WebUI\HTTPApp.c
               __string_9   0x00edf8    program     static D:\git\70M_Ku_Up\App\WebUI\HTTPApp.c
               __string_8   0x00edfc    program     static D:\git\70M_Ku_Up\App\WebUI\HTTPApp.c
               __string_7   0x00edff    program     static D:\git\70M_Ku_Up\App\WebUI\HTTPApp.c
               __string_6   0x00ee02    program     static D:\git\70M_Ku_Up\App\WebUI\HTTPApp.c
               __string_5   0x00ee0b    program     static D:\git\70M_Ku_Up\App\WebUI\HTTPApp.c
               __string_4   0x00ee0f    program     static D:\git\70M_Ku_Up\App\WebUI\HTTPApp.c
               __string_3   0x00ee1f    program     static D:\git\70M_Ku_Up\App\WebUI\HTTPApp.c
               __string_2   0x00ee32    program     static D:\git\70M_Ku_Up\App\WebUI\HTTPApp.c
               __string_1   0x00ee38    program     static D:\git\70M_Ku_Up\App\WebUI\HTTPApp.c
               __string_0   0x00ee3d    program     static D:\git\70M_Ku_Up\App\WebUI\HTTPApp.c
               __string_2   0x00ee45    program     static D:\git\70M_Ku_Up\Devices\DownConverter_c1.c
               __string_1   0x00ee4d    program     static D:\git\70M_Ku_Up\Devices\DownConverter_c1.c
               __string_0   0x00ee56    program     static D:\git\70M_Ku_Up\Devices\DownConverter_c1.c
               __string_8   0x00ee5f    program     static D:\git\70M_Ku_Up\Devices\MainControl_c1.c
               __string_7   0x00ee64    program     static D:\git\70M_Ku_Up\Devices\MainControl_c1.c
               __string_6   0x00ee68    program     static D:\git\70M_Ku_Up\Devices\MainControl_c1.c
               __string_5   0x00ee71    program     static D:\git\70M_Ku_Up\Devices\MainControl_c1.c
               __string_4   0x00ee7a    program     static D:\git\70M_Ku_Up\Devices\MainControl_c1.c
               __string_3   0x00ee81    program     static D:\git\70M_Ku_Up\Devices\MainControl_c1.c
               __string_2   0x00ee88    program     static D:\git\70M_Ku_Up\Devices\MainControl_c1.c
               __string_1   0x00ee8d    program     static D:\git\70M_Ku_Up\Devices\MainControl_c1.c
               __string_0   0x00ee94    program     static D:\git\70M_Ku_Up\Devices\MainControl_c1.c
               __string_2   0x00ee98    program     static D:\git\70M_Ku_Up\Devices\UpConverter_c1.c
               __string_1   0x00eea0    program     static D:\git\70M_Ku_Up\Devices\UpConverter_c1.c
               __string_0   0x00eea9    program     static D:\git\70M_Ku_Up\Devices\UpConverter_c1.c
               __string_4   0x00eeb2    program     static D:\git\70M_Ku_Up\Devices\VOLDC_c1 .c
               __string_3   0x00eeb5    program     static D:\git\70M_Ku_Up\Devices\VOLDC_c1 .c
               __string_2   0x00eebb    program     static D:\git\70M_Ku_Up\Devices\VOLDC_c1 .c
               __string_1   0x00eec1    program     static D:\git\70M_Ku_Up\Devices\VOLDC_c1 .c
               __string_0   0x00eeca    program     static D:\git\70M_Ku_Up\Devices\VOLDC_c1 .c
              __string_69   0x00eed3    program     static D:\git\70M_Ku_Up\Drivers\External-Peripherals\oled_c2.c
              __string_68   0x00eee1    program     static D:\git\70M_Ku_Up\Drivers\External-Peripherals\oled_c2.c
              __string_67   0x00eeef    program     static D:\git\70M_Ku_Up\Drivers\External-Peripherals\oled_c2.c
              __string_66   0x00eefb    program     static D:\git\70M_Ku_Up\Drivers\External-Peripherals\oled_c2.c
              __string_65   0x00ef0a    program     static D:\git\70M_Ku_Up\Drivers\External-Peripherals\oled_c2.c
              __string_64   0x00ef14    program     static D:\git\70M_Ku_Up\Drivers\External-Peripherals\oled_c2.c
              __string_63   0x00ef1d    program     static D:\git\70M_Ku_Up\Drivers\External-Peripherals\oled_c2.c
              __string_62   0x00ef23    program     static D:\git\70M_Ku_Up\Drivers\External-Peripherals\oled_c2.c
              __string_61   0x00ef29    program     static D:\git\70M_Ku_Up\Drivers\External-Peripherals\oled_c2.c
              __string_60   0x00ef2d    program     static D:\git\70M_Ku_Up\Drivers\External-Peripherals\oled_c2.c
              __string_59   0x00ef56    program     static D:\git\70M_Ku_Up\Drivers\External-Peripherals\oled_c2.c
              __string_10   0x00ef7f    program     static D:\git\70M_Ku_Up\Drivers\External-Peripherals\oled_c2.c
               __string_7   0x00ef88    program     static D:\git\70M_Ku_Up\Drivers\External-Peripherals\oled_c2.c
              __string_43   0x00ef8c    program     static D:\git\70M_Ku_Up\App\WebUI\HTTPGetDevInfo.c
              __string_42   0x00ef90    program     static D:\git\70M_Ku_Up\App\WebUI\HTTPGetDevInfo.c
              __string_41   0x00ef95    program     static D:\git\70M_Ku_Up\App\WebUI\HTTPGetDevInfo.c
              __string_40   0x00ef9a    program     static D:\git\70M_Ku_Up\App\WebUI\HTTPGetDevInfo.c
              __string_39   0x00efa7    program     static D:\git\70M_Ku_Up\App\WebUI\HTTPGetDevInfo.c
              __string_38   0x00efb1    program     static D:\git\70M_Ku_Up\App\WebUI\HTTPGetDevInfo.c
              __string_37   0x00efbb    program     static D:\git\70M_Ku_Up\App\WebUI\HTTPGetDevInfo.c
              __string_36   0x00efc1    program     static D:\git\70M_Ku_Up\App\WebUI\HTTPGetDevInfo.c
              __string_35   0x00efc6    program     static D:\git\70M_Ku_Up\App\WebUI\HTTPGetDevInfo.c
              __string_34   0x00efcb    program     static D:\git\70M_Ku_Up\App\WebUI\HTTPGetDevInfo.c
              __string_33   0x00efdb    program     static D:\git\70M_Ku_Up\App\WebUI\HTTPGetDevInfo.c
              __string_32   0x00efdf    program     static D:\git\70M_Ku_Up\App\WebUI\HTTPGetDevInfo.c
              __string_31   0x00eff3    program     static D:\git\70M_Ku_Up\App\WebUI\HTTPGetDevInfo.c
              __string_30   0x00f006    program     static D:\git\70M_Ku_Up\App\WebUI\HTTPGetDevInfo.c
              __string_29   0x00f013    program     static D:\git\70M_Ku_Up\App\WebUI\HTTPGetDevInfo.c
              __string_28   0x00f020    program     static D:\git\70M_Ku_Up\App\WebUI\HTTPGetDevInfo.c
              __string_27   0x00f027    program     static D:\git\70M_Ku_Up\App\WebUI\HTTPGetDevInfo.c
              __string_26   0x00f02e    program     static D:\git\70M_Ku_Up\App\WebUI\HTTPGetDevInfo.c
              __string_25   0x00f036    program     static D:\git\70M_Ku_Up\App\WebUI\HTTPGetDevInfo.c
              __string_24   0x00f03e    program     static D:\git\70M_Ku_Up\App\WebUI\HTTPGetDevInfo.c
              __string_23   0x00f044    program     static D:\git\70M_Ku_Up\App\WebUI\HTTPGetDevInfo.c
              __string_22   0x00f04d    program     static D:\git\70M_Ku_Up\App\WebUI\HTTPGetDevInfo.c
              __string_21   0x00f056    program     static D:\git\70M_Ku_Up\App\WebUI\HTTPGetDevInfo.c
              __string_20   0x00f05c    program     static D:\git\70M_Ku_Up\App\WebUI\HTTPGetDevInfo.c
              __string_19   0x00f061    program     static D:\git\70M_Ku_Up\App\WebUI\HTTPGetDevInfo.c
              __string_18   0x00f065    program     static D:\git\70M_Ku_Up\App\WebUI\HTTPGetDevInfo.c
              __string_17   0x00f069    program     static D:\git\70M_Ku_Up\App\WebUI\HTTPGetDevInfo.c
              __string_16   0x00f06e    program     static D:\git\70M_Ku_Up\App\WebUI\HTTPGetDevInfo.c
              __string_15   0x00f078    program     static D:\git\70M_Ku_Up\App\WebUI\HTTPGetDevInfo.c
              __string_14   0x00f085    program     static D:\git\70M_Ku_Up\App\WebUI\HTTPGetDevInfo.c
              __string_13   0x00f093    program     static D:\git\70M_Ku_Up\App\WebUI\HTTPGetDevInfo.c
              __string_12   0x00f0a1    program     static D:\git\70M_Ku_Up\App\WebUI\HTTPGetDevInfo.c
              __string_11   0x00f0ab    program     static D:\git\70M_Ku_Up\App\WebUI\HTTPGetDevInfo.c
              __string_10   0x00f0b5    program     static D:\git\70M_Ku_Up\App\WebUI\HTTPGetDevInfo.c
               __string_9   0x00f0bf    program     static D:\git\70M_Ku_Up\App\WebUI\HTTPGetDevInfo.c
               __string_8   0x00f0cc    program     static D:\git\70M_Ku_Up\App\WebUI\HTTPGetDevInfo.c
               __string_7   0x00f0dc    program     static D:\git\70M_Ku_Up\App\WebUI\HTTPGetDevInfo.c
               __string_6   0x00f0ec    program     static D:\git\70M_Ku_Up\App\WebUI\HTTPGetDevInfo.c
               __string_5   0x00f0fd    program     static D:\git\70M_Ku_Up\App\WebUI\HTTPGetDevInfo.c
               __string_4   0x00f10e    program     static D:\git\70M_Ku_Up\App\WebUI\HTTPGetDevInfo.c
               __string_3   0x00f115    program     static D:\git\70M_Ku_Up\App\WebUI\HTTPGetDevInfo.c
               __string_2   0x00f11d    program     static D:\git\70M_Ku_Up\App\WebUI\HTTPGetDevInfo.c
               __string_1   0x00f121    program     static D:\git\70M_Ku_Up\App\WebUI\HTTPGetDevInfo.c
               __string_0   0x00f128    program     static D:\git\70M_Ku_Up\App\WebUI\HTTPGetDevInfo.c
              __string_22   0x00f12b    program     static D:\git\70M_Ku_Up\App\WebUI\HTTPPrint.c
              __string_21   0x00f130    program     static D:\git\70M_Ku_Up\App\WebUI\HTTPPrint.c
              __string_20   0x00f14e    program     static D:\git\70M_Ku_Up\App\WebUI\HTTPPrint.c
              __string_19   0x00f162    program     static D:\git\70M_Ku_Up\App\WebUI\HTTPPrint.c
              __string_18   0x00f175    program     static D:\git\70M_Ku_Up\App\WebUI\HTTPPrint.c
              __string_17   0x00f192    program     static D:\git\70M_Ku_Up\App\WebUI\HTTPPrint.c
              __string_16   0x00f1a2    program     static D:\git\70M_Ku_Up\App\WebUI\HTTPPrint.c
              __string_15   0x00f1a8    program     static D:\git\70M_Ku_Up\App\WebUI\HTTPPrint.c
              __string_14   0x00f1ac    program     static D:\git\70M_Ku_Up\App\WebUI\HTTPPrint.c
              __string_13   0x00f1af    program     static D:\git\70M_Ku_Up\App\WebUI\HTTPPrint.c
              __string_12   0x00f1b8    program     static D:\git\70M_Ku_Up\App\WebUI\HTTPPrint.c
              __string_11   0x00f1c1    program     static D:\git\70M_Ku_Up\App\WebUI\HTTPPrint.c
              __string_10   0x00f1ca    program     static D:\git\70M_Ku_Up\App\WebUI\HTTPPrint.c
               __string_9   0x00f1d4    program     static D:\git\70M_Ku_Up\App\WebUI\HTTPPrint.c
               __string_8   0x00f1dc    program     static D:\git\70M_Ku_Up\App\WebUI\HTTPPrint.c
               __string_7   0x00f1e3    program     static D:\git\70M_Ku_Up\App\WebUI\HTTPPrint.c
               __string_6   0x00f1ec    program     static D:\git\70M_Ku_Up\App\WebUI\HTTPPrint.c
               __string_5   0x00f1f5    program     static D:\git\70M_Ku_Up\App\WebUI\HTTPPrint.c
               __string_4   0x00f1f9    program     static D:\git\70M_Ku_Up\App\WebUI\HTTPPrint.c
               __string_3   0x00f1fc    program     static D:\git\70M_Ku_Up\App\WebUI\HTTPPrint.c
               __string_2   0x00f203    program     static D:\git\70M_Ku_Up\App\WebUI\HTTPPrint.c
               __string_1   0x00f208    program     static D:\git\70M_Ku_Up\App\WebUI\HTTPPrint.c
               __string_0   0x00f211    program     static D:\git\70M_Ku_Up\App\WebUI\HTTPPrint.c
                  MACInit   0x00f21a    program     extern D:\git\70M_Ku_Up\Microchip\TCPIP Stack\ETH97J60.c
        ___while_lbl00001   0x00f234    program     static                          
        ___while_lbl00002   0x00f23a    program     static                          
       ___return_lbl00000   0x00f322    program     static                          
              MACIsLinked   0x00f330    program     extern D:\git\70M_Ku_Up\Microchip\TCPIP Stack\ETH97J60.c
             MACIsTxReady   0x00f344    program     extern D:\git\70M_Ku_Up\Microchip\TCPIP Stack\ETH97J60.c
             MACDiscardRx   0x00f36c    program     extern D:\git\70M_Ku_Up\Microchip\TCPIP Stack\ETH97J60.c
         MACGetFreeRxSize   0x00f3cc    program     extern D:\git\70M_Ku_Up\Microchip\TCPIP Stack\ETH97J60.c
             MACGetHeader   0x00f494    program     extern D:\git\70M_Ku_Up\Microchip\TCPIP Stack\ETH97J60.c
           ___if_lbl00020   0x00f4ba    program     static                          
           ___if_lbl00021   0x00f4c6    program     static                          
              __tmplbl_11   0x00f52c    program     static                          
              __tmplbl_10   0x00f52e    program     static                          
               __tmplbl_9   0x00f53c    program     static                          
               __tmplbl_8   0x00f554    program     static                          
               __tmplbl_7   0x00f56a    program     static                          
               __tmplbl_6   0x00f582    program     static                          
               __tmplbl_5   0x00f598    program     static                          
           ___if_lbl00027   0x00f59a    program     static                          
              __tmplbl_13   0x00f5fa    program     static                          
              __tmplbl_14   0x00f600    program     static                          
              __tmplbl_12   0x00f608    program     static                          
           ___if_lbl00030   0x00f61a    program     static                          
       ___return_lbl00019   0x00f622    program     static                          
             MACPutHeader   0x00f63e    program     extern D:\git\70M_Ku_Up\Microchip\TCPIP Stack\ETH97J60.c
                 MACFlush   0x00f6a2    program     extern D:\git\70M_Ku_Up\Microchip\TCPIP Stack\ETH97J60.c
        MACSetReadPtrInRx   0x00f6ca    program     extern D:\git\70M_Ku_Up\Microchip\TCPIP Stack\ETH97J60.c
           MACSetWritePtr   0x00f6e2    program     extern D:\git\70M_Ku_Up\Microchip\TCPIP Stack\ETH97J60.c
            MACSetReadPtr   0x00f6f6    program     extern D:\git\70M_Ku_Up\Microchip\TCPIP Stack\ETH97J60.c
        MACCalcRxChecksum   0x00f70e    program     extern D:\git\70M_Ku_Up\Microchip\TCPIP Stack\ETH97J60.c
     CalcIPBufferChecksum   0x00f75a    program     extern D:\git\70M_Ku_Up\Microchip\TCPIP Stack\ETH97J60.c
          MACMemCopyAsync   0x00f8ca    program     extern D:\git\70M_Ku_Up\Microchip\TCPIP Stack\ETH97J60.c
         MACIsMemCopyDone   0x00fa18    program     extern D:\git\70M_Ku_Up\Microchip\TCPIP Stack\ETH97J60.c
                   MACGet   0x00fa24    program     extern D:\git\70M_Ku_Up\Microchip\TCPIP Stack\ETH97J60.c
              MACGetArray   0x00fa28    program     extern D:\git\70M_Ku_Up\Microchip\TCPIP Stack\ETH97J60.c
                   MACPut   0x00fa82    program     extern D:\git\70M_Ku_Up\Microchip\TCPIP Stack\ETH97J60.c
       ___return_lbl00079   0x00fa9c    program     static                          
              MACPutArray   0x00faa8    program     extern D:\git\70M_Ku_Up\Microchip\TCPIP Stack\ETH97J60.c
        ___while_lbl00081   0x00fab8    program     static                          
       ___return_lbl00080   0x00faec    program     static                          
        ___while_lbl00082   0x00faec    program     static                          
           MACPutROMArray   0x00faf8    program     extern D:\git\70M_Ku_Up\Microchip\TCPIP Stack\ETH97J60.c
        ___while_lbl00084   0x00fb08    program     static                          
       ___return_lbl00083   0x00fb4e    program     static                          
        ___while_lbl00085   0x00fb4e    program     static                          
               ReadPHYReg   0x00fb5a    program     extern D:\git\70M_Ku_Up\Microchip\TCPIP Stack\ETH97J60.c
        ___while_lbl00087   0x00fb7e    program     static                          
        ___while_lbl00088   0x00fb84    program     static                          
       ___return_lbl00086   0x00fba8    program     static                          
              WritePHYReg   0x00fbb8    program     extern D:\git\70M_Ku_Up\Microchip\TCPIP Stack\ETH97J60.c
        ___while_lbl00090   0x00fbf4    program     static                          
       ___return_lbl00089   0x00fbfa    program     static                          
        ___while_lbl00091   0x00fbfa    program     static                          
             MACPowerDown   0x00fc08    program     extern D:\git\70M_Ku_Up\Microchip\TCPIP Stack\ETH97J60.c
               MACPowerUp   0x00fc1a    program     extern D:\git\70M_Ku_Up\Microchip\TCPIP Stack\ETH97J60.c
                   __pa_0   0x00fc28    program     static D:\git\70M_Ku_Up\Microchip\TCPIP Stack\ETH97J60.c
              __tmplbl_25   0x00fc3a    program     static                          
                   __pa_1   0x00fc3a    program     static D:\git\70M_Ku_Up\Microchip\TCPIP Stack\ETH97J60.c
                   __pa_2   0x00fc46    program     static D:\git\70M_Ku_Up\Microchip\TCPIP Stack\ETH97J60.c
                   __pa_3   0x00fc64    program     static D:\git\70M_Ku_Up\Microchip\TCPIP Stack\ETH97J60.c
                   __pa_4   0x00fc7c    program     static D:\git\70M_Ku_Up\Microchip\TCPIP Stack\ETH97J60.c
                   __pa_5   0x00fc86    program     static D:\git\70M_Ku_Up\Microchip\TCPIP Stack\ETH97J60.c
                   __pa_6   0x00fc8a    program     static D:\git\70M_Ku_Up\Microchip\TCPIP Stack\ETH97J60.c
                   __pa_7   0x00fc90    program     static D:\git\70M_Ku_Up\Microchip\TCPIP Stack\ETH97J60.c
                   __pa_8   0x00fc9a    program     static D:\git\70M_Ku_Up\Microchip\TCPIP Stack\ETH97J60.c
                   __pa_9   0x00fca8    program     static D:\git\70M_Ku_Up\Microchip\TCPIP Stack\ETH97J60.c
                  __pa_10   0x00fcba    program     static D:\git\70M_Ku_Up\Microchip\TCPIP Stack\ETH97J60.c
                  __pa_11   0x00fcca    program     static D:\git\70M_Ku_Up\Microchip\TCPIP Stack\ETH97J60.c
                  __pa_12   0x00fcd6    program     static D:\git\70M_Ku_Up\Microchip\TCPIP Stack\ETH97J60.c
                  __pa_13   0x00fce4    program     static D:\git\70M_Ku_Up\Microchip\TCPIP Stack\ETH97J60.c
                  __pa_14   0x00fcf2    program     static D:\git\70M_Ku_Up\Microchip\TCPIP Stack\ETH97J60.c
                  __pa_15   0x00fd00    program     static D:\git\70M_Ku_Up\Microchip\TCPIP Stack\ETH97J60.c
                  __pa_16   0x00fd0e    program     static D:\git\70M_Ku_Up\Microchip\TCPIP Stack\ETH97J60.c
                  __pa_17   0x00fd1c    program     static D:\git\70M_Ku_Up\Microchip\TCPIP Stack\ETH97J60.c
                  __pa_18   0x00fd24    program     static D:\git\70M_Ku_Up\Microchip\TCPIP Stack\ETH97J60.c
                  __pa_19   0x00fd2e    program     static D:\git\70M_Ku_Up\Microchip\TCPIP Stack\ETH97J60.c
                  __pa_20   0x00fd38    program     static D:\git\70M_Ku_Up\Microchip\TCPIP Stack\ETH97J60.c
                  __pa_21   0x00fd50    program     static D:\git\70M_Ku_Up\Microchip\TCPIP Stack\ETH97J60.c
                  __pa_22   0x00fd58    program     static D:\git\70M_Ku_Up\Microchip\TCPIP Stack\ETH97J60.c
                  __pa_23   0x00fd66    program     static D:\git\70M_Ku_Up\Microchip\TCPIP Stack\ETH97J60.c
                  __pa_24   0x00fd6e    program     static D:\git\70M_Ku_Up\Microchip\TCPIP Stack\ETH97J60.c
                  __pa_25   0x00fd7e    program     static D:\git\70M_Ku_Up\Microchip\TCPIP Stack\ETH97J60.c
                  __pa_26   0x00fd8a    program     static D:\git\70M_Ku_Up\Microchip\TCPIP Stack\ETH97J60.c
                  __pa_27   0x00fd98    program     static D:\git\70M_Ku_Up\Microchip\TCPIP Stack\ETH97J60.c
                  __pa_28   0x00fda8    program     static D:\git\70M_Ku_Up\Microchip\TCPIP Stack\ETH97J60.c
                  __pa_29   0x00fdb2    program     static D:\git\70M_Ku_Up\Microchip\TCPIP Stack\ETH97J60.c
                  __pa_30   0x00fdbc    program     static D:\git\70M_Ku_Up\Microchip\TCPIP Stack\ETH97J60.c
                  __pa_31   0x00fdc4    program     static D:\git\70M_Ku_Up\Microchip\TCPIP Stack\ETH97J60.c
            stMenuDisplay   0x00fdcc    program     extern D:\git\70M_Ku_Up\Drivers\External-Peripherals\oled_c2.c
               acLCDTitle   0x00ffe8    program     extern D:\git\70M_Ku_Up\Drivers\External-Peripherals\oled_c2.c
          acLCDBlinkTitle   0x010498    program     extern D:\git\70M_Ku_Up\Drivers\External-Peripherals\oled_c2.c
         UpCvt_vPrintFreq   0x010830    program     extern D:\git\70M_Ku_Up\Devices\UpConverter_c1.c
        UpCvt_vPrintPower   0x01084a    program     extern D:\git\70M_Ku_Up\Devices\UpConverter_c1.c
        UpCvt_vPrintStPwr   0x010864    program     extern D:\git\70M_Ku_Up\Devices\UpConverter_c1.c
           UpCvt_vPrintLo   0x01087e    program     extern D:\git\70M_Ku_Up\Devices\UpConverter_c1.c
         UpCvt_vPrintAttn   0x0108b0    program     extern D:\git\70M_Ku_Up\Devices\UpConverter_c1.c
          UpCvt_vPrintALC   0x0108ca    program     extern D:\git\70M_Ku_Up\Devices\UpConverter_c1.c
         UpCvt_vPrintMute   0x0108e4    program     extern D:\git\70M_Ku_Up\Devices\UpConverter_c1.c
           UpCvt_vSendI2C   0x010928    program     extern D:\git\70M_Ku_Up\Devices\UpConverter_c1.c
         UpCvt_vSendLoI2C   0x010938    program     extern D:\git\70M_Ku_Up\Devices\UpConverter_c1.c
           UpCvt_vSetFreq   0x0109aa    program     extern D:\git\70M_Ku_Up\Devices\UpConverter_c1.c
           UpCvt_vSetAttn   0x010c02    program     extern D:\git\70M_Ku_Up\Devices\UpConverter_c1.c
          UpCvt_vSetPower   0x010cf2    program     extern D:\git\70M_Ku_Up\Devices\UpConverter_c1.c
          UpCvt_vSetStPwr   0x010cf4    program     extern D:\git\70M_Ku_Up\Devices\UpConverter_c1.c
            UpCvt_vSetALC   0x010e32    program     extern D:\git\70M_Ku_Up\Devices\UpConverter_c1.c
           UpCvt_vSetMute   0x010e76    program     extern D:\git\70M_Ku_Up\Devices\UpConverter_c1.c
                   __pa_0   0x010f02    program     static D:\git\70M_Ku_Up\Devices\UpConverter_c1.c
                   __pa_1   0x010f0e    program     static D:\git\70M_Ku_Up\Devices\UpConverter_c1.c
                   __pa_2   0x010f18    program     static D:\git\70M_Ku_Up\Devices\UpConverter_c1.c
                   __pa_3   0x010f2a    program     static D:\git\70M_Ku_Up\Devices\UpConverter_c1.c
                   __pa_4   0x010f32    program     static D:\git\70M_Ku_Up\Devices\UpConverter_c1.c
                   __pa_5   0x010f3e    program     static D:\git\70M_Ku_Up\Devices\UpConverter_c1.c
                   __pa_6   0x010f54    program     static D:\git\70M_Ku_Up\Devices\UpConverter_c1.c
                   __pa_7   0x010f64    program     static D:\git\70M_Ku_Up\Devices\UpConverter_c1.c
                   __pa_8   0x010f6c    program     static D:\git\70M_Ku_Up\Devices\UpConverter_c1.c
                   __pa_9   0x010f76    program     static D:\git\70M_Ku_Up\Devices\UpConverter_c1.c
                  __pa_10   0x010f88    program     static D:\git\70M_Ku_Up\Devices\UpConverter_c1.c
                  __pa_11   0x010f96    program     static D:\git\70M_Ku_Up\Devices\UpConverter_c1.c
                  __pa_12   0x010f9e    program     static D:\git\70M_Ku_Up\Devices\UpConverter_c1.c
                  __pa_13   0x010fac    program     static D:\git\70M_Ku_Up\Devices\UpConverter_c1.c
                  __pa_14   0x010fbc    program     static D:\git\70M_Ku_Up\Devices\UpConverter_c1.c
                  __pa_15   0x010fcc    program     static D:\git\70M_Ku_Up\Devices\UpConverter_c1.c
                  __pa_16   0x010fdc    program     static D:\git\70M_Ku_Up\Devices\UpConverter_c1.c
                  __pa_17   0x010fee    program     static D:\git\70M_Ku_Up\Devices\UpConverter_c1.c
                 FLO0832U   0x010ff8    program     extern C:\Program Files\mcc18\src\traditional\math\cast08FP.asm
                 FLO0832S   0x010ffc    program     extern C:\Program Files\mcc18\src\traditional\math\cast08FP.asm
                jI2F08Beg   0x011006    program     static C:\Program Files\mcc18\src\traditional\math\cast08FP.asm
                 FLO1632U   0x01101a    program     extern C:\Program Files\mcc18\src\traditional\math\cast16FP.asm
                 FLO1632S   0x01101e    program     extern C:\Program Files\mcc18\src\traditional\math\cast16FP.asm
                jI2F16Beg   0x01102e    program     static C:\Program Files\mcc18\src\traditional\math\cast16FP.asm
                    FPS32   0x011044    program     extern C:\Program Files\mcc18\src\traditional\math\addFP.asm
                    FPA32   0x011046    program     extern C:\Program Files\mcc18\src\traditional\math\addFP.asm
                jBANotInf   0x011064    program     static C:\Program Files\mcc18\src\traditional\math\addFP.asm
                 jANotInf   0x01106e    program     static C:\Program Files\mcc18\src\traditional\math\addFP.asm
                 jBNotInf   0x01107c    program     static C:\Program Files\mcc18\src\traditional\math\addFP.asm
            jDifOrPosSign   0x011090    program     static C:\Program Files\mcc18\src\traditional\math\addFP.asm
             jNotBothZero   0x011094    program     static C:\Program Files\mcc18\src\traditional\math\addFP.asm
                 jAltBexp   0x0110c0    program     static C:\Program Files\mcc18\src\traditional\math\addFP.asm
              jAandWsetup   0x0110d2    program     static C:\Program Files\mcc18\src\traditional\math\addFP.asm
                 jANotNeg   0x011102    program     static C:\Program Files\mcc18\src\traditional\math\addFP.asm
                 jWNotNeg   0x011116    program     static C:\Program Files\mcc18\src\traditional\math\addFP.asm
               jShiftLoop   0x01111c    program     static C:\Program Files\mcc18\src\traditional\math\addFP.asm
               jShiftDone   0x01112a    program     static C:\Program Files\mcc18\src\traditional\math\addFP.asm
                jSignDone   0x01115a    program     static C:\Program Files\mcc18\src\traditional\math\addFP.asm
               jFinalSign   0x01116a    program     static C:\Program Files\mcc18\src\traditional\math\addFP.asm
                    FPD32   0x011172    program     extern C:\Program Files\mcc18\src\traditional\math\divFP.asm
                 jANotInf   0x011190    program     static C:\Program Files\mcc18\src\traditional\math\divFP.asm
              jSignedZero   0x01119a    program     static C:\Program Files\mcc18\src\traditional\math\divFP.asm
                jANotZero   0x0111a4    program     static C:\Program Files\mcc18\src\traditional\math\divFP.asm
                    jLoop   0x0111cc    program     static C:\Program Files\mcc18\src\traditional\math\divFP.asm
                jNoAdjust   0x0111f0    program     static C:\Program Files\mcc18\src\traditional\math\divFP.asm
                    jNext   0x0111f2    program     static C:\Program Files\mcc18\src\traditional\math\divFP.asm
                    FPM32   0x011218    program     extern C:\Program Files\mcc18\src\traditional\math\mulFP.asm
                 jANotInf   0x011236    program     static C:\Program Files\mcc18\src\traditional\math\mulFP.asm
              jBothFinite   0x011244    program     static C:\Program Files\mcc18\src\traditional\math\mulFP.asm
                jHaveZero   0x01124c    program     static C:\Program Files\mcc18\src\traditional\math\mulFP.asm
             jBothNotZero   0x011250    program     static C:\Program Files\mcc18\src\traditional\math\mulFP.asm
                 FXD1616S   0x0112f2    program     extern C:\Program Files\mcc18\src\traditional\math\fxd1616s.asm
                  DA1616S   0x011304    program     static C:\Program Files\mcc18\src\traditional\math\fxd1616s.asm
                   D1616S   0x011314    program     static C:\Program Files\mcc18\src\traditional\math\fxd1616s.asm
                 D1616SOK   0x01131e    program     static C:\Program Files\mcc18\src\traditional\math\fxd1616s.asm
                D1616SNEG   0x011322    program     static C:\Program Files\mcc18\src\traditional\math\fxd1616s.asm
                  D1616SX   0x011334    program     static C:\Program Files\mcc18\src\traditional\math\fxd1616s.asm
                 FXM1616S   0x01133e    program     extern C:\Program Files\mcc18\src\traditional\math\fxm1616s.asm
               TSIGN1616A   0x01138a    program     static C:\Program Files\mcc18\src\traditional\math\fxm1616s.asm
                 FXM1616U   0x011398    program     extern C:\Program Files\mcc18\src\traditional\math\fxm1616u.asm
                 FXM2424U   0x0113d4    program     extern C:\Program Files\mcc18\src\traditional\math\fxm2424u.asm
                  INT3216   0x011466    program     extern C:\Program Files\mcc18\src\traditional\math\castFP16.asm
                     jMax   0x011476    program     static C:\Program Files\mcc18\src\traditional\math\castFP16.asm
                  jMaxPos   0x01147a    program     static C:\Program Files\mcc18\src\traditional\math\castFP16.asm
                  jMaxNeg   0x011484    program     static C:\Program Files\mcc18\src\traditional\math\castFP16.asm
                    jZero   0x01148c    program     static C:\Program Files\mcc18\src\traditional\math\castFP16.asm
                  jNotInf   0x011492    program     static C:\Program Files\mcc18\src\traditional\math\castFP16.asm
                    jLoop   0x0114a2    program     static C:\Program Files\mcc18\src\traditional\math\castFP16.asm
                jLoopExit   0x0114b2    program     static C:\Program Files\mcc18\src\traditional\math\castFP16.asm
                    jExit   0x0114c2    program     static C:\Program Files\mcc18\src\traditional\math\castFP16.asm
                  INT3232   0x0114c4    program     extern C:\Program Files\mcc18\src\traditional\math\castFP32.asm
                     jMax   0x0114d4    program     static C:\Program Files\mcc18\src\traditional\math\castFP32.asm
                  jMaxPos   0x0114d8    program     static C:\Program Files\mcc18\src\traditional\math\castFP32.asm
                   jWr123   0x0114de    program     static C:\Program Files\mcc18\src\traditional\math\castFP32.asm
                  jMaxNeg   0x0114e6    program     static C:\Program Files\mcc18\src\traditional\math\castFP32.asm
                    jZero   0x0114ec    program     static C:\Program Files\mcc18\src\traditional\math\castFP32.asm
                  jWrZ123   0x0114ee    program     static C:\Program Files\mcc18\src\traditional\math\castFP32.asm
                  jNotInf   0x0114f2    program     static C:\Program Files\mcc18\src\traditional\math\castFP32.asm
                    jLoop   0x011504    program     static C:\Program Files\mcc18\src\traditional\math\castFP32.asm
                jLoopExit   0x011518    program     static C:\Program Files\mcc18\src\traditional\math\castFP32.asm
                    jExit   0x011530    program     static C:\Program Files\mcc18\src\traditional\math\castFP32.asm
                  TAGTB32   0x011532    program     extern C:\Program Files\mcc18\src\traditional\math\gtFP.asm
                  TALTB32   0x011544    program     extern C:\Program Files\mcc18\src\traditional\math\ltFP.asm
              __FpCompare   0x011556    program     extern C:\Program Files\mcc18\src\traditional\math\compFP.asm
             jBothNotZero   0x011574    program     static C:\Program Files\mcc18\src\traditional\math\compFP.asm
                 jSignsEQ   0x011578    program     static C:\Program Files\mcc18\src\traditional\math\compFP.asm
                      jEQ   0x011590    program     static C:\Program Files\mcc18\src\traditional\math\compFP.asm
                      jNE   0x011594    program     static C:\Program Files\mcc18\src\traditional\math\compFP.asm
                    jExch   0x01159c    program     static C:\Program Files\mcc18\src\traditional\math\compFP.asm
                  jNoExch   0x0115bc    program     static C:\Program Files\mcc18\src\traditional\math\compFP.asm
                   jFinal   0x0115c6    program     static C:\Program Files\mcc18\src\traditional\math\compFP.asm
                  jAisNeg   0x0115d2    program     static C:\Program Files\mcc18\src\traditional\math\compFP.asm
                   jShift   0x0115d8    program     static C:\Program Files\mcc18\src\traditional\math\compFP.asm
                   jExpEQ   0x0115e2    program     static C:\Program Files\mcc18\src\traditional\math\compFP.asm
                  jRotate   0x0115ee    program     static C:\Program Files\mcc18\src\traditional\math\compFP.asm
            __FpReturnNaN   0x011600    program     extern C:\Program Files\mcc18\src\traditional\math\packFP.asm
                 __FpExit   0x01160c    program     extern C:\Program Files\mcc18\src\traditional\math\packFP.asm
        __FpReturnSignInf   0x01160e    program     extern C:\Program Files\mcc18\src\traditional\math\packFP.asm
         __FpReturnNegInf   0x011612    program     extern C:\Program Files\mcc18\src\traditional\math\packFP.asm
         __FpReturnPosInf   0x011618    program     extern C:\Program Files\mcc18\src\traditional\math\packFP.asm
           jReturnPosInf0   0x01161c    program     static C:\Program Files\mcc18\src\traditional\math\packFP.asm
               jZero1and2   0x011620    program     static C:\Program Files\mcc18\src\traditional\math\packFP.asm
       __FpReturnSignZero   0x011626    program     extern C:\Program Files\mcc18\src\traditional\math\packFP.asm
        __FpReturnNegZero   0x01162a    program     extern C:\Program Files\mcc18\src\traditional\math\packFP.asm
        __FpReturnPosZero   0x011632    program     extern C:\Program Files\mcc18\src\traditional\math\packFP.asm
                 __FpPack   0x011638    program     extern C:\Program Files\mcc18\src\traditional\math\packFP.asm
                  jPkLoop   0x011646    program     static C:\Program Files\mcc18\src\traditional\math\packFP.asm
             jPkShiftDone   0x011662    program     static C:\Program Files\mcc18\src\traditional\math\packFP.asm
               jPkRoundIt   0x011678    program     static C:\Program Files\mcc18\src\traditional\math\packFP.asm
              __FpReturnW   0x011690    program     extern C:\Program Files\mcc18\src\traditional\math\packFP.asm
             jPkRoundDone   0x011690    program     static C:\Program Files\mcc18\src\traditional\math\packFP.asm
              __FpUnPackA   0x0116b0    program     extern C:\Program Files\mcc18\src\traditional\math\UnpackFP.asm
                  jUnpkA1   0x0116ba    program     static C:\Program Files\mcc18\src\traditional\math\UnpackFP.asm
                 jUnpkANZ   0x0116c8    program     static C:\Program Files\mcc18\src\traditional\math\UnpackFP.asm
                  jUnpkA2   0x0116d2    program     static C:\Program Files\mcc18\src\traditional\math\UnpackFP.asm
                 jUnpkNaN   0x0116dc    program     static C:\Program Files\mcc18\src\traditional\math\UnpackFP.asm
              __FpUnPackB   0x0116e0    program     extern C:\Program Files\mcc18\src\traditional\math\UnpackFP.asm
                  jUnpkB1   0x0116ea    program     static C:\Program Files\mcc18\src\traditional\math\UnpackFP.asm
                 jUnpkBNZ   0x0116f8    program     static C:\Program Files\mcc18\src\traditional\math\UnpackFP.asm
                  jUnpkB2   0x011702    program     static C:\Program Files\mcc18\src\traditional\math\UnpackFP.asm
           OLED_vSetKepad   0x01170c    program     extern D:\git\70M_Ku_Up\Drivers\External-Peripherals\oled_c1.c
              OLED_vSetIO   0x01171e    program     extern D:\git\70M_Ku_Up\Drivers\External-Peripherals\oled_c1.c
    OLED_vEnableInterrupt   0x011736    program     extern D:\git\70M_Ku_Up\Drivers\External-Peripherals\oled_c1.c
                CheckBusy   0x01174c    program     extern D:\git\70M_Ku_Up\Drivers\External-Peripherals\oled_c1.c
           ___do_lbl00006   0x011766    program     static                          
           ___do_lbl00004   0x011776    program     static                          
           ___do_lbl00005   0x01177a    program     static                          
       ___return_lbl00003   0x01177c    program     static                          
                 WriteIns   0x01178a    program     extern D:\git\70M_Ku_Up\Drivers\External-Peripherals\oled_c1.c
       ___return_lbl00007   0x0117ac    program     static                          
                WriteData   0x0117b8    program     extern D:\git\70M_Ku_Up\Drivers\External-Peripherals\oled_c1.c
       ___return_lbl00008   0x0117de    program     static                          
                 ReadData   0x0117ea    program     extern D:\git\70M_Ku_Up\Drivers\External-Peripherals\oled_c1.c
       ___return_lbl00009   0x011814    program     static                          
              WriteString   0x011822    program     extern D:\git\70M_Ku_Up\Drivers\External-Peripherals\oled_c1.c
           LCDWriteString   0x011852    program     extern D:\git\70M_Ku_Up\Drivers\External-Peripherals\oled_c1.c
          DRI_vPrintCGRAM   0x01188a    program     extern D:\git\70M_Ku_Up\Drivers\External-Peripherals\oled_c1.c
            DRI_vLCDClear   0x0118e0    program     extern D:\git\70M_Ku_Up\Drivers\External-Peripherals\oled_c1.c
       DRI_vLCDReturnhome   0x0118e4    program     extern D:\git\70M_Ku_Up\Drivers\External-Peripherals\oled_c1.c
        DRI_vLCDEntryMode   0x0118e8    program     extern D:\git\70M_Ku_Up\Drivers\External-Peripherals\oled_c1.c
          DRI_vLCDDisplay   0x0118ec    program     extern D:\git\70M_Ku_Up\Drivers\External-Peripherals\oled_c1.c
              Initial_LCD   0x011916    program     extern D:\git\70M_Ku_Up\Drivers\External-Peripherals\oled_c1.c
          PrintCompanyLCD   0x011936    program     extern D:\git\70M_Ku_Up\Drivers\External-Peripherals\oled_c1.c
        PrintLCDWholePage   0x011982    program     extern D:\git\70M_Ku_Up\Drivers\External-Peripherals\oled_c1.c
          ___for_lbl00050   0x0119a4    program     static                          
               __tmplbl_9   0x011a2e    program     static                          
               __tmplbl_8   0x011a36    program     static                          
           ___if_lbl00049   0x011a40    program     static                          
          ___for_lbl00046   0x011a40    program     static                          
          ___for_lbl00047   0x011a44    program     static                          
          ___for_lbl00055   0x011a50    program     static                          
              __tmplbl_11   0x011a78    program     static                          
              __tmplbl_10   0x011a80    program     static                          
          ___for_lbl00051   0x011a8a    program     static                          
           ___if_lbl00054   0x011a8a    program     static                          
          ___for_lbl00052   0x011a8e    program     static                          
       ___return_lbl00045   0x011ab2    program     static                          
           ___if_lbl00056   0x011ab2    program     static                          
       PrintBlinkMenuText   0x011ac4    program     extern D:\git\70M_Ku_Up\Drivers\External-Peripherals\oled_c1.c
            PrintNewValue   0x011b70    program     extern D:\git\70M_Ku_Up\Drivers\External-Peripherals\oled_c1.c
        PrintEditPosition   0x011b9a    program     extern D:\git\70M_Ku_Up\Drivers\External-Peripherals\oled_c1.c
            PrintBlinkLCD   0x011c0c    program     extern D:\git\70M_Ku_Up\Drivers\External-Peripherals\oled_c1.c
                   __pa_0   0x011c66    program     static D:\git\70M_Ku_Up\Drivers\External-Peripherals\oled_c1.c
                   __pa_1   0x011c72    program     static D:\git\70M_Ku_Up\Drivers\External-Peripherals\oled_c1.c
                   __pa_2   0x011c8c    program     static D:\git\70M_Ku_Up\Drivers\External-Peripherals\oled_c1.c
                   __pa_3   0x011ca0    program     static D:\git\70M_Ku_Up\Drivers\External-Peripherals\oled_c1.c
                   __pa_4   0x011ca4    program     static D:\git\70M_Ku_Up\Drivers\External-Peripherals\oled_c1.c
                   __pa_5   0x011cb0    program     static D:\git\70M_Ku_Up\Drivers\External-Peripherals\oled_c1.c
                   __pa_6   0x011cf2    program     static D:\git\70M_Ku_Up\Drivers\External-Peripherals\oled_c1.c
                   __pa_7   0x011d14    program     static D:\git\70M_Ku_Up\Drivers\External-Peripherals\oled_c1.c
                   __pa_8   0x011d40    program     static D:\git\70M_Ku_Up\Drivers\External-Peripherals\oled_c1.c
                   __pa_9   0x011d5a    program     static D:\git\70M_Ku_Up\Drivers\External-Peripherals\oled_c1.c
                  __pa_10   0x011d60    program     static D:\git\70M_Ku_Up\Drivers\External-Peripherals\oled_c1.c
                  __pa_11   0x011d7c    program     static D:\git\70M_Ku_Up\Drivers\External-Peripherals\oled_c1.c
                  __pa_12   0x011d8c    program     static D:\git\70M_Ku_Up\Drivers\External-Peripherals\oled_c1.c
                  __pa_13   0x011d90    program     static D:\git\70M_Ku_Up\Drivers\External-Peripherals\oled_c1.c
                  __pa_14   0x011d96    program     static D:\git\70M_Ku_Up\Drivers\External-Peripherals\oled_c1.c
                  __pa_15   0x011d9e    program     static D:\git\70M_Ku_Up\Drivers\External-Peripherals\oled_c1.c
                  __pa_16   0x011da8    program     static D:\git\70M_Ku_Up\Drivers\External-Peripherals\oled_c1.c
                  __pa_17   0x011db8    program     static D:\git\70M_Ku_Up\Drivers\External-Peripherals\oled_c1.c
                  __pa_18   0x011dc0    program     static D:\git\70M_Ku_Up\Drivers\External-Peripherals\oled_c1.c
                  __pa_19   0x011dd0    program     static D:\git\70M_Ku_Up\Drivers\External-Peripherals\oled_c1.c
                  __pa_20   0x011ddc    program     static D:\git\70M_Ku_Up\Drivers\External-Peripherals\oled_c1.c
                  __pa_21   0x011de4    program     static D:\git\70M_Ku_Up\Drivers\External-Peripherals\oled_c1.c
            HTTPNeedsAuth   0x011df0    program     extern D:\git\70M_Ku_Up\App\WebUI\HTTPApp.c
            HTTPCheckAuth   0x011e32    program     extern D:\git\70M_Ku_Up\App\WebUI\HTTPApp.c
           HTTPExecuteGet   0x011e7a    program     extern D:\git\70M_Ku_Up\App\WebUI\HTTPApp.c
          HTTPExecutePost   0x011e7e    program     extern D:\git\70M_Ku_Up\App\WebUI\HTTPApp.c
              HTTPPostlut   0x011efc    program     static D:\git\70M_Ku_Up\App\WebUI\HTTPApp.c
           HTTPPostConfig   0x011f94    program     static D:\git\70M_Ku_Up\App\WebUI\HTTPApp.c
                   __pa_0   0x0123ac    program     static D:\git\70M_Ku_Up\App\WebUI\HTTPApp.c
                   __pa_1   0x0123bc    program     static D:\git\70M_Ku_Up\App\WebUI\HTTPApp.c
                   __pa_2   0x0123c8    program     static D:\git\70M_Ku_Up\App\WebUI\HTTPApp.c
                   __pa_3   0x0123d6    program     static D:\git\70M_Ku_Up\App\WebUI\HTTPApp.c
                   __pa_4   0x0123f4    program     static D:\git\70M_Ku_Up\App\WebUI\HTTPApp.c
                   __pa_5   0x012400    program     static D:\git\70M_Ku_Up\App\WebUI\HTTPApp.c
                   __pa_6   0x012410    program     static D:\git\70M_Ku_Up\App\WebUI\HTTPApp.c
                   __pa_7   0x01241c    program     static D:\git\70M_Ku_Up\App\WebUI\HTTPApp.c
                   __pa_8   0x012428    program     static D:\git\70M_Ku_Up\App\WebUI\HTTPApp.c
                   __pa_9   0x012430    program     static D:\git\70M_Ku_Up\App\WebUI\HTTPApp.c
                  __pa_10   0x012434    program     static D:\git\70M_Ku_Up\App\WebUI\HTTPApp.c
                  __pa_11   0x012442    program     static D:\git\70M_Ku_Up\App\WebUI\HTTPApp.c
                  __pa_12   0x012448    program     static D:\git\70M_Ku_Up\App\WebUI\HTTPApp.c
                  __pa_13   0x012456    program     static D:\git\70M_Ku_Up\App\WebUI\HTTPApp.c
                  __pa_14   0x01245e    program     static D:\git\70M_Ku_Up\App\WebUI\HTTPApp.c
                  __pa_15   0x012466    program     static D:\git\70M_Ku_Up\App\WebUI\HTTPApp.c
                  __pa_16   0x01246e    program     static D:\git\70M_Ku_Up\App\WebUI\HTTPApp.c
                  __pa_17   0x01247c    program     static D:\git\70M_Ku_Up\App\WebUI\HTTPApp.c
                  __pa_18   0x012486    program     static D:\git\70M_Ku_Up\App\WebUI\HTTPApp.c
                  __pa_19   0x012490    program     static D:\git\70M_Ku_Up\App\WebUI\HTTPApp.c
                  __pa_20   0x01249a    program     static D:\git\70M_Ku_Up\App\WebUI\HTTPApp.c
                  __pa_21   0x0124aa    program     static D:\git\70M_Ku_Up\App\WebUI\HTTPApp.c
                  __pa_22   0x0124b6    program     static D:\git\70M_Ku_Up\App\WebUI\HTTPApp.c
                  __pa_23   0x0124c0    program     static D:\git\70M_Ku_Up\App\WebUI\HTTPApp.c
                  __pa_24   0x0124c6    program     static D:\git\70M_Ku_Up\App\WebUI\HTTPApp.c
       DownCvt_vPrintFreq   0x0124d2    program     extern D:\git\70M_Ku_Up\Devices\DownConverter_c1.c
      DownCvt_vPrintPower   0x0124ec    program     extern D:\git\70M_Ku_Up\Devices\DownConverter_c1.c
      DownCvt_vPrintStPwr   0x012506    program     extern D:\git\70M_Ku_Up\Devices\DownConverter_c1.c
         DownCvt_vPrintLo   0x012520    program     extern D:\git\70M_Ku_Up\Devices\DownConverter_c1.c
       DownCvt_vPrintAttn   0x012552    program     extern D:\git\70M_Ku_Up\Devices\DownConverter_c1.c
        DownCvt_vPrintALC   0x01256c    program     extern D:\git\70M_Ku_Up\Devices\DownConverter_c1.c
       DownCvt_vPrintMute   0x012586    program     extern D:\git\70M_Ku_Up\Devices\DownConverter_c1.c
         DownCvt_vSendI2C   0x0125ca    program     extern D:\git\70M_Ku_Up\Devices\DownConverter_c1.c
         DownCvt_vSetFreq   0x0125dc    program     extern D:\git\70M_Ku_Up\Devices\DownConverter_c1.c
         DownCvt_vSetAttn   0x01270e    program     extern D:\git\70M_Ku_Up\Devices\DownConverter_c1.c
        DownCvt_vSetPower   0x0127fe    program     extern D:\git\70M_Ku_Up\Devices\DownConverter_c1.c
        DownCvt_vSetStPwr   0x012800    program     extern D:\git\70M_Ku_Up\Devices\DownConverter_c1.c
          DownCvt_vSetALC   0x01293e    program     extern D:\git\70M_Ku_Up\Devices\DownConverter_c1.c
         DownCvt_vSetMute   0x012986    program     extern D:\git\70M_Ku_Up\Devices\DownConverter_c1.c
                   __pa_0   0x012a08    program     static D:\git\70M_Ku_Up\Devices\DownConverter_c1.c
                   __pa_1   0x012a14    program     static D:\git\70M_Ku_Up\Devices\DownConverter_c1.c
                   __pa_2   0x012a26    program     static D:\git\70M_Ku_Up\Devices\DownConverter_c1.c
                   __pa_3   0x012a2e    program     static D:\git\70M_Ku_Up\Devices\DownConverter_c1.c
                   __pa_4   0x012a3a    program     static D:\git\70M_Ku_Up\Devices\DownConverter_c1.c
                   __pa_5   0x012a50    program     static D:\git\70M_Ku_Up\Devices\DownConverter_c1.c
                   __pa_6   0x012a60    program     static D:\git\70M_Ku_Up\Devices\DownConverter_c1.c
                   __pa_7   0x012a6a    program     static D:\git\70M_Ku_Up\Devices\DownConverter_c1.c
                   __pa_8   0x012a74    program     static D:\git\70M_Ku_Up\Devices\DownConverter_c1.c
                   __pa_9   0x012a86    program     static D:\git\70M_Ku_Up\Devices\DownConverter_c1.c
                  __pa_10   0x012a94    program     static D:\git\70M_Ku_Up\Devices\DownConverter_c1.c
                  __pa_11   0x012a9c    program     static D:\git\70M_Ku_Up\Devices\DownConverter_c1.c
                  __pa_12   0x012aaa    program     static D:\git\70M_Ku_Up\Devices\DownConverter_c1.c
                  __pa_13   0x012abc    program     static D:\git\70M_Ku_Up\Devices\DownConverter_c1.c
                   ARPPut   0x012ac6    program     static D:\git\70M_Ku_Up\Microchip\TCPIP Stack\ARP.c
                  ARPInit   0x012b8e    program     extern D:\git\70M_Ku_Up\Microchip\TCPIP Stack\ARP.c
               ARPProcess   0x012ba6    program     extern D:\git\70M_Ku_Up\Microchip\TCPIP Stack\ARP.c
               ARPResolve   0x012d3c    program     extern D:\git\70M_Ku_Up\Microchip\TCPIP Stack\ARP.c
            ARPIsResolved   0x012de6    program     extern D:\git\70M_Ku_Up\Microchip\TCPIP Stack\ARP.c
            SwapARPPacket   0x012e88    program     extern D:\git\70M_Ku_Up\Microchip\TCPIP Stack\ARP.c
                   __pa_0   0x012eb0    program     static D:\git\70M_Ku_Up\Microchip\TCPIP Stack\ARP.c
                   __pa_1   0x012ebe    program     static D:\git\70M_Ku_Up\Microchip\TCPIP Stack\ARP.c
                   __pa_2   0x012eca    program     static D:\git\70M_Ku_Up\Microchip\TCPIP Stack\ARP.c
                   __pa_3   0x012ed6    program     static D:\git\70M_Ku_Up\Microchip\TCPIP Stack\ARP.c
                   __pa_4   0x012eea    program     static D:\git\70M_Ku_Up\Microchip\TCPIP Stack\ARP.c
                   __pa_5   0x012ef4    program     static D:\git\70M_Ku_Up\Microchip\TCPIP Stack\ARP.c
                   __pa_6   0x012f04    program     static D:\git\70M_Ku_Up\Microchip\TCPIP Stack\ARP.c
                   __pa_7   0x012f10    program     static D:\git\70M_Ku_Up\Microchip\TCPIP Stack\ARP.c
                   __pa_8   0x012f1e    program     static D:\git\70M_Ku_Up\Microchip\TCPIP Stack\ARP.c
                   __pa_9   0x012f2c    program     static D:\git\70M_Ku_Up\Microchip\TCPIP Stack\ARP.c
                  __pa_10   0x012f48    program     static D:\git\70M_Ku_Up\Microchip\TCPIP Stack\ARP.c
                  __pa_11   0x012f50    program     static D:\git\70M_Ku_Up\Microchip\TCPIP Stack\ARP.c
                   memchr   0x012f5a    program     extern C:\Program Files\mcc18\src\traditional\stdclib\memchr.asm
                    jLoop   0x012f66    program     static C:\Program Files\mcc18\src\traditional\stdclib\memchr.asm
              _2jContinue   0x012f72    program     static C:\Program Files\mcc18\src\traditional\stdclib\memchr.asm
                   _3jEnd   0x012f7c    program     static C:\Program Files\mcc18\src\traditional\stdclib\memchr.asm
                 jNoMatch   0x012f90    program     static C:\Program Files\mcc18\src\traditional\stdclib\memchr.asm
                     jEnd   0x012f94    program     static C:\Program Files\mcc18\src\traditional\stdclib\memchr.asm
            memcmppgm2ram   0x012f96    program     extern C:\Program Files\mcc18\src\traditional\stdclib\mcmpp2r.asm
                    jLoop   0x012fb4    program     static C:\Program Files\mcc18\src\traditional\stdclib\mcmpp2r.asm
              _3jContinue   0x012fc0    program     static C:\Program Files\mcc18\src\traditional\stdclib\mcmpp2r.asm
                   _4jEnd   0x012fca    program     static C:\Program Files\mcc18\src\traditional\stdclib\mcmpp2r.asm
                     jEnd   0x012fd2    program     static C:\Program Files\mcc18\src\traditional\stdclib\mcmpp2r.asm
                   memcpy   0x012fd4    program     extern C:\Program Files\mcc18\src\traditional\stdclib\memcpy.asm
                    jLoop   0x012ffc    program     static C:\Program Files\mcc18\src\traditional\stdclib\memcpy.asm
              _4jContinue   0x013008    program     static C:\Program Files\mcc18\src\traditional\stdclib\memcpy.asm
                   _5jEnd   0x013012    program     static C:\Program Files\mcc18\src\traditional\stdclib\memcpy.asm
                     jEnd   0x013018    program     static C:\Program Files\mcc18\src\traditional\stdclib\memcpy.asm
            memcpypgm2ram   0x01302a    program     extern C:\Program Files\mcc18\src\traditional\stdclib\mcpyp2r.asm
                    jLoop   0x013050    program     static C:\Program Files\mcc18\src\traditional\stdclib\mcpyp2r.asm
              _3jContinue   0x01305c    program     static C:\Program Files\mcc18\src\traditional\stdclib\mcpyp2r.asm
                   _4jEnd   0x013066    program     static C:\Program Files\mcc18\src\traditional\stdclib\mcpyp2r.asm
                     jEnd   0x01306e    program     static C:\Program Files\mcc18\src\traditional\stdclib\mcpyp2r.asm
                   memset   0x013070    program     extern C:\Program Files\mcc18\src\traditional\stdclib\memset.asm
                    jLoop   0x013084    program     static C:\Program Files\mcc18\src\traditional\stdclib\memset.asm
              _2jContinue   0x013090    program     static C:\Program Files\mcc18\src\traditional\stdclib\memset.asm
                   _3jEnd   0x01309a    program     static C:\Program Files\mcc18\src\traditional\stdclib\memset.asm
                     jEnd   0x0130a2    program     static C:\Program Files\mcc18\src\traditional\stdclib\memset.asm
                   strcat   0x0130a4    program     extern C:\Program Files\mcc18\src\traditional\stdclib\strcat.asm
                jNullLoop   0x0130cc    program     static C:\Program Files\mcc18\src\traditional\stdclib\strcat.asm
                    jLoop   0x0130d2    program     static C:\Program Files\mcc18\src\traditional\stdclib\strcat.asm
            strcatpgm2ram   0x0130ec    program     extern C:\Program Files\mcc18\src\traditional\stdclib\scatp2r.asm
                jNullLoop   0x013112    program     static C:\Program Files\mcc18\src\traditional\stdclib\scatp2r.asm
                    jLoop   0x013118    program     static C:\Program Files\mcc18\src\traditional\stdclib\scatp2r.asm
                     jEnd   0x013122    program     static C:\Program Files\mcc18\src\traditional\stdclib\scatp2r.asm
                   strchr   0x013124    program     extern C:\Program Files\mcc18\src\traditional\stdclib\strchr.asm
                    jLoop   0x013130    program     static C:\Program Files\mcc18\src\traditional\stdclib\strchr.asm
                   jMatch   0x013142    program     static C:\Program Files\mcc18\src\traditional\stdclib\strchr.asm
                     jEnd   0x01314a    program     static C:\Program Files\mcc18\src\traditional\stdclib\strchr.asm
                   strcmp   0x01314c    program     extern C:\Program Files\mcc18\src\traditional\stdclib\strcmp.asm
                    jLoop   0x01316c    program     static C:\Program Files\mcc18\src\traditional\stdclib\strcmp.asm
                     jEnd   0x013176    program     static C:\Program Files\mcc18\src\traditional\stdclib\strcmp.asm
            strcmppgm2ram   0x01318c    program     extern C:\Program Files\mcc18\src\traditional\stdclib\scmpp2r.asm
                    jLoop   0x0131aa    program     static C:\Program Files\mcc18\src\traditional\stdclib\scmpp2r.asm
                     jEnd   0x0131b6    program     static C:\Program Files\mcc18\src\traditional\stdclib\scmpp2r.asm
                   strcpy   0x0131b8    program     extern C:\Program Files\mcc18\src\traditional\stdclib\strcpy.asm
                    jLoop   0x0131e0    program     static C:\Program Files\mcc18\src\traditional\stdclib\strcpy.asm
            strcpypgm2ram   0x0131fa    program     extern C:\Program Files\mcc18\src\traditional\stdclib\scpyp2r.asm
                    jLoop   0x013220    program     static C:\Program Files\mcc18\src\traditional\stdclib\scpyp2r.asm
                     jEnd   0x01322a    program     static C:\Program Files\mcc18\src\traditional\stdclib\scpyp2r.asm
                   strlen   0x01322c    program     extern C:\Program Files\mcc18\src\traditional\stdclib\strlen.asm
                    jLoop   0x01323c    program     static C:\Program Files\mcc18\src\traditional\stdclib\strlen.asm
                     jEnd   0x013246    program     static C:\Program Files\mcc18\src\traditional\stdclib\strlen.asm
                strlenpgm   0x013248    program     extern C:\Program Files\mcc18\src\traditional\stdclib\slenpgm.asm
                    jLoop   0x013266    program     static C:\Program Files\mcc18\src\traditional\stdclib\slenpgm.asm
                   _2jEnd   0x01327c    program     static C:\Program Files\mcc18\src\traditional\stdclib\slenpgm.asm
                     jEnd   0x01327e    program     static C:\Program Files\mcc18\src\traditional\stdclib\slenpgm.asm
                  strncat   0x013292    program     extern C:\Program Files\mcc18\src\traditional\stdclib\strncat.asm
                jNullLoop   0x0132ba    program     static C:\Program Files\mcc18\src\traditional\stdclib\strncat.asm
                    jLoop   0x0132c0    program     static C:\Program Files\mcc18\src\traditional\stdclib\strncat.asm
              _4jContinue   0x0132cc    program     static C:\Program Files\mcc18\src\traditional\stdclib\strncat.asm
                   _5jEnd   0x0132d6    program     static C:\Program Files\mcc18\src\traditional\stdclib\strncat.asm
                    jTerm   0x0132e0    program     static C:\Program Files\mcc18\src\traditional\stdclib\strncat.asm
                     jEnd   0x0132e2    program     static C:\Program Files\mcc18\src\traditional\stdclib\strncat.asm
                  strncpy   0x0132f4    program     extern C:\Program Files\mcc18\src\traditional\stdclib\strncpy.asm
                    jLoop   0x01331c    program     static C:\Program Files\mcc18\src\traditional\stdclib\strncpy.asm
              _4jContinue   0x013328    program     static C:\Program Files\mcc18\src\traditional\stdclib\strncpy.asm
                   _5jEnd   0x013332    program     static C:\Program Files\mcc18\src\traditional\stdclib\strncpy.asm
                     jEnd   0x01333e    program     static C:\Program Files\mcc18\src\traditional\stdclib\strncpy.asm
           strncpypgm2ram   0x013350    program     extern C:\Program Files\mcc18\src\traditional\stdclib\sncpyp2r.asm
                    jLoop   0x013376    program     static C:\Program Files\mcc18\src\traditional\stdclib\sncpyp2r.asm
              _3jContinue   0x013382    program     static C:\Program Files\mcc18\src\traditional\stdclib\sncpyp2r.asm
                   _4jEnd   0x01338c    program     static C:\Program Files\mcc18\src\traditional\stdclib\sncpyp2r.asm
                     jEnd   0x01339a    program     static C:\Program Files\mcc18\src\traditional\stdclib\sncpyp2r.asm
                   strupr   0x01339c    program     extern C:\Program Files\mcc18\src\traditional\stdclib\strupr.asm
                    jLoop   0x0133b0    program     static C:\Program Files\mcc18\src\traditional\stdclib\strupr.asm
                    jSkip   0x0133c0    program     static C:\Program Files\mcc18\src\traditional\stdclib\strupr.asm
                     jEnd   0x0133c4    program     static C:\Program Files\mcc18\src\traditional\stdclib\strupr.asm
   Main_vPrintUpConverter   0x0133c6    program     extern D:\git\70M_Ku_Up\Devices\MainControl_c1.c
 Main_vPrintDownConverter   0x01342c    program     extern D:\git\70M_Ku_Up\Devices\MainControl_c1.c
       Main_vPrintVolCtrl   0x013492    program     extern D:\git\70M_Ku_Up\Devices\MainControl_c1.c
    Main_vPrintDeviceInfo   0x0134d6    program     extern D:\git\70M_Ku_Up\Devices\MainControl_c1.c
            Main_vPrintIP   0x0135c6    program     extern D:\git\70M_Ku_Up\Devices\MainControl_c1.c
       Main_vPrintModelNo   0x0135e0    program     extern D:\git\70M_Ku_Up\Devices\MainControl_c1.c
      Main_vPrintSerialNo   0x0135f0    program     extern D:\git\70M_Ku_Up\Devices\MainControl_c1.c
              Main_vSetIP   0x01360a    program     extern D:\git\70M_Ku_Up\Devices\MainControl_c1.c
              Main_vLEDLO   0x013670    program     extern D:\git\70M_Ku_Up\Devices\MainControl_c1.c
              Main_vLEDTX   0x013684    program     extern D:\git\70M_Ku_Up\Devices\MainControl_c1.c
              Main_vLEDRX   0x013698    program     extern D:\git\70M_Ku_Up\Devices\MainControl_c1.c
            Main_vLEDInit   0x0136ac    program     extern D:\git\70M_Ku_Up\Devices\MainControl_c1.c
                   __pa_0   0x0136b4    program     static D:\git\70M_Ku_Up\Devices\MainControl_c1.c
                   __pa_1   0x0136c0    program     static D:\git\70M_Ku_Up\Devices\MainControl_c1.c
                   __pa_2   0x0136cc    program     static D:\git\70M_Ku_Up\Devices\MainControl_c1.c
                   __pa_3   0x0136d8    program     static D:\git\70M_Ku_Up\Devices\MainControl_c1.c
                   __pa_4   0x0136e4    program     static D:\git\70M_Ku_Up\Devices\MainControl_c1.c
                   __pa_5   0x0136f0    program     static D:\git\70M_Ku_Up\Devices\MainControl_c1.c
                   __pa_6   0x0136fc    program     static D:\git\70M_Ku_Up\Devices\MainControl_c1.c
                   __pa_7   0x013708    program     static D:\git\70M_Ku_Up\Devices\MainControl_c1.c
                   __pa_8   0x013714    program     static D:\git\70M_Ku_Up\Devices\MainControl_c1.c
                   __pa_9   0x013720    program     static D:\git\70M_Ku_Up\Devices\MainControl_c1.c
                  __pa_10   0x01372a    program     static D:\git\70M_Ku_Up\Devices\MainControl_c1.c
                  __pa_11   0x013730    program     static D:\git\70M_Ku_Up\Devices\MainControl_c1.c
                  __pa_12   0x013736    program     static D:\git\70M_Ku_Up\Devices\MainControl_c1.c
                  __pa_13   0x013740    program     static D:\git\70M_Ku_Up\Devices\MainControl_c1.c
                  __pa_14   0x01374e    program     static D:\git\70M_Ku_Up\Devices\MainControl_c1.c
                  __pa_15   0x013754    program     static D:\git\70M_Ku_Up\Devices\MainControl_c1.c
                  __pa_16   0x01375e    program     static D:\git\70M_Ku_Up\Devices\MainControl_c1.c
                  __pa_17   0x013766    program     static D:\git\70M_Ku_Up\Devices\MainControl_c1.c
                  __pa_18   0x013778    program     static D:\git\70M_Ku_Up\Devices\MainControl_c1.c
                  __pa_19   0x01378a    program     static D:\git\70M_Ku_Up\Devices\MainControl_c1.c
                  __pa_20   0x01379a    program     static D:\git\70M_Ku_Up\Devices\MainControl_c1.c
                  __pa_21   0x0137a8    program     static D:\git\70M_Ku_Up\Devices\MainControl_c1.c
                  __pa_22   0x0137b6    program     static D:\git\70M_Ku_Up\Devices\MainControl_c1.c
                 InitData   0x0137bc    program     extern D:\git\70M_Ku_Up\Bootstrap\Initialization.c
          InitializeBoard   0x0138b4    program     extern D:\git\70M_Ku_Up\Bootstrap\Initialization.c
            InitAppConfig   0x0138fc    program     extern D:\git\70M_Ku_Up\Bootstrap\Initialization.c
          SetDefaultValue   0x0139b4    program     extern D:\git\70M_Ku_Up\Bootstrap\Initialization.c
                   __pa_0   0x013a36    program     static D:\git\70M_Ku_Up\Bootstrap\Initialization.c
                   __pa_1   0x013a56    program     static D:\git\70M_Ku_Up\Bootstrap\Initialization.c
                   __pa_2   0x013aae    program     static D:\git\70M_Ku_Up\Bootstrap\Initialization.c
                   __pa_3   0x013abe    program     static D:\git\70M_Ku_Up\Bootstrap\Initialization.c
                   __pa_4   0x013ae8    program     static D:\git\70M_Ku_Up\Bootstrap\Initialization.c
                   __pa_5   0x013af6    program     static D:\git\70M_Ku_Up\Bootstrap\Initialization.c
                   __pa_6   0x013b04    program     static D:\git\70M_Ku_Up\Bootstrap\Initialization.c
                   __pa_7   0x013b0e    program     static D:\git\70M_Ku_Up\Bootstrap\Initialization.c
                   __pa_8   0x013b1c    program     static D:\git\70M_Ku_Up\Bootstrap\Initialization.c
                   __pa_9   0x013b28    program     static D:\git\70M_Ku_Up\Bootstrap\Initialization.c
                  __pa_10   0x013b32    program     static D:\git\70M_Ku_Up\Bootstrap\Initialization.c
        VOLCTRL_vPrint18V   0x013b3e    program     extern D:\git\70M_Ku_Up\Devices\VOLDC_c1 .c
        VOLCTRL_vPrint24V   0x013b5a    program     extern D:\git\70M_Ku_Up\Devices\VOLDC_c1 .c
     VOLCTRL_vPrintLNBREF   0x013b76    program     extern D:\git\70M_Ku_Up\Devices\VOLDC_c1 .c
     VOLCTRL_vPrintBUCREF   0x013b92    program     extern D:\git\70M_Ku_Up\Devices\VOLDC_c1 .c
     VOLCTRL_vPrintEXTREF   0x013bae    program     extern D:\git\70M_Ku_Up\Devices\VOLDC_c1 .c
       VOLCTRL_vPrintBUCI   0x013be8    program     extern D:\git\70M_Ku_Up\Devices\VOLDC_c1 .c
       VOLCTRL_vPrintLNBI   0x013c1c    program     extern D:\git\70M_Ku_Up\Devices\VOLDC_c1 .c
     VOLCTRL_vPrintBUCAlm   0x013c50    program     extern D:\git\70M_Ku_Up\Devices\VOLDC_c1 .c
     VOLCTRL_vPrintLNBAlm   0x013c6c    program     extern D:\git\70M_Ku_Up\Devices\VOLDC_c1 .c
         VOLCTRL_vSendI2C   0x013c88    program     extern D:\git\70M_Ku_Up\Devices\VOLDC_c1 .c
          VOLCTRL_vSet18V   0x013c9e    program     extern D:\git\70M_Ku_Up\Devices\VOLDC_c1 .c
          VOLCTRL_vSet24V   0x013ccc    program     extern D:\git\70M_Ku_Up\Devices\VOLDC_c1 .c
       VOLCTRL_vSetLNBREF   0x013cfa    program     extern D:\git\70M_Ku_Up\Devices\VOLDC_c1 .c
       VOLCTRL_vSetBUCREF   0x013d28    program     extern D:\git\70M_Ku_Up\Devices\VOLDC_c1 .c
     VOLCTRL_vClearBUCAlm   0x013d56    program     extern D:\git\70M_Ku_Up\Devices\VOLDC_c1 .c
     VOLCTRL_vClearLNBAlm   0x013d76    program     extern D:\git\70M_Ku_Up\Devices\VOLDC_c1 .c
                   __pa_0   0x013d96    program     static D:\git\70M_Ku_Up\Devices\VOLDC_c1 .c
                   __pa_1   0x013dac    program     static D:\git\70M_Ku_Up\Devices\VOLDC_c1 .c
                   __pa_2   0x013db6    program     static D:\git\70M_Ku_Up\Devices\VOLDC_c1 .c
                   __pa_3   0x013dc4    program     static D:\git\70M_Ku_Up\Devices\VOLDC_c1 .c
                   __pa_4   0x013dd0    program     static D:\git\70M_Ku_Up\Devices\VOLDC_c1 .c
                   __pa_5   0x013ddc    program     static D:\git\70M_Ku_Up\Devices\VOLDC_c1 .c
                   __pa_6   0x013de6    program     static D:\git\70M_Ku_Up\Devices\VOLDC_c1 .c
                   __pa_7   0x013dec    program     static D:\git\70M_Ku_Up\Devices\VOLDC_c1 .c
                   __pa_8   0x013df4    program     static D:\git\70M_Ku_Up\Devices\VOLDC_c1 .c
                   __pa_9   0x013dfc    program     static D:\git\70M_Ku_Up\Devices\VOLDC_c1 .c
                  __pa_10   0x013e04    program     static D:\git\70M_Ku_Up\Devices\VOLDC_c1 .c
                  __pa_11   0x013e0c    program     static D:\git\70M_Ku_Up\Devices\VOLDC_c1 .c
                  __pa_12   0x013e16    program     static D:\git\70M_Ku_Up\Devices\VOLDC_c1 .c
                  __pa_13   0x013e28    program     static D:\git\70M_Ku_Up\Devices\VOLDC_c1 .c
                  __pa_14   0x013e40    program     static D:\git\70M_Ku_Up\Devices\VOLDC_c1 .c
                  __pa_15   0x013e54    program     static D:\git\70M_Ku_Up\Devices\VOLDC_c1 .c
                  __pa_16   0x013e5e    program     static D:\git\70M_Ku_Up\Devices\VOLDC_c1 .c
                  __pa_17   0x013e68    program     static D:\git\70M_Ku_Up\Devices\VOLDC_c1 .c
                  __pa_18   0x013e70    program     static D:\git\70M_Ku_Up\Devices\VOLDC_c1 .c
                  __pa_19   0x013e80    program     static D:\git\70M_Ku_Up\Devices\VOLDC_c1 .c
        DRI__vHitWatchDog   0x013e8c    program     static D:\git\70M_Ku_Up\Main\Main.c
       ___return_lbl00000   0x013e8e    program     static                          
    DRI__vEnableGlobalInt   0x013e90    program     static D:\git\70M_Ku_Up\Main\Main.c
          DRI__vConfigSPI   0x013e9a    program     static D:\git\70M_Ku_Up\Main\Main.c
         SYS__vStatusTask   0x013eaa    program     static D:\git\70M_Ku_Up\Main\Main.c
       SYS__vLcdBlinkTask   0x013ef4    program     static D:\git\70M_Ku_Up\Main\Main.c
      SYS__vLcdKeyPadTask   0x013f5a    program     static D:\git\70M_Ku_Up\Main\Main.c
   HTTP_vClearWebPassword   0x013fc0    program     static D:\git\70M_Ku_Up\Main\Main.c
          SYS__u8InitData   0x014016    program     static D:\git\70M_Ku_Up\Main\Main.c
                     main   0x0140ce    program     extern D:\git\70M_Ku_Up\Main\Main.c
              IPGetHeader   0x0141d2    program     extern D:\git\70M_Ku_Up\Microchip\TCPIP Stack\IP.c
              IPPutHeader   0x01430e    program     extern D:\git\70M_Ku_Up\Microchip\TCPIP Stack\IP.c
            IPSetRxBuffer   0x014414    program     extern D:\git\70M_Ku_Up\Microchip\TCPIP Stack\IP.c
             SwapIPHeader   0x014442    program     static D:\git\70M_Ku_Up\Microchip\TCPIP Stack\IP.c
                   __pa_0   0x014460    program     static D:\git\70M_Ku_Up\Microchip\TCPIP Stack\IP.c
                   __pa_1   0x014482    program     static D:\git\70M_Ku_Up\Microchip\TCPIP Stack\IP.c
                   __pa_2   0x01448e    program     static D:\git\70M_Ku_Up\Microchip\TCPIP Stack\IP.c
                   __pa_3   0x01449a    program     static D:\git\70M_Ku_Up\Microchip\TCPIP Stack\IP.c
                   __pa_4   0x0144a0    program     static D:\git\70M_Ku_Up\Microchip\TCPIP Stack\IP.c
                   __pa_5   0x0144b6    program     static D:\git\70M_Ku_Up\Microchip\TCPIP Stack\IP.c
                   __pa_6   0x0144c0    program     static D:\git\70M_Ku_Up\Microchip\TCPIP Stack\IP.c
                   __pa_7   0x0144ca    program     static D:\git\70M_Ku_Up\Microchip\TCPIP Stack\IP.c
                   __pa_8   0x0144d8    program     static D:\git\70M_Ku_Up\Microchip\TCPIP Stack\IP.c
                   __pa_9   0x0144e6    program     static D:\git\70M_Ku_Up\Microchip\TCPIP Stack\IP.c
                  __pa_10   0x0144f6    program     static D:\git\70M_Ku_Up\Microchip\TCPIP Stack\IP.c
                 I2C_Send   0x014500    program     extern D:\git\70M_Ku_Up\Drivers\MCU-Internal\i2c_c1.c
                 I2C_Read   0x01452c    program     extern D:\git\70M_Ku_Up\Drivers\MCU-Internal\i2c_c1.c
              i2csendbyte   0x014568    program     extern D:\git\70M_Ku_Up\Drivers\MCU-Internal\i2c_c1.c
               i2cgetbyte   0x01459a    program     extern D:\git\70M_Ku_Up\Drivers\MCU-Internal\i2c_c1.c
                 i2cstart   0x0145d2    program     extern D:\git\70M_Ku_Up\Drivers\MCU-Internal\i2c_c1.c
                  i2cstop   0x0145e6    program     extern D:\git\70M_Ku_Up\Drivers\MCU-Internal\i2c_c1.c
                 i2cclock   0x0145f8    program     extern D:\git\70M_Ku_Up\Drivers\MCU-Internal\i2c_c1.c
               i2creadbit   0x014604    program     extern D:\git\70M_Ku_Up\Drivers\MCU-Internal\i2c_c1.c
                i2cgetack   0x014624    program     extern D:\git\70M_Ku_Up\Drivers\MCU-Internal\i2c_c1.c
               i2csendack   0x01463e    program     extern D:\git\70M_Ku_Up\Drivers\MCU-Internal\i2c_c1.c
              i2csendnack   0x014642    program     extern D:\git\70M_Ku_Up\Drivers\MCU-Internal\i2c_c1.c
                 i2cdelay   0x014646    program     extern D:\git\70M_Ku_Up\Drivers\MCU-Internal\i2c_c1.c
                   SetI2C   0x01468e    program     extern D:\git\70M_Ku_Up\Drivers\MCU-Internal\i2c_c1.c
                   __pa_0   0x014754    program     static D:\git\70M_Ku_Up\Drivers\MCU-Internal\i2c_c1.c
                   __pa_1   0x01475c    program     static D:\git\70M_Ku_Up\Drivers\MCU-Internal\i2c_c1.c
                   __pa_2   0x01477c    program     static D:\git\70M_Ku_Up\Drivers\MCU-Internal\i2c_c1.c
                   __pa_3   0x01478e    program     static D:\git\70M_Ku_Up\Drivers\MCU-Internal\i2c_c1.c
                   __pa_4   0x0147a8    program     static D:\git\70M_Ku_Up\Drivers\MCU-Internal\i2c_c1.c
                   __pa_5   0x0147b4    program     static D:\git\70M_Ku_Up\Drivers\MCU-Internal\i2c_c1.c
                   __pa_6   0x0147c0    program     static D:\git\70M_Ku_Up\Drivers\MCU-Internal\i2c_c1.c
                   __pa_7   0x0147ca    program     static D:\git\70M_Ku_Up\Drivers\MCU-Internal\i2c_c1.c
                   __pa_8   0x0147d8    program     static D:\git\70M_Ku_Up\Drivers\MCU-Internal\i2c_c1.c
                   __pa_9   0x0147e6    program     static D:\git\70M_Ku_Up\Drivers\MCU-Internal\i2c_c1.c
                  __pa_10   0x0147f0    program     static D:\git\70M_Ku_Up\Drivers\MCU-Internal\i2c_c1.c
                  __pa_11   0x014800    program     static D:\git\70M_Ku_Up\Drivers\MCU-Internal\i2c_c1.c
                  __pa_12   0x01480e    program     static D:\git\70M_Ku_Up\Drivers\MCU-Internal\i2c_c1.c
                  __pa_13   0x014818    program     static D:\git\70M_Ku_Up\Drivers\MCU-Internal\i2c_c1.c
                  XEEInit   0x01481e    program     extern D:\git\70M_Ku_Up\Microchip\TCPIP Stack\SPIEEPROM.c
             XEEBeginRead   0x014834    program     extern D:\git\70M_Ku_Up\Microchip\TCPIP Stack\SPIEEPROM.c
                  XEERead   0x014840    program     extern D:\git\70M_Ku_Up\Microchip\TCPIP Stack\SPIEEPROM.c
               XEEEndRead   0x014896    program     extern D:\git\70M_Ku_Up\Microchip\TCPIP Stack\SPIEEPROM.c
             XEEReadArray   0x014898    program     extern D:\git\70M_Ku_Up\Microchip\TCPIP Stack\SPIEEPROM.c
            XEEBeginWrite   0x01492c    program     extern D:\git\70M_Ku_Up\Microchip\TCPIP Stack\SPIEEPROM.c
                 XEEWrite   0x014938    program     extern D:\git\70M_Ku_Up\Microchip\TCPIP Stack\SPIEEPROM.c
            XEEWriteArray   0x014966    program     extern D:\git\70M_Ku_Up\Microchip\TCPIP Stack\SPIEEPROM.c
              XEEEndWrite   0x0149a0    program     extern D:\git\70M_Ku_Up\Microchip\TCPIP Stack\SPIEEPROM.c
                  DoWrite   0x0149aa    program     static D:\git\70M_Ku_Up\Microchip\TCPIP Stack\SPIEEPROM.c
                XEEIsBusy   0x014a52    program     extern D:\git\70M_Ku_Up\Microchip\TCPIP Stack\SPIEEPROM.c
                   __pa_0   0x014a90    program     static D:\git\70M_Ku_Up\Microchip\TCPIP Stack\SPIEEPROM.c
                   __pa_1   0x014aa2    program     static D:\git\70M_Ku_Up\Microchip\TCPIP Stack\SPIEEPROM.c
                   __pa_2   0x014aae    program     static D:\git\70M_Ku_Up\Microchip\TCPIP Stack\SPIEEPROM.c
                   __pa_3   0x014ac8    program     static D:\git\70M_Ku_Up\Microchip\TCPIP Stack\SPIEEPROM.c
                   __pa_4   0x014ad8    program     static D:\git\70M_Ku_Up\Microchip\TCPIP Stack\SPIEEPROM.c
                   __pa_5   0x014ae2    program     static D:\git\70M_Ku_Up\Microchip\TCPIP Stack\SPIEEPROM.c
                   __pa_6   0x014af4    program     static D:\git\70M_Ku_Up\Microchip\TCPIP Stack\SPIEEPROM.c
                   __pa_7   0x014b00    program     static D:\git\70M_Ku_Up\Microchip\TCPIP Stack\SPIEEPROM.c
                   __pa_8   0x014b10    program     static D:\git\70M_Ku_Up\Microchip\TCPIP Stack\SPIEEPROM.c
                  AD_init   0x014b18    program     extern D:\git\70M_Ku_Up\Drivers\MCU-Internal\internalADC.c
                 Read_ADC   0x014b4a    program     extern D:\git\70M_Ku_Up\Drivers\MCU-Internal\internalADC.c
        ___while_lbl00002   0x014c08    program     static                          
        ___while_lbl00003   0x014c10    program     static                          
       ___return_lbl00001   0x014c24    program     static                          
                ADC_Value   0x014c30    program     extern D:\git\70M_Ku_Up\Drivers\MCU-Internal\internalADC.c
       ___return_lbl00004   0x014cfc    program     static                          
                GetOneADC   0x014d14    program     extern D:\git\70M_Ku_Up\Drivers\MCU-Internal\internalADC.c
                StackInit   0x014d6a    program     extern D:\git\70M_Ku_Up\Microchip\TCPIP Stack\StackTsk.c
                StackTask   0x014d9a    program     extern D:\git\70M_Ku_Up\Microchip\TCPIP Stack\StackTsk.c
        StackApplications   0x014f26    program     extern D:\git\70M_Ku_Up\Microchip\TCPIP Stack\StackTsk.c
                   __pa_0   0x014f2a    program     static D:\git\70M_Ku_Up\Microchip\TCPIP Stack\StackTsk.c
                   __pa_1   0x014f38    program     static D:\git\70M_Ku_Up\Microchip\TCPIP Stack\StackTsk.c
                   __pa_2   0x014f44    program     static D:\git\70M_Ku_Up\Microchip\TCPIP Stack\StackTsk.c
             GetOneCHADC0   0x014f4e    program     extern D:\git\70M_Ku_Up\Drivers\External-Peripherals\devadc.c
       GetOneCHADC012Bits   0x014f84    program     extern D:\git\70M_Ku_Up\Drivers\External-Peripherals\devadc.c
             GetOneCHADC1   0x014fa2    program     extern D:\git\70M_Ku_Up\Drivers\External-Peripherals\devadc.c
       GetOneCHADC112Bits   0x014fd8    program     extern D:\git\70M_Ku_Up\Drivers\External-Peripherals\devadc.c
   GetCurrentFromHexValue   0x014ff4    program     extern D:\git\70M_Ku_Up\Drivers\External-Peripherals\devadc.c
                   __pa_0   0x015066    program     static D:\git\70M_Ku_Up\Drivers\External-Peripherals\devadc.c
                   __pa_1   0x0150ac    program     static D:\git\70M_Ku_Up\Drivers\External-Peripherals\devadc.c
                   __pa_2   0x0150b4    program     static D:\git\70M_Ku_Up\Drivers\External-Peripherals\devadc.c
                   __pa_3   0x0150c0    program     static D:\git\70M_Ku_Up\Drivers\External-Peripherals\devadc.c
                   __pa_4   0x0150da    program     static D:\git\70M_Ku_Up\Drivers\External-Peripherals\devadc.c
                   __pa_5   0x0150e8    program     static D:\git\70M_Ku_Up\Drivers\External-Peripherals\devadc.c
                   __pa_6   0x0150fa    program     static D:\git\70M_Ku_Up\Drivers\External-Peripherals\devadc.c
                   __pa_7   0x01510c    program     static D:\git\70M_Ku_Up\Drivers\External-Peripherals\devadc.c
                   __pa_8   0x01511e    program     static D:\git\70M_Ku_Up\Drivers\External-Peripherals\devadc.c
                   LowISR   0x01512c    program     extern D:\git\70M_Ku_Up\Drivers\MCU-Internal\ISR.c
                  HighISR   0x015216    program     extern D:\git\70M_Ku_Up\Drivers\MCU-Internal\ISR.c
                   __pa_0   0x015266    program     static D:\git\70M_Ku_Up\Drivers\MCU-Internal\ISR.c
                   __pa_1   0x015290    program     static D:\git\70M_Ku_Up\Drivers\MCU-Internal\ISR.c
                   __pa_2   0x0152ba    program     static D:\git\70M_Ku_Up\Drivers\MCU-Internal\ISR.c
                   __pa_3   0x0152d2    program     static D:\git\70M_Ku_Up\Drivers\MCU-Internal\ISR.c
                     atol   0x0152e4    program     extern C:\Program Files\mcc18\src\traditional\stdclib\atol.asm
                  jSkipWS   0x01531a    program     static C:\Program Files\mcc18\src\traditional\stdclib\atol.asm
                 jSkipWS1   0x01532c    program     static C:\Program Files\mcc18\src\traditional\stdclib\atol.asm
                 jTstSign   0x015330    program     static C:\Program Files\mcc18\src\traditional\stdclib\atol.asm
                jTstSign1   0x01533c    program     static C:\Program Files\mcc18\src\traditional\stdclib\atol.asm
                jTstSign2   0x015342    program     static C:\Program Files\mcc18\src\traditional\stdclib\atol.asm
                    jLoop   0x015344    program     static C:\Program Files\mcc18\src\traditional\stdclib\atol.asm
                jTstSign3   0x015344    program     static C:\Program Files\mcc18\src\traditional\stdclib\atol.asm
                 jEndLoop   0x0153d2    program     static C:\Program Files\mcc18\src\traditional\stdclib\atol.asm
                     jEnd   0x015402    program     static C:\Program Files\mcc18\src\traditional\stdclib\atol.asm
                  _14jEnd   0x015402    program     static C:\Program Files\mcc18\src\traditional\stdclib\atol.asm
                    srand   0x01543a    program     extern C:\Program Files\mcc18\src\traditional\stdclib\rand.asm
                     rand   0x015448    program     extern C:\Program Files\mcc18\src\traditional\stdclib\rand.asm
              ICMPProcess   0x015476    program     extern D:\git\70M_Ku_Up\Microchip\TCPIP Stack\ICMP.c
                   __pa_0   0x015598    program     static D:\git\70M_Ku_Up\Microchip\TCPIP Stack\ICMP.c
                   __pa_1   0x0155a8    program     static D:\git\70M_Ku_Up\Microchip\TCPIP Stack\ICMP.c
                   __pa_2   0x0155b6    program     static D:\git\70M_Ku_Up\Microchip\TCPIP Stack\ICMP.c
                 TickInit   0x0155c0    program     extern D:\git\70M_Ku_Up\Microchip\TCPIP Stack\Tick.c
              GetTickCopy   0x0155d0    program     static D:\git\70M_Ku_Up\Microchip\TCPIP Stack\Tick.c
           ___do_lbl00004   0x0155d0    program     static                          
           ___do_lbl00002   0x0155ee    program     static                          
           ___do_lbl00003   0x0155f2    program     static                          
       ___return_lbl00001   0x0155f4    program     static                          
                  TickGet   0x0155f6    program     extern D:\git\70M_Ku_Up\Microchip\TCPIP Stack\Tick.c
            TickGetDiv256   0x01560a    program     extern D:\git\70M_Ku_Up\Microchip\TCPIP Stack\Tick.c
            TickGetDiv64K   0x01562e    program     extern D:\git\70M_Ku_Up\Microchip\TCPIP Stack\Tick.c
TickConvertToMilliseconds   0x015652    program     extern D:\git\70M_Ku_Up\Microchip\TCPIP Stack\Tick.c
               TickUpdate   0x015688    program     extern D:\git\70M_Ku_Up\Microchip\TCPIP Stack\Tick.c
                   __pa_0   0x01569c    program     static D:\git\70M_Ku_Up\Microchip\TCPIP Stack\Tick.c
                   __pa_1   0x0156aa    program     static D:\git\70M_Ku_Up\Microchip\TCPIP Stack\Tick.c
                   __pa_2   0x0156c4    program     static D:\git\70M_Ku_Up\Microchip\TCPIP Stack\Tick.c
                   __pa_3   0x0156d0    program     static D:\git\70M_Ku_Up\Microchip\TCPIP Stack\Tick.c
                BusyUSART   0x0156e2    program     extern D:\git\70M_Ku_Up\Microchip\TCPIP Stack\UART.c
               CloseUSART   0x0156ee    program     extern D:\git\70M_Ku_Up\Microchip\TCPIP Stack\UART.c
             DataRdyUSART   0x0156fa    program     extern D:\git\70M_Ku_Up\Microchip\TCPIP Stack\UART.c
                ReadUSART   0x01570c    program     extern D:\git\70M_Ku_Up\Microchip\TCPIP Stack\UART.c
               WriteUSART   0x015710    program     extern D:\git\70M_Ku_Up\Microchip\TCPIP Stack\UART.c
                putsUSART   0x01571a    program     extern D:\git\70M_Ku_Up\Microchip\TCPIP Stack\UART.c
               ReadUSART2   0x015736    program     extern D:\git\70M_Ku_Up\Microchip\TCPIP Stack\UART.c
               BusyUSART2   0x01573a    program     extern D:\git\70M_Ku_Up\Microchip\TCPIP Stack\UART.c
              CloseUSART2   0x015746    program     extern D:\git\70M_Ku_Up\Microchip\TCPIP Stack\UART.c
            DataRdyUSART2   0x015752    program     extern D:\git\70M_Ku_Up\Microchip\TCPIP Stack\UART.c
              WriteUSART2   0x015764    program     extern D:\git\70M_Ku_Up\Microchip\TCPIP Stack\UART.c
               putsUSART2   0x01576e    program     extern D:\git\70M_Ku_Up\Microchip\TCPIP Stack\UART.c
                   __pa_0   0x01578a    program     static D:\git\70M_Ku_Up\Microchip\TCPIP Stack\UART.c
                   __pa_1   0x01579c    program     static D:\git\70M_Ku_Up\Microchip\TCPIP Stack\UART.c
                   __pa_2   0x0157a8    program     static D:\git\70M_Ku_Up\Microchip\TCPIP Stack\UART.c
                   __pa_3   0x0157b8    program     static D:\git\70M_Ku_Up\Microchip\TCPIP Stack\UART.c
                  sprintf   0x0157c8    program     extern C:\Program Files\mcc18\src\traditional\stdclib\sprintf.c
                _do_cinit   0x015874    program     extern C:\Program Files\mcc18\src\traditional\startup\c018iz.c
                     test   0x01588e    program     static                          
                copy_loop   0x0158e6    program     static                          
            copy_one_byte   0x0158ec    program     static                          
             done_copying   0x0158fa    program     static                          
       ___return_lbl00002   0x015910    program     static                          
                     done   0x015910    program     static                          
                  SPIInit   0x015912    program     extern D:\git\70M_Ku_Up\Drivers\MCU-Internal\devspi.c
            ReadWriteSPI2   0x01592a    program     extern D:\git\70M_Ku_Up\Drivers\MCU-Internal\devspi.c
                     putc   0x015998    program     extern C:\Program Files\mcc18\src\traditional\stdclib\putc.c
                HTTP_CRLF   0x015a1c    program     static D:\git\70M_Ku_Up\Microchip\TCPIP Stack\HTTP2.c
       httpFileExtensions   0x015a1f    program     static D:\git\70M_Ku_Up\Microchip\TCPIP Stack\HTTP2.c
         httpContentTypes   0x015a43    program     static D:\git\70M_Ku_Up\Microchip\TCPIP Stack\HTTP2.c
      HTTPResponseHeaders   0x015a67    program     static D:\git\70M_Ku_Up\Microchip\TCPIP Stack\HTTP2.c
       HTTPRequestHeaders   0x015a91    program     static D:\git\70M_Ku_Up\Microchip\TCPIP Stack\HTTP2.c
                  FXM3232   0x015a9a    program     extern C:\Program Files\mcc18\src\traditional\math\fxm3232.c
       ___return_lbl00000   0x015b08    program     static                          
                  OpenADC   0x015b0a    program     extern C:\MCC18\src\pmc_common\ADC\adcopen.c
                 FXD3232U   0x015b78    program     extern C:\Program Files\mcc18\src\traditional\math\fxd3232u.c
                     loop   0x015b86    program     static                          
                   _false   0x015bba    program     static                          
       ___return_lbl00000   0x015bbe    program     static                          
                 FXD1616U   0x015bc0    program     extern C:\Program Files\mcc18\src\traditional\math\fxd1616u.c
                     loop   0x015bca    program     static                          
                  endloop   0x015be6    program     static                          
       ___return_lbl00000   0x015bea    program     static                          
                  isdigit   0x015bec    program     extern C:\Program Files\mcc18\src\traditional\stdclib\isdigit.asm
                   jMatch   0x015c0c    program     static C:\Program Files\mcc18\src\traditional\stdclib\isdigit.asm
                 jNoMatch   0x015c0e    program     static C:\Program Files\mcc18\src\traditional\stdclib\isdigit.asm
     TCPSocketInitializer   0x015c10    program     extern D:\git\70M_Ku_Up\Port\TCPIPConfig.h
                 _startup   0x015c34    program     extern C:\Program Files\mcc18\src\traditional\startup\c018iz.c
                     loop   0x015c48    program     static                          
       ___return_lbl00001   0x015c52    program     static                          
              Delay1KTCYx   0x015c54    program     extern C:\Program Files\mcc18\src\traditional\delays\d1ktcyx.asm
                     D1Kx   0x015c5e    program     static C:\Program Files\mcc18\src\traditional\delays\d1ktcyx.asm
                    D1K_1   0x015c60    program     static C:\Program Files\mcc18\src\traditional\delays\d1ktcyx.asm
        _D1KTCYXCODE_0010   0x015c64    program     static C:\Program Files\mcc18\src\traditional\delays\d1ktcyx.asm
        _D1KTCYXCODE_0016   0x015c6a    program     static C:\Program Files\mcc18\src\traditional\delays\d1ktcyx.asm
                 UART2ISR   0x015c74    program     extern D:\git\70M_Ku_Up\Microchip\TCPIP Stack\UART2TCPBridge.c
              _usart_putc   0x015c92    program     extern C:\MCC18\src\pmc_common\USART\_usartpc.asm
                     loop   0x015ca2    program     static C:\MCC18\src\pmc_common\USART\_usartpc.asm
                 FXD0808U   0x015cae    program     extern C:\Program Files\mcc18\src\traditional\math\fxd0808u.c
                     loop   0x015cb6    program     static                          
                  endloop   0x015cc4    program     static                          
       ___return_lbl00000   0x015cc8    program     static                          
              Delay10TCYx   0x015cca    program     extern C:\Program Files\mcc18\src\traditional\delays\d10tcyx.asm
                     D10x   0x015cd2    program     static C:\Program Files\mcc18\src\traditional\delays\d10tcyx.asm
        _D10TCYXCODE_000A   0x015cd4    program     static C:\Program Files\mcc18\src\traditional\delays\d10tcyx.asm
        _D10TCYXCODE_000C   0x015cd6    program     static C:\Program Files\mcc18\src\traditional\delays\d10tcyx.asm
        _D10TCYXCODE_000E   0x015cd8    program     static C:\Program Files\mcc18\src\traditional\delays\d10tcyx.asm
                    D10_1   0x015cda    program     static C:\Program Files\mcc18\src\traditional\delays\d10tcyx.asm
                 s_digits   0x015ce0    program     static C:\Program Files\mcc18\src\traditional\stdclib\vfprintf.c
                    CGRAM   0x015cf1    program     extern D:\git\70M_Ku_Up\Drivers\External-Peripherals\oled_c1.c
            __zero_memory   0x015d02    program     extern C:\MCC18\src\traditional\proc\p18F97J60.asm
               clear_loop   0x015d08    program     static C:\MCC18\src\traditional\proc\p18F97J60.asm
     SerializedMACAddress   0x015d10    program     static D:\git\70M_Ku_Up\Bootstrap\Initialization.c
                 CloseADC   0x015d16    program     extern C:\MCC18\src\pmc_common\ADC\adcclose.c
               _user_putc   0x015d1c    program     extern C:\Program Files\mcc18\src\traditional\stdclib\_user_putc.c
                   __init   0x015d1e    program     extern C:\Program Files\mcc18\src\traditional\stdclib\__init.c
               __config_0   0x01fff8    program     static D:\git\70M_Ku_Up\Main\Main.c
               __config_1   0x01fffa    program     static D:\git\70M_Ku_Up\Main\Main.c
               __config_2   0x01fffd    program     static D:\git\70M_Ku_Up\Main\Main.c
                     SIGN   0x000000       data     extern C:\Program Files\mcc18\src\traditional\math\cmath18.asm
                __FPFLAGS   0x000001       data     extern C:\Program Files\mcc18\src\traditional\math\cmath18.asm
            __FPFLAGSbits   0x000001       data     extern C:\Program Files\mcc18\src\traditional\math\cmath18.asm
                 __AARGB7   0x000002       data     extern C:\Program Files\mcc18\src\traditional\math\aarg.asm
                  __REMB3   0x000002       data     extern C:\Program Files\mcc18\src\traditional\math\aarg.asm
                  __REMB2   0x000003       data     extern C:\Program Files\mcc18\src\traditional\math\aarg.asm
                 __AARGB6   0x000003       data     extern C:\Program Files\mcc18\src\traditional\math\aarg.asm
                 __AARGB5   0x000004       data     extern C:\Program Files\mcc18\src\traditional\math\aarg.asm
                  __REMB1   0x000004       data     extern C:\Program Files\mcc18\src\traditional\math\aarg.asm
                  __REMB0   0x000005       data     extern C:\Program Files\mcc18\src\traditional\math\aarg.asm
                 __AARGB4   0x000005       data     extern C:\Program Files\mcc18\src\traditional\math\aarg.asm
                 __AARGB3   0x000006       data     extern C:\Program Files\mcc18\src\traditional\math\aarg.asm
                 __AARGB2   0x000007       data     extern C:\Program Files\mcc18\src\traditional\math\aarg.asm
                 __AARGB1   0x000008       data     extern C:\Program Files\mcc18\src\traditional\math\aarg.asm
                 __AARGB0   0x000009       data     extern C:\Program Files\mcc18\src\traditional\math\aarg.asm
                   __AEXP   0x00000a       data     extern C:\Program Files\mcc18\src\traditional\math\aarg.asm
                 __BARGB3   0x00000b       data     extern C:\Program Files\mcc18\src\traditional\math\barg.asm
                 __BARGB2   0x00000c       data     extern C:\Program Files\mcc18\src\traditional\math\barg.asm
                 __BARGB1   0x00000d       data     extern C:\Program Files\mcc18\src\traditional\math\barg.asm
                 __BARGB0   0x00000e       data     extern C:\Program Files\mcc18\src\traditional\math\barg.asm
                   __BEXP   0x00000f       data     extern C:\Program Files\mcc18\src\traditional\math\barg.asm
                 __TEMPB3   0x000010       data     extern C:\Program Files\mcc18\src\traditional\math\temparg.asm
                 __TEMPB2   0x000011       data     extern C:\Program Files\mcc18\src\traditional\math\temparg.asm
                 __TEMPB1   0x000012       data     extern C:\Program Files\mcc18\src\traditional\math\temparg.asm
                   __TEMP   0x000013       data     extern C:\Program Files\mcc18\src\traditional\math\temparg.asm
                 __TEMPB0   0x000013       data     extern C:\Program Files\mcc18\src\traditional\math\temparg.asm
                  __tmp_0   0x000014       data     static D:\git\70M_Ku_Up\Microchip\TCPIP Stack\Helpers.c
                  __tmp_0   0x000014       data     static D:\git\70M_Ku_Up\Microchip\TCPIP Stack\IP.c
                  __tmp_0   0x000014       data     static D:\git\70M_Ku_Up\Drivers\External-Peripherals\oled_c1.c
                  __tmp_0   0x000014       data     static C:\Program Files\mcc18\src\traditional\stdclib\putc.c
                  __tmp_0   0x000014       data     static D:\git\70M_Ku_Up\App\WebUI\HTTPPrint.c
                  __tmp_0   0x000014       data     static D:\git\70M_Ku_Up\App\WebUI\HTTPGetDevInfo.c
                  __tmp_0   0x000014       data     static D:\git\70M_Ku_Up\Main\Main.c
                  __tmp_0   0x000014       data     static D:\git\70M_Ku_Up\Drivers\External-Peripherals\oled_c2.c
                  __tmp_0   0x000014       data     static D:\git\70M_Ku_Up\Bootstrap\Initialization.c
                  __tmp_0   0x000014       data     static D:\git\70M_Ku_Up\Microchip\TCPIP Stack\StackTsk.c
                  __tmp_0   0x000014       data     static D:\git\70M_Ku_Up\Microchip\TCPIP Stack\TCP.c
                  __tmp_0   0x000014       data     static D:\git\70M_Ku_Up\Microchip\TCPIP Stack\ARP.c
                  __tmp_0   0x000014       data     static D:\git\70M_Ku_Up\Microchip\TCPIP Stack\ETH97J60.c
                  __tmp_0   0x000014       data     static D:\git\70M_Ku_Up\Drivers\MCU-Internal\i2c_c1.c
                  __tmp_0   0x000014       data     static D:\git\70M_Ku_Up\Devices\VOLDC_c1 .c
                  __tmp_0   0x000014       data     static D:\git\70M_Ku_Up\Devices\UpConverter_c1.c
                  __tmp_0   0x000014       data     static D:\git\70M_Ku_Up\Devices\MainControl_c1.c
                  __tmp_0   0x000014       data     static D:\git\70M_Ku_Up\Devices\DownConverter_c1.c
                  __tmp_0   0x000014       data     static D:\git\70M_Ku_Up\App\WebUI\HTTPApp.c
                  __tmp_0   0x000014       data     static D:\git\70M_Ku_Up\SysLib\util.c
                  __tmp_0   0x000014       data     static C:\Program Files\mcc18\src\traditional\stdclib\sprintf.c
                  __tmp_0   0x000014       data     static D:\git\70M_Ku_Up\Drivers\MCU-Internal\internalADC.c
                  __tmp_0   0x000014       data     static C:\MCC18\src\pmc_common\ADC\adcopen.c
                  __tmp_0   0x000014       data     static D:\git\70M_Ku_Up\Drivers\External-Peripherals\devadc.c
                  __tmp_0   0x000014       data     static D:\git\70M_Ku_Up\Drivers\MCU-Internal\devspi.c
                  __tmp_0   0x000014       data     static D:\git\70M_Ku_Up\Microchip\TCPIP Stack\SPIEEPROM.c
                  __tmp_0   0x000014       data     static D:\git\70M_Ku_Up\Microchip\TCPIP Stack\ICMP.c
                  __tmp_0   0x000014       data     static D:\git\70M_Ku_Up\Microchip\TCPIP Stack\MPFS2.c
                  __tmp_0   0x000014       data     static D:\git\70M_Ku_Up\Microchip\TCPIP Stack\HTTP2.c
                  __tmp_0   0x000014       data     static C:\Program Files\mcc18\src\traditional\stdclib\vfprintf.c
            DelayCounter1   0x000025       data     extern C:\Program Files\mcc18\src\traditional\delays\delayd1.asm
           LCDPrintBuffer   0x000060       data     extern D:\git\70M_Ku_Up\Drivers\External-Peripherals\oled_c2.c
              systeminfo1   0x0000b0       data     extern D:\git\70M_Ku_Up\Main\Main.c
         I2CReceiveBuffer   0x0000f0       data     extern D:\git\70M_Ku_Up\Drivers\MCU-Internal\i2c_c1.c
          LOStatusString1   0x000100       data     extern D:\git\70M_Ku_Up\Drivers\External-Peripherals\oled_c2.c
          LOStatusString2   0x000109       data     extern D:\git\70M_Ku_Up\Drivers\External-Peripherals\oled_c2.c
            RFFreqString1   0x000112       data     extern D:\git\70M_Ku_Up\Drivers\External-Peripherals\oled_c2.c
            RFFreqString2   0x00011e       data     extern D:\git\70M_Ku_Up\Drivers\External-Peripherals\oled_c2.c
             AttenString1   0x00012a       data     extern D:\git\70M_Ku_Up\Drivers\External-Peripherals\oled_c2.c
             AttenString2   0x000132       data     extern D:\git\70M_Ku_Up\Drivers\External-Peripherals\oled_c2.c
                 IPString   0x00013a       data     extern D:\git\70M_Ku_Up\Drivers\External-Peripherals\oled_c2.c
                 MNString   0x00014a       data     extern D:\git\70M_Ku_Up\Drivers\External-Peripherals\oled_c2.c
                 SNString   0x00015c       data     extern D:\git\70M_Ku_Up\Drivers\External-Peripherals\oled_c2.c
                   s18VDC   0x000165       data     extern D:\git\70M_Ku_Up\Drivers\External-Peripherals\oled_c2.c
                   s24VDC   0x000169       data     extern D:\git\70M_Ku_Up\Drivers\External-Peripherals\oled_c2.c
                  sLNBREF   0x00016d       data     extern D:\git\70M_Ku_Up\Drivers\External-Peripherals\oled_c2.c
                  sBUCREF   0x000171       data     extern D:\git\70M_Ku_Up\Drivers\External-Peripherals\oled_c2.c
                 sUCPower   0x000175       data     extern D:\git\70M_Ku_Up\Drivers\External-Peripherals\oled_c2.c
                 sDCPower   0x00017f       data     extern D:\git\70M_Ku_Up\Drivers\External-Peripherals\oled_c2.c
               sUPC_StPwr   0x000189       data     extern D:\git\70M_Ku_Up\Drivers\External-Peripherals\oled_c2.c
               sDNC_StPwr   0x000193       data     extern D:\git\70M_Ku_Up\Drivers\External-Peripherals\oled_c2.c
                    sALCa   0x00019d       data     extern D:\git\70M_Ku_Up\Drivers\External-Peripherals\oled_c2.c
                    sALCb   0x0001a1       data     extern D:\git\70M_Ku_Up\Drivers\External-Peripherals\oled_c2.c
                   sMutea   0x0001a5       data     extern D:\git\70M_Ku_Up\Drivers\External-Peripherals\oled_c2.c
                   sMuteb   0x0001ae       data     extern D:\git\70M_Ku_Up\Drivers\External-Peripherals\oled_c2.c
                 LastMenu   0x0001b7       data     extern D:\git\70M_Ku_Up\Drivers\External-Peripherals\oled_c2.c
              CurrentMenu   0x0001b8       data     extern D:\git\70M_Ku_Up\Drivers\External-Peripherals\oled_c2.c
           KeyPressedFlag   0x0001b9       data     extern D:\git\70M_Ku_Up\Drivers\External-Peripherals\oled_c2.c
               PressedKey   0x0001ba       data     extern D:\git\70M_Ku_Up\Drivers\External-Peripherals\oled_c2.c
              RefreshFlag   0x0001bb       data     extern D:\git\70M_Ku_Up\Drivers\External-Peripherals\oled_c2.c
           EditUpdateFlag   0x0001bc       data     extern D:\git\70M_Ku_Up\Drivers\External-Peripherals\oled_c2.c
          ValueUpdateFlag   0x0001bd       data     extern D:\git\70M_Ku_Up\Drivers\External-Peripherals\oled_c2.c
                 EditMode   0x0001be       data     extern D:\git\70M_Ku_Up\Drivers\External-Peripherals\oled_c2.c
             EditPosition   0x0001bf       data     extern D:\git\70M_Ku_Up\Drivers\External-Peripherals\oled_c2.c
            FirstPressKey   0x0001c0       data     extern D:\git\70M_Ku_Up\Drivers\External-Peripherals\oled_c2.c
                  u8ExtLO   0x0001c1       data     extern D:\git\70M_Ku_Up\Drivers\External-Peripherals\oled_c2.c
                 u8LoBand   0x0001c2       data     extern D:\git\70M_Ku_Up\Drivers\External-Peripherals\oled_c2.c
                u16LoFreq   0x0001c3       data     extern D:\git\70M_Ku_Up\Drivers\External-Peripherals\oled_c2.c
                 readflag   0x0001c5       data     extern D:\git\70M_Ku_Up\Drivers\External-Peripherals\oled_c2.c
                  u8Index   0x0001c6       data     static D:\git\70M_Ku_Up\Drivers\External-Peripherals\oled_c2.c
                AppConfig   0x0001c7       data     extern D:\git\70M_Ku_Up\Main\Main.c
             vTickReading   0x0001fa       data     static D:\git\70M_Ku_Up\Microchip\TCPIP Stack\Tick.c
           LCDBlinkBuffer   0x000200       data     extern D:\git\70M_Ku_Up\Drivers\External-Peripherals\oled_c2.c
              ConvertMenu   0x000250       data     extern D:\git\70M_Ku_Up\Drivers\External-Peripherals\oled_c2.c
              systeminfo2   0x00026c       data     extern D:\git\70M_Ku_Up\Main\Main.c
              vUARTRXFIFO   0x0002ac       data     static D:\git\70M_Ku_Up\Microchip\TCPIP Stack\UART2TCPBridge.c
              vUARTTXFIFO   0x0002ed       data     static D:\git\70M_Ku_Up\Microchip\TCPIP Stack\UART2TCPBridge.c
                     Seed   0x0002fe       data     static C:\Program Files\mcc18\src\traditional\stdclib\rand.asm
                 TCBStubs   0x000300       data     static D:\git\70M_Ku_Up\Microchip\TCPIP Stack\TCP.c
              stConverter   0x0003a8       data     extern D:\git\70M_Ku_Up\Main\Main.c
           MyStaticIPAddr   0x0003f0       data     extern D:\git\70M_Ku_Up\Main\Main.c
                   ostart   0x0003f4       data     extern D:\git\70M_Ku_Up\Main\Main.c
                     oend   0x0003f5       data     extern D:\git\70M_Ku_Up\Main\Main.c
                    ctemp   0x0003f6       data     extern D:\git\70M_Ku_Up\Main\Main.c
                    Read2   0x0003f7       data     extern D:\git\70M_Ku_Up\Main\Main.c
                  boBlink   0x0003ff       data     static D:\git\70M_Ku_Up\Drivers\External-Peripherals\oled_c1.c
                  curHTTP   0x000400       data     extern D:\git\70M_Ku_Up\Microchip\TCPIP Stack\HTTP2.c
                httpStubs   0x00047f       data     extern D:\git\70M_Ku_Up\Microchip\TCPIP Stack\HTTP2.c
                curHTTPID   0x000483       data     extern D:\git\70M_Ku_Up\Microchip\TCPIP Stack\HTTP2.c
                MPFSStubs   0x000484       data     static D:\git\70M_Ku_Up\Microchip\TCPIP Stack\MPFS2.c
             isMPFSLocked   0x0004d4       data     static D:\git\70M_Ku_Up\Microchip\TCPIP Stack\MPFS2.c
                 fatCache   0x0004d5       data     static D:\git\70M_Ku_Up\Microchip\TCPIP Stack\MPFS2.c
               fatCacheID   0x0004eb       data     static D:\git\70M_Ku_Up\Microchip\TCPIP Stack\MPFS2.c
                 numFiles   0x0004ed       data     static D:\git\70M_Ku_Up\Microchip\TCPIP Stack\MPFS2.c
                 lastRead   0x0004ef       data     extern D:\git\70M_Ku_Up\Microchip\TCPIP Stack\MPFS2.c
              webpassinfo   0x0004f3       data     extern D:\git\70M_Ku_Up\App\WebUI\HTTPApp.c
                 SYNQueue   0x000500       data     static D:\git\70M_Ku_Up\Microchip\TCPIP Stack\TCP.c
                     oldp   0x00053c       data     extern D:\git\70M_Ku_Up\App\WebUI\HTTPGetDevInfo.c
                     newp   0x000546       data     extern D:\git\70M_Ku_Up\App\WebUI\HTTPGetDevInfo.c
                      rep   0x000550       data     extern D:\git\70M_Ku_Up\App\WebUI\HTTPGetDevInfo.c
              RdI2CBuffer   0x00055a       data     extern D:\git\70M_Ku_Up\App\WebUI\HTTPGetDevInfo.c
          FirmwareVersion   0x000578       data     extern D:\git\70M_Ku_Up\Main\Main.c
            SecondCounter   0x00057c       data     extern D:\git\70M_Ku_Up\Main\Main.c
            MinuteCounter   0x00057d       data     extern D:\git\70M_Ku_Up\Main\Main.c
              HardwareWDT   0x00057e       data     extern D:\git\70M_Ku_Up\Main\Main.c
              webPass_tmr   0x00057f       data     static D:\git\70M_Ku_Up\Main\Main.c
                lcd_timer   0x000583       data     static D:\git\70M_Ku_Up\Main\Main.c
               keypad_tmr   0x000587       data     static D:\git\70M_Ku_Up\Main\Main.c
            tiDisplay_tmr   0x00058b       data     static D:\git\70M_Ku_Up\Main\Main.c
                  smStack   0x00058f       data     static D:\git\70M_Ku_Up\Microchip\TCPIP Stack\StackTsk.c
               remoteNode   0x000590       data     extern D:\git\70M_Ku_Up\Microchip\TCPIP Stack\StackTsk.c
                 ADCInfo1   0x00059a       data     extern D:\git\70M_Ku_Up\Drivers\MCU-Internal\internalADC.c
               ADC_result   0x0005a2       data     extern D:\git\70M_Ku_Up\Drivers\MCU-Internal\internalADC.c
                     prom   0x0005a4       data     static C:\Program Files\mcc18\src\traditional\startup\c018iz.c
                curr_byte   0x0005a7       data     static C:\Program Files\mcc18\src\traditional\startup\c018iz.c
               curr_entry   0x0005a9       data     static C:\Program Files\mcc18\src\traditional\startup\c018iz.c
                 data_ptr   0x0005ab       data     static C:\Program Files\mcc18\src\traditional\startup\c018iz.c
                RXHeadPtr   0x0005ae       data     static D:\git\70M_Ku_Up\Microchip\TCPIP Stack\UART2TCPBridge.c
                RXTailPtr   0x0005b0       data     static D:\git\70M_Ku_Up\Microchip\TCPIP Stack\UART2TCPBridge.c
                TXHeadPtr   0x0005b2       data     static D:\git\70M_Ku_Up\Microchip\TCPIP Stack\UART2TCPBridge.c
                TXTailPtr   0x0005b4       data     static D:\git\70M_Ku_Up\Microchip\TCPIP Stack\UART2TCPBridge.c
       NextPacketLocation   0x0005b6       data     static D:\git\70M_Ku_Up\Microchip\TCPIP Stack\ETH97J60.c
    CurrentPacketLocation   0x0005b8       data     static D:\git\70M_Ku_Up\Microchip\TCPIP Stack\ETH97J60.c
             WasDiscarded   0x0005ba       data     static D:\git\70M_Ku_Up\Microchip\TCPIP Stack\ETH97J60.c
              wTXWatchdog   0x0005bb       data     static D:\git\70M_Ku_Up\Microchip\TCPIP Stack\ETH97J60.c
                    myRef   0x0005bd       data     extern D:\git\70M_Ku_Up\App\SNMP\SNMPLLiBUCDevInfo.c
                  TEMP_IP   0x0005be       data     extern D:\git\70M_Ku_Up\App\SNMP\SNMPLLiBUCDevInfo.c
               Manager_IP   0x0005c2       data     extern D:\git\70M_Ku_Up\Bootstrap\Initialization.c
                 toRotate   0x0005c6       data     extern D:\git\70M_Ku_Up\Microchip\TCPIP Stack\Helpers.c
                 dwLastIP   0x0005ca       data     extern D:\git\70M_Ku_Up\SysLib\util.c
          dwInternalTicks   0x0005ce       data     static D:\git\70M_Ku_Up\Microchip\TCPIP Stack\Tick.c
                        L   0x0005d2       data     extern D:\git\70M_Ku_Up\SysLib\util.c
                tempvalue   0x0005d3       data     extern D:\git\70M_Ku_Up\SysLib\util.c
                   hMPFS1   0x0005d4       data     extern D:\git\70M_Ku_Up\SysLib\util.c
              _Identifier   0x0005d5       data     static D:\git\70M_Ku_Up\Microchip\TCPIP Stack\IP.c
          I2CSlaveAddress   0x0005d7       data     extern D:\git\70M_Ku_Up\App\WebUI\HTTPGetDevInfo.c
      WebpageWriteI2CFlag   0x0005d8       data     extern D:\git\70M_Ku_Up\App\WebUI\HTTPGetDevInfo.c
              lastSuccess   0x0005d9       data     extern D:\git\70M_Ku_Up\App\WebUI\HTTPApp.c
              lastFailure   0x0005da       data     extern D:\git\70M_Ku_Up\App\WebUI\HTTPApp.c
              IPHeaderLen   0x0005db       data     static D:\git\70M_Ku_Up\Microchip\TCPIP Stack\IP.c
            Timer2Counter   0x0005dc       data     extern D:\git\70M_Ku_Up\Drivers\MCU-Internal\ISR.c
                    smARP   0x0005dd       data     static D:\git\70M_Ku_Up\Microchip\TCPIP Stack\ARP.c
        LCDBufferPosition   0x000e00       data     extern D:\git\70M_Ku_Up\Drivers\External-Peripherals\oled_c2.c
            stI2CUpCvtMsg   0x000e02       data     extern D:\git\70M_Ku_Up\Drivers\External-Peripherals\oled_c2.c
          stI2CDownCvtMsg   0x000e0c       data     extern D:\git\70M_Ku_Up\Drivers\External-Peripherals\oled_c2.c
              stI2CVOLMsg   0x000e16       data     extern D:\git\70M_Ku_Up\Drivers\External-Peripherals\oled_c2.c
               stI2CUCMsg   0x000e19       data     extern D:\git\70M_Ku_Up\Drivers\External-Peripherals\oled_c2.c
               stI2CDCMsg   0x000e25       data     extern D:\git\70M_Ku_Up\Drivers\External-Peripherals\oled_c2.c
              stI2CREFMsg   0x000e31       data     extern D:\git\70M_Ku_Up\Drivers\External-Peripherals\oled_c2.c
               stI2CLOMsg   0x000e3b       data     extern D:\git\70M_Ku_Up\Drivers\External-Peripherals\oled_c2.c
            EEPROMAddress   0x000e47       data     static D:\git\70M_Ku_Up\Microchip\TCPIP Stack\SPIEEPROM.c
             EEPROMBuffer   0x000e4b       data     static D:\git\70M_Ku_Up\Microchip\TCPIP Stack\SPIEEPROM.c
           vBytesInBuffer   0x000e6b       data     static D:\git\70M_Ku_Up\Microchip\TCPIP Stack\SPIEEPROM.c
                    Cache   0x000e6c       data     static D:\git\70M_Ku_Up\Microchip\TCPIP Stack\ARP.c
                   Target   0x000e76       data     static D:\git\70M_Ku_Up\Microchip\TCPIP Stack\ARP.c
                   MAADR5   0x000e80       data     extern C:\MCC18\src\traditional\proc\p18F97J60.asm
                   MAADR6   0x000e81       data     extern C:\MCC18\src\traditional\proc\p18F97J60.asm
                   MAADR3   0x000e82       data     extern C:\MCC18\src\traditional\proc\p18F97J60.asm
                   MAADR4   0x000e83       data     extern C:\MCC18\src\traditional\proc\p18F97J60.asm
                   MAADR1   0x000e84       data     extern C:\MCC18\src\traditional\proc\p18F97J60.asm
                   MAADR2   0x000e85       data     extern C:\MCC18\src\traditional\proc\p18F97J60.asm
                   MISTAT   0x000e8a       data     extern C:\MCC18\src\traditional\proc\p18F97J60.asm
               MISTATbits   0x000e8a       data     extern C:\MCC18\src\traditional\proc\p18F97J60.asm
                  EFLOCON   0x000e97       data     extern C:\MCC18\src\traditional\proc\p18F97J60.asm
              EFLOCONbits   0x000e97       data     extern C:\MCC18\src\traditional\proc\p18F97J60.asm
                    EPAUS   0x000e98       data     extern C:\MCC18\src\traditional\proc\p18F97J60.asm
                   EPAUSL   0x000e98       data     extern C:\MCC18\src\traditional\proc\p18F97J60.asm
                   EPAUSH   0x000e99       data     extern C:\MCC18\src\traditional\proc\p18F97J60.asm
               MACON1bits   0x000ea0       data     extern C:\MCC18\src\traditional\proc\p18F97J60.asm
                   MACON1   0x000ea0       data     extern C:\MCC18\src\traditional\proc\p18F97J60.asm
               MACON3bits   0x000ea2       data     extern C:\MCC18\src\traditional\proc\p18F97J60.asm
                   MACON3   0x000ea2       data     extern C:\MCC18\src\traditional\proc\p18F97J60.asm
               MACON4bits   0x000ea3       data     extern C:\MCC18\src\traditional\proc\p18F97J60.asm
                   MACON4   0x000ea3       data     extern C:\MCC18\src\traditional\proc\p18F97J60.asm
                  MABBIPG   0x000ea4       data     extern C:\MCC18\src\traditional\proc\p18F97J60.asm
                    MAIPG   0x000ea6       data     extern C:\MCC18\src\traditional\proc\p18F97J60.asm
                   MAIPGL   0x000ea6       data     extern C:\MCC18\src\traditional\proc\p18F97J60.asm
                   MAIPGH   0x000ea7       data     extern C:\MCC18\src\traditional\proc\p18F97J60.asm
                  MAMXFLL   0x000eaa       data     extern C:\MCC18\src\traditional\proc\p18F97J60.asm
                   MAMXFL   0x000eaa       data     extern C:\MCC18\src\traditional\proc\p18F97J60.asm
                  MAMXFLH   0x000eab       data     extern C:\MCC18\src\traditional\proc\p18F97J60.asm
                MICMDbits   0x000eb2       data     extern C:\MCC18\src\traditional\proc\p18F97J60.asm
                    MICMD   0x000eb2       data     extern C:\MCC18\src\traditional\proc\p18F97J60.asm
                 MIREGADR   0x000eb4       data     extern C:\MCC18\src\traditional\proc\p18F97J60.asm
                     MIWR   0x000eb6       data     extern C:\MCC18\src\traditional\proc\p18F97J60.asm
                    MIWRL   0x000eb6       data     extern C:\MCC18\src\traditional\proc\p18F97J60.asm
                    MIWRH   0x000eb7       data     extern C:\MCC18\src\traditional\proc\p18F97J60.asm
                    MIRDL   0x000eb8       data     extern C:\MCC18\src\traditional\proc\p18F97J60.asm
                     MIRD   0x000eb8       data     extern C:\MCC18\src\traditional\proc\p18F97J60.asm
                    MIRDH   0x000eb9       data     extern C:\MCC18\src\traditional\proc\p18F97J60.asm
                     EHT0   0x000ec0       data     extern C:\MCC18\src\traditional\proc\p18F97J60.asm
                     EHT1   0x000ec1       data     extern C:\MCC18\src\traditional\proc\p18F97J60.asm
                     EHT2   0x000ec2       data     extern C:\MCC18\src\traditional\proc\p18F97J60.asm
                     EHT3   0x000ec3       data     extern C:\MCC18\src\traditional\proc\p18F97J60.asm
                     EHT4   0x000ec4       data     extern C:\MCC18\src\traditional\proc\p18F97J60.asm
                     EHT5   0x000ec5       data     extern C:\MCC18\src\traditional\proc\p18F97J60.asm
                     EHT6   0x000ec6       data     extern C:\MCC18\src\traditional\proc\p18F97J60.asm
                     EHT7   0x000ec7       data     extern C:\MCC18\src\traditional\proc\p18F97J60.asm
                    EPMM0   0x000ec8       data     extern C:\MCC18\src\traditional\proc\p18F97J60.asm
                    EPMM1   0x000ec9       data     extern C:\MCC18\src\traditional\proc\p18F97J60.asm
                    EPMM2   0x000eca       data     extern C:\MCC18\src\traditional\proc\p18F97J60.asm
                    EPMM3   0x000ecb       data     extern C:\MCC18\src\traditional\proc\p18F97J60.asm
                    EPMM4   0x000ecc       data     extern C:\MCC18\src\traditional\proc\p18F97J60.asm
                    EPMM5   0x000ecd       data     extern C:\MCC18\src\traditional\proc\p18F97J60.asm
                    EPMM6   0x000ece       data     extern C:\MCC18\src\traditional\proc\p18F97J60.asm
                    EPMM7   0x000ecf       data     extern C:\MCC18\src\traditional\proc\p18F97J60.asm
                   EPMCSL   0x000ed0       data     extern C:\MCC18\src\traditional\proc\p18F97J60.asm
                    EPMCS   0x000ed0       data     extern C:\MCC18\src\traditional\proc\p18F97J60.asm
                   EPMCSH   0x000ed1       data     extern C:\MCC18\src\traditional\proc\p18F97J60.asm
                    EPMOL   0x000ed4       data     extern C:\MCC18\src\traditional\proc\p18F97J60.asm
                     EPMO   0x000ed4       data     extern C:\MCC18\src\traditional\proc\p18F97J60.asm
                    EPMOH   0x000ed5       data     extern C:\MCC18\src\traditional\proc\p18F97J60.asm
                  ERXFCON   0x000ed8       data     extern C:\MCC18\src\traditional\proc\p18F97J60.asm
              ERXFCONbits   0x000ed8       data     extern C:\MCC18\src\traditional\proc\p18F97J60.asm
                  EPKTCNT   0x000ed9       data     extern C:\MCC18\src\traditional\proc\p18F97J60.asm
                    EWRPT   0x000ee2       data     extern C:\MCC18\src\traditional\proc\p18F97J60.asm
                   EWRPTL   0x000ee2       data     extern C:\MCC18\src\traditional\proc\p18F97J60.asm
                   EWRPTH   0x000ee3       data     extern C:\MCC18\src\traditional\proc\p18F97J60.asm
                    ETXST   0x000ee4       data     extern C:\MCC18\src\traditional\proc\p18F97J60.asm
                   ETXSTL   0x000ee4       data     extern C:\MCC18\src\traditional\proc\p18F97J60.asm
                   ETXSTH   0x000ee5       data     extern C:\MCC18\src\traditional\proc\p18F97J60.asm
                    ETXND   0x000ee6       data     extern C:\MCC18\src\traditional\proc\p18F97J60.asm
                   ETXNDL   0x000ee6       data     extern C:\MCC18\src\traditional\proc\p18F97J60.asm
                   ETXNDH   0x000ee7       data     extern C:\MCC18\src\traditional\proc\p18F97J60.asm
                    ERXST   0x000ee8       data     extern C:\MCC18\src\traditional\proc\p18F97J60.asm
                   ERXSTL   0x000ee8       data     extern C:\MCC18\src\traditional\proc\p18F97J60.asm
                   ERXSTH   0x000ee9       data     extern C:\MCC18\src\traditional\proc\p18F97J60.asm
                   ERXNDL   0x000eea       data     extern C:\MCC18\src\traditional\proc\p18F97J60.asm
                    ERXND   0x000eea       data     extern C:\MCC18\src\traditional\proc\p18F97J60.asm
                   ERXNDH   0x000eeb       data     extern C:\MCC18\src\traditional\proc\p18F97J60.asm
                 ERXRDPTL   0x000eec       data     extern C:\MCC18\src\traditional\proc\p18F97J60.asm
                  ERXRDPT   0x000eec       data     extern C:\MCC18\src\traditional\proc\p18F97J60.asm
                 ERXRDPTH   0x000eed       data     extern C:\MCC18\src\traditional\proc\p18F97J60.asm
                 ERXWRPTL   0x000eee       data     extern C:\MCC18\src\traditional\proc\p18F97J60.asm
                  ERXWRPT   0x000eee       data     extern C:\MCC18\src\traditional\proc\p18F97J60.asm
                 ERXWRPTH   0x000eef       data     extern C:\MCC18\src\traditional\proc\p18F97J60.asm
                  EDMASTL   0x000ef0       data     extern C:\MCC18\src\traditional\proc\p18F97J60.asm
                   EDMAST   0x000ef0       data     extern C:\MCC18\src\traditional\proc\p18F97J60.asm
                  EDMASTH   0x000ef1       data     extern C:\MCC18\src\traditional\proc\p18F97J60.asm
                   EDMAND   0x000ef2       data     extern C:\MCC18\src\traditional\proc\p18F97J60.asm
                  EDMANDL   0x000ef2       data     extern C:\MCC18\src\traditional\proc\p18F97J60.asm
                  EDMANDH   0x000ef3       data     extern C:\MCC18\src\traditional\proc\p18F97J60.asm
                  EDMADST   0x000ef4       data     extern C:\MCC18\src\traditional\proc\p18F97J60.asm
                 EDMADSTL   0x000ef4       data     extern C:\MCC18\src\traditional\proc\p18F97J60.asm
                 EDMADSTH   0x000ef5       data     extern C:\MCC18\src\traditional\proc\p18F97J60.asm
                   EDMACS   0x000ef6       data     extern C:\MCC18\src\traditional\proc\p18F97J60.asm
                  EDMACSL   0x000ef6       data     extern C:\MCC18\src\traditional\proc\p18F97J60.asm
                  EDMACSH   0x000ef7       data     extern C:\MCC18\src\traditional\proc\p18F97J60.asm
                      EIE   0x000efb       data     extern C:\MCC18\src\traditional\proc\p18F97J60.asm
                  EIEbits   0x000efb       data     extern C:\MCC18\src\traditional\proc\p18F97J60.asm
                    ESTAT   0x000efd       data     extern C:\MCC18\src\traditional\proc\p18F97J60.asm
                ESTATbits   0x000efd       data     extern C:\MCC18\src\traditional\proc\p18F97J60.asm
                ECON2bits   0x000efe       data     extern C:\MCC18\src\traditional\proc\p18F97J60.asm
                    ECON2   0x000efe       data     extern C:\MCC18\src\traditional\proc\p18F97J60.asm
                 NextPort   0x000f00       data     static D:\git\70M_Ku_Up\Microchip\TCPIP Stack\TCP.c
                    MyTCB   0x000f02       data     static D:\git\70M_Ku_Up\Microchip\TCPIP Stack\TCP.c
                MyTCBStub   0x000f27       data     static D:\git\70M_Ku_Up\Microchip\TCPIP Stack\TCP.c
               RemoteInfo   0x000f43       data     static D:\git\70M_Ku_Up\Microchip\TCPIP Stack\TCP.c
         global_char_temp   0x000f4f       data     extern D:\git\70M_Ku_Up\App\WebUI\HTTPPrint.c
              hCurrentTCP   0x000f5e       data     static D:\git\70M_Ku_Up\Microchip\TCPIP Stack\TCP.c
                 hLastTCB   0x000f5f       data     static D:\git\70M_Ku_Up\Microchip\TCPIP Stack\TCP.c
                  EIRbits   0x000f60       data     extern C:\MCC18\src\traditional\proc\p18F97J60.asm
                      EIR   0x000f60       data     extern C:\MCC18\src\traditional\proc\p18F97J60.asm
                    EDATA   0x000f61       data     extern C:\MCC18\src\traditional\proc\p18F97J60.asm
                EDATAbits   0x000f61       data     extern C:\MCC18\src\traditional\proc\p18F97J60.asm
                 SSP2CON2   0x000f62       data     extern C:\MCC18\src\traditional\proc\p18F97J60.asm
             SSP2CON2bits   0x000f62       data     extern C:\MCC18\src\traditional\proc\p18F97J60.asm
             SSP2CON1bits   0x000f63       data     extern C:\MCC18\src\traditional\proc\p18F97J60.asm
                 SSP2CON1   0x000f63       data     extern C:\MCC18\src\traditional\proc\p18F97J60.asm
             SSP2STATbits   0x000f64       data     extern C:\MCC18\src\traditional\proc\p18F97J60.asm
                 SSP2STAT   0x000f64       data     extern C:\MCC18\src\traditional\proc\p18F97J60.asm
                  SSP2ADD   0x000f65       data     extern C:\MCC18\src\traditional\proc\p18F97J60.asm
                  SSP2BUF   0x000f66       data     extern C:\MCC18\src\traditional\proc\p18F97J60.asm
                 ECCP2DEL   0x000f67       data     extern C:\MCC18\src\traditional\proc\p18F97J60.asm
             ECCP2DELbits   0x000f67       data     extern C:\MCC18\src\traditional\proc\p18F97J60.asm
                  ECCP2AS   0x000f68       data     extern C:\MCC18\src\traditional\proc\p18F97J60.asm
              ECCP2ASbits   0x000f68       data     extern C:\MCC18\src\traditional\proc\p18F97J60.asm
             ECCP3DELbits   0x000f69       data     extern C:\MCC18\src\traditional\proc\p18F97J60.asm
                 ECCP3DEL   0x000f69       data     extern C:\MCC18\src\traditional\proc\p18F97J60.asm
              ECCP3ASbits   0x000f6a       data     extern C:\MCC18\src\traditional\proc\p18F97J60.asm
                  ECCP3AS   0x000f6a       data     extern C:\MCC18\src\traditional\proc\p18F97J60.asm
               RCSTA2bits   0x000f6b       data     extern C:\MCC18\src\traditional\proc\p18F97J60.asm
                   RCSTA2   0x000f6b       data     extern C:\MCC18\src\traditional\proc\p18F97J60.asm
               TXSTA2bits   0x000f6c       data     extern C:\MCC18\src\traditional\proc\p18F97J60.asm
                   TXSTA2   0x000f6c       data     extern C:\MCC18\src\traditional\proc\p18F97J60.asm
                   TXREG2   0x000f6d       data     extern C:\MCC18\src\traditional\proc\p18F97J60.asm
                   RCREG2   0x000f6e       data     extern C:\MCC18\src\traditional\proc\p18F97J60.asm
                   SPBRG2   0x000f6f       data     extern C:\MCC18\src\traditional\proc\p18F97J60.asm
              CCP5CONbits   0x000f70       data     extern C:\MCC18\src\traditional\proc\p18F97J60.asm
                  CCP5CON   0x000f70       data     extern C:\MCC18\src\traditional\proc\p18F97J60.asm
                   CCPR5L   0x000f71       data     extern C:\MCC18\src\traditional\proc\p18F97J60.asm
                    CCPR5   0x000f71       data     extern C:\MCC18\src\traditional\proc\p18F97J60.asm
                   CCPR5H   0x000f72       data     extern C:\MCC18\src\traditional\proc\p18F97J60.asm
              CCP4CONbits   0x000f73       data     extern C:\MCC18\src\traditional\proc\p18F97J60.asm
                  CCP4CON   0x000f73       data     extern C:\MCC18\src\traditional\proc\p18F97J60.asm
                    CCPR4   0x000f74       data     extern C:\MCC18\src\traditional\proc\p18F97J60.asm
                   CCPR4L   0x000f74       data     extern C:\MCC18\src\traditional\proc\p18F97J60.asm
                   CCPR4H   0x000f75       data     extern C:\MCC18\src\traditional\proc\p18F97J60.asm
                    T4CON   0x000f76       data     extern C:\MCC18\src\traditional\proc\p18F97J60.asm
                T4CONbits   0x000f76       data     extern C:\MCC18\src\traditional\proc\p18F97J60.asm
                      PR4   0x000f77       data     extern C:\MCC18\src\traditional\proc\p18F97J60.asm
                     TMR4   0x000f78       data     extern C:\MCC18\src\traditional\proc\p18F97J60.asm
                 ECCP1DEL   0x000f79       data     extern C:\MCC18\src\traditional\proc\p18F97J60.asm
             ECCP1DELbits   0x000f79       data     extern C:\MCC18\src\traditional\proc\p18F97J60.asm
                   ERDPTL   0x000f7a       data     extern C:\MCC18\src\traditional\proc\p18F97J60.asm
                    ERDPT   0x000f7a       data     extern C:\MCC18\src\traditional\proc\p18F97J60.asm
                   ERDPTH   0x000f7b       data     extern C:\MCC18\src\traditional\proc\p18F97J60.asm
             BAUDCTL2bits   0x000f7c       data     extern C:\MCC18\src\traditional\proc\p18F97J60.asm
                 BAUDCTL2   0x000f7c       data     extern C:\MCC18\src\traditional\proc\p18F97J60.asm
                 BAUDCON2   0x000f7c       data     extern C:\MCC18\src\traditional\proc\p18F97J60.asm
             BAUDCON2bits   0x000f7c       data     extern C:\MCC18\src\traditional\proc\p18F97J60.asm
                  SPBRGH2   0x000f7d       data     extern C:\MCC18\src\traditional\proc\p18F97J60.asm
                 BAUDCTL1   0x000f7e       data     extern C:\MCC18\src\traditional\proc\p18F97J60.asm
                  BAUDCTL   0x000f7e       data     extern C:\MCC18\src\traditional\proc\p18F97J60.asm
                  BAUDCON   0x000f7e       data     extern C:\MCC18\src\traditional\proc\p18F97J60.asm
                 BAUDCON1   0x000f7e       data     extern C:\MCC18\src\traditional\proc\p18F97J60.asm
             BAUDCON1bits   0x000f7e       data     extern C:\MCC18\src\traditional\proc\p18F97J60.asm
              BAUDCTLbits   0x000f7e       data     extern C:\MCC18\src\traditional\proc\p18F97J60.asm
              BAUDCONbits   0x000f7e       data     extern C:\MCC18\src\traditional\proc\p18F97J60.asm
             BAUDCTL1bits   0x000f7e       data     extern C:\MCC18\src\traditional\proc\p18F97J60.asm
                   SPBRGH   0x000f7f       data     extern C:\MCC18\src\traditional\proc\p18F97J60.asm
                  SPBRGH1   0x000f7f       data     extern C:\MCC18\src\traditional\proc\p18F97J60.asm
                PORTAbits   0x000f80       data     extern C:\MCC18\src\traditional\proc\p18F97J60.asm
                    PORTA   0x000f80       data     extern C:\MCC18\src\traditional\proc\p18F97J60.asm
                    PORTB   0x000f81       data     extern C:\MCC18\src\traditional\proc\p18F97J60.asm
                PORTBbits   0x000f81       data     extern C:\MCC18\src\traditional\proc\p18F97J60.asm
                    PORTC   0x000f82       data     extern C:\MCC18\src\traditional\proc\p18F97J60.asm
                PORTCbits   0x000f82       data     extern C:\MCC18\src\traditional\proc\p18F97J60.asm
                PORTDbits   0x000f83       data     extern C:\MCC18\src\traditional\proc\p18F97J60.asm
                    PORTD   0x000f83       data     extern C:\MCC18\src\traditional\proc\p18F97J60.asm
                PORTEbits   0x000f84       data     extern C:\MCC18\src\traditional\proc\p18F97J60.asm
                    PORTE   0x000f84       data     extern C:\MCC18\src\traditional\proc\p18F97J60.asm
                PORTFbits   0x000f85       data     extern C:\MCC18\src\traditional\proc\p18F97J60.asm
                    PORTF   0x000f85       data     extern C:\MCC18\src\traditional\proc\p18F97J60.asm
                PORTGbits   0x000f86       data     extern C:\MCC18\src\traditional\proc\p18F97J60.asm
                    PORTG   0x000f86       data     extern C:\MCC18\src\traditional\proc\p18F97J60.asm
                PORTHbits   0x000f87       data     extern C:\MCC18\src\traditional\proc\p18F97J60.asm
                    PORTH   0x000f87       data     extern C:\MCC18\src\traditional\proc\p18F97J60.asm
                PORTJbits   0x000f88       data     extern C:\MCC18\src\traditional\proc\p18F97J60.asm
                    PORTJ   0x000f88       data     extern C:\MCC18\src\traditional\proc\p18F97J60.asm
                     LATA   0x000f89       data     extern C:\MCC18\src\traditional\proc\p18F97J60.asm
                 LATAbits   0x000f89       data     extern C:\MCC18\src\traditional\proc\p18F97J60.asm
                 LATBbits   0x000f8a       data     extern C:\MCC18\src\traditional\proc\p18F97J60.asm
                     LATB   0x000f8a       data     extern C:\MCC18\src\traditional\proc\p18F97J60.asm
                 LATCbits   0x000f8b       data     extern C:\MCC18\src\traditional\proc\p18F97J60.asm
                     LATC   0x000f8b       data     extern C:\MCC18\src\traditional\proc\p18F97J60.asm
                 LATDbits   0x000f8c       data     extern C:\MCC18\src\traditional\proc\p18F97J60.asm
                     LATD   0x000f8c       data     extern C:\MCC18\src\traditional\proc\p18F97J60.asm
                 LATEbits   0x000f8d       data     extern C:\MCC18\src\traditional\proc\p18F97J60.asm
                     LATE   0x000f8d       data     extern C:\MCC18\src\traditional\proc\p18F97J60.asm
                     LATF   0x000f8e       data     extern C:\MCC18\src\traditional\proc\p18F97J60.asm
                 LATFbits   0x000f8e       data     extern C:\MCC18\src\traditional\proc\p18F97J60.asm
                     LATG   0x000f8f       data     extern C:\MCC18\src\traditional\proc\p18F97J60.asm
                 LATGbits   0x000f8f       data     extern C:\MCC18\src\traditional\proc\p18F97J60.asm
                     LATH   0x000f90       data     extern C:\MCC18\src\traditional\proc\p18F97J60.asm
                 LATHbits   0x000f90       data     extern C:\MCC18\src\traditional\proc\p18F97J60.asm
                 LATJbits   0x000f91       data     extern C:\MCC18\src\traditional\proc\p18F97J60.asm
                     LATJ   0x000f91       data     extern C:\MCC18\src\traditional\proc\p18F97J60.asm
                     DDRA   0x000f92       data     extern C:\MCC18\src\traditional\proc\p18F97J60.asm
                 DDRAbits   0x000f92       data     extern C:\MCC18\src\traditional\proc\p18F97J60.asm
                TRISAbits   0x000f92       data     extern C:\MCC18\src\traditional\proc\p18F97J60.asm
                    TRISA   0x000f92       data     extern C:\MCC18\src\traditional\proc\p18F97J60.asm
                     DDRB   0x000f93       data     extern C:\MCC18\src\traditional\proc\p18F97J60.asm
                 DDRBbits   0x000f93       data     extern C:\MCC18\src\traditional\proc\p18F97J60.asm
                TRISBbits   0x000f93       data     extern C:\MCC18\src\traditional\proc\p18F97J60.asm
                    TRISB   0x000f93       data     extern C:\MCC18\src\traditional\proc\p18F97J60.asm
                TRISCbits   0x000f94       data     extern C:\MCC18\src\traditional\proc\p18F97J60.asm
                    TRISC   0x000f94       data     extern C:\MCC18\src\traditional\proc\p18F97J60.asm
                     DDRC   0x000f94       data     extern C:\MCC18\src\traditional\proc\p18F97J60.asm
                 DDRCbits   0x000f94       data     extern C:\MCC18\src\traditional\proc\p18F97J60.asm
                     DDRD   0x000f95       data     extern C:\MCC18\src\traditional\proc\p18F97J60.asm
                 DDRDbits   0x000f95       data     extern C:\MCC18\src\traditional\proc\p18F97J60.asm
                    TRISD   0x000f95       data     extern C:\MCC18\src\traditional\proc\p18F97J60.asm
                TRISDbits   0x000f95       data     extern C:\MCC18\src\traditional\proc\p18F97J60.asm
                     DDRE   0x000f96       data     extern C:\MCC18\src\traditional\proc\p18F97J60.asm
                 DDREbits   0x000f96       data     extern C:\MCC18\src\traditional\proc\p18F97J60.asm
                    TRISE   0x000f96       data     extern C:\MCC18\src\traditional\proc\p18F97J60.asm
                TRISEbits   0x000f96       data     extern C:\MCC18\src\traditional\proc\p18F97J60.asm
                    TRISF   0x000f97       data     extern C:\MCC18\src\traditional\proc\p18F97J60.asm
                TRISFbits   0x000f97       data     extern C:\MCC18\src\traditional\proc\p18F97J60.asm
                     DDRF   0x000f97       data     extern C:\MCC18\src\traditional\proc\p18F97J60.asm
                 DDRFbits   0x000f97       data     extern C:\MCC18\src\traditional\proc\p18F97J60.asm
                     DDRG   0x000f98       data     extern C:\MCC18\src\traditional\proc\p18F97J60.asm
                 DDRGbits   0x000f98       data     extern C:\MCC18\src\traditional\proc\p18F97J60.asm
                TRISGbits   0x000f98       data     extern C:\MCC18\src\traditional\proc\p18F97J60.asm
                    TRISG   0x000f98       data     extern C:\MCC18\src\traditional\proc\p18F97J60.asm
                TRISHbits   0x000f99       data     extern C:\MCC18\src\traditional\proc\p18F97J60.asm
                    TRISH   0x000f99       data     extern C:\MCC18\src\traditional\proc\p18F97J60.asm
                 DDRHbits   0x000f99       data     extern C:\MCC18\src\traditional\proc\p18F97J60.asm
                     DDRH   0x000f99       data     extern C:\MCC18\src\traditional\proc\p18F97J60.asm
                     DDRJ   0x000f9a       data     extern C:\MCC18\src\traditional\proc\p18F97J60.asm
                TRISJbits   0x000f9a       data     extern C:\MCC18\src\traditional\proc\p18F97J60.asm
                    TRISJ   0x000f9a       data     extern C:\MCC18\src\traditional\proc\p18F97J60.asm
                 DDRJbits   0x000f9a       data     extern C:\MCC18\src\traditional\proc\p18F97J60.asm
              OSCTUNEbits   0x000f9b       data     extern C:\MCC18\src\traditional\proc\p18F97J60.asm
                  OSCTUNE   0x000f9b       data     extern C:\MCC18\src\traditional\proc\p18F97J60.asm
               MEMCONbits   0x000f9c       data     extern C:\MCC18\src\traditional\proc\p18F97J60.asm
                   MEMCON   0x000f9c       data     extern C:\MCC18\src\traditional\proc\p18F97J60.asm
                 PIE1bits   0x000f9d       data     extern C:\MCC18\src\traditional\proc\p18F97J60.asm
                     PIE1   0x000f9d       data     extern C:\MCC18\src\traditional\proc\p18F97J60.asm
                 PIR1bits   0x000f9e       data     extern C:\MCC18\src\traditional\proc\p18F97J60.asm
                     PIR1   0x000f9e       data     extern C:\MCC18\src\traditional\proc\p18F97J60.asm
                     IPR1   0x000f9f       data     extern C:\MCC18\src\traditional\proc\p18F97J60.asm
                 IPR1bits   0x000f9f       data     extern C:\MCC18\src\traditional\proc\p18F97J60.asm
                     PIE2   0x000fa0       data     extern C:\MCC18\src\traditional\proc\p18F97J60.asm
                 PIE2bits   0x000fa0       data     extern C:\MCC18\src\traditional\proc\p18F97J60.asm
                     PIR2   0x000fa1       data     extern C:\MCC18\src\traditional\proc\p18F97J60.asm
                 PIR2bits   0x000fa1       data     extern C:\MCC18\src\traditional\proc\p18F97J60.asm
                     IPR2   0x000fa2       data     extern C:\MCC18\src\traditional\proc\p18F97J60.asm
                 IPR2bits   0x000fa2       data     extern C:\MCC18\src\traditional\proc\p18F97J60.asm
                     PIE3   0x000fa3       data     extern C:\MCC18\src\traditional\proc\p18F97J60.asm
                 PIE3bits   0x000fa3       data     extern C:\MCC18\src\traditional\proc\p18F97J60.asm
                     PIR3   0x000fa4       data     extern C:\MCC18\src\traditional\proc\p18F97J60.asm
                 PIR3bits   0x000fa4       data     extern C:\MCC18\src\traditional\proc\p18F97J60.asm
                 IPR3bits   0x000fa5       data     extern C:\MCC18\src\traditional\proc\p18F97J60.asm
                     IPR3   0x000fa5       data     extern C:\MCC18\src\traditional\proc\p18F97J60.asm
               EECON1bits   0x000fa6       data     extern C:\MCC18\src\traditional\proc\p18F97J60.asm
                   EECON1   0x000fa6       data     extern C:\MCC18\src\traditional\proc\p18F97J60.asm
                   EECON2   0x000fa7       data     extern C:\MCC18\src\traditional\proc\p18F97J60.asm
                    RCSTA   0x000fab       data     extern C:\MCC18\src\traditional\proc\p18F97J60.asm
                   RCSTA1   0x000fab       data     extern C:\MCC18\src\traditional\proc\p18F97J60.asm
                RCSTAbits   0x000fab       data     extern C:\MCC18\src\traditional\proc\p18F97J60.asm
               RCSTA1bits   0x000fab       data     extern C:\MCC18\src\traditional\proc\p18F97J60.asm
                TXSTAbits   0x000fac       data     extern C:\MCC18\src\traditional\proc\p18F97J60.asm
               TXSTA1bits   0x000fac       data     extern C:\MCC18\src\traditional\proc\p18F97J60.asm
                   TXSTA1   0x000fac       data     extern C:\MCC18\src\traditional\proc\p18F97J60.asm
                    TXSTA   0x000fac       data     extern C:\MCC18\src\traditional\proc\p18F97J60.asm
                    TXREG   0x000fad       data     extern C:\MCC18\src\traditional\proc\p18F97J60.asm
                   TXREG1   0x000fad       data     extern C:\MCC18\src\traditional\proc\p18F97J60.asm
                   RCREG1   0x000fae       data     extern C:\MCC18\src\traditional\proc\p18F97J60.asm
                    RCREG   0x000fae       data     extern C:\MCC18\src\traditional\proc\p18F97J60.asm
                    SPBRG   0x000faf       data     extern C:\MCC18\src\traditional\proc\p18F97J60.asm
                   SPBRG1   0x000faf       data     extern C:\MCC18\src\traditional\proc\p18F97J60.asm
               PSPCONbits   0x000fb0       data     extern C:\MCC18\src\traditional\proc\p18F97J60.asm
                   PSPCON   0x000fb0       data     extern C:\MCC18\src\traditional\proc\p18F97J60.asm
                    T3CON   0x000fb1       data     extern C:\MCC18\src\traditional\proc\p18F97J60.asm
                T3CONbits   0x000fb1       data     extern C:\MCC18\src\traditional\proc\p18F97J60.asm
                    TMR3L   0x000fb2       data     extern C:\MCC18\src\traditional\proc\p18F97J60.asm
                    TMR3H   0x000fb3       data     extern C:\MCC18\src\traditional\proc\p18F97J60.asm
                    CMCON   0x000fb4       data     extern C:\MCC18\src\traditional\proc\p18F97J60.asm
                CMCONbits   0x000fb4       data     extern C:\MCC18\src\traditional\proc\p18F97J60.asm
               CVRCONbits   0x000fb5       data     extern C:\MCC18\src\traditional\proc\p18F97J60.asm
                   CVRCON   0x000fb5       data     extern C:\MCC18\src\traditional\proc\p18F97J60.asm
                  ECCP1AS   0x000fb6       data     extern C:\MCC18\src\traditional\proc\p18F97J60.asm
              ECCP1ASbits   0x000fb6       data     extern C:\MCC18\src\traditional\proc\p18F97J60.asm
              CCP3CONbits   0x000fb7       data     extern C:\MCC18\src\traditional\proc\p18F97J60.asm
                  CCP3CON   0x000fb7       data     extern C:\MCC18\src\traditional\proc\p18F97J60.asm
             ECCP3CONbits   0x000fb7       data     extern C:\MCC18\src\traditional\proc\p18F97J60.asm
                 ECCP3CON   0x000fb7       data     extern C:\MCC18\src\traditional\proc\p18F97J60.asm
                   CCPR3L   0x000fb8       data     extern C:\MCC18\src\traditional\proc\p18F97J60.asm
                    CCPR3   0x000fb8       data     extern C:\MCC18\src\traditional\proc\p18F97J60.asm
                   CCPR3H   0x000fb9       data     extern C:\MCC18\src\traditional\proc\p18F97J60.asm
              CCP2CONbits   0x000fba       data     extern C:\MCC18\src\traditional\proc\p18F97J60.asm
                  CCP2CON   0x000fba       data     extern C:\MCC18\src\traditional\proc\p18F97J60.asm
             ECCP2CONbits   0x000fba       data     extern C:\MCC18\src\traditional\proc\p18F97J60.asm
                 ECCP2CON   0x000fba       data     extern C:\MCC18\src\traditional\proc\p18F97J60.asm
                    CCPR2   0x000fbb       data     extern C:\MCC18\src\traditional\proc\p18F97J60.asm
                   CCPR2L   0x000fbb       data     extern C:\MCC18\src\traditional\proc\p18F97J60.asm
                   CCPR2H   0x000fbc       data     extern C:\MCC18\src\traditional\proc\p18F97J60.asm
              CCP1CONbits   0x000fbd       data     extern C:\MCC18\src\traditional\proc\p18F97J60.asm
                  CCP1CON   0x000fbd       data     extern C:\MCC18\src\traditional\proc\p18F97J60.asm
                 ECCP1CON   0x000fbd       data     extern C:\MCC18\src\traditional\proc\p18F97J60.asm
             ECCP1CONbits   0x000fbd       data     extern C:\MCC18\src\traditional\proc\p18F97J60.asm
                   CCPR1L   0x000fbe       data     extern C:\MCC18\src\traditional\proc\p18F97J60.asm
                    CCPR1   0x000fbe       data     extern C:\MCC18\src\traditional\proc\p18F97J60.asm
                   CCPR1H   0x000fbf       data     extern C:\MCC18\src\traditional\proc\p18F97J60.asm
               ADCON2bits   0x000fc0       data     extern C:\MCC18\src\traditional\proc\p18F97J60.asm
                   ADCON2   0x000fc0       data     extern C:\MCC18\src\traditional\proc\p18F97J60.asm
               ADCON1bits   0x000fc1       data     extern C:\MCC18\src\traditional\proc\p18F97J60.asm
                   ADCON1   0x000fc1       data     extern C:\MCC18\src\traditional\proc\p18F97J60.asm
               ADCON0bits   0x000fc2       data     extern C:\MCC18\src\traditional\proc\p18F97J60.asm
                   ADCON0   0x000fc2       data     extern C:\MCC18\src\traditional\proc\p18F97J60.asm
                    ADRES   0x000fc3       data     extern C:\MCC18\src\traditional\proc\p18F97J60.asm
                   ADRESL   0x000fc3       data     extern C:\MCC18\src\traditional\proc\p18F97J60.asm
                   ADRESH   0x000fc4       data     extern C:\MCC18\src\traditional\proc\p18F97J60.asm
                  SSPCON2   0x000fc5       data     extern C:\MCC18\src\traditional\proc\p18F97J60.asm
              SSPCON2bits   0x000fc5       data     extern C:\MCC18\src\traditional\proc\p18F97J60.asm
                 SSP1CON2   0x000fc5       data     extern C:\MCC18\src\traditional\proc\p18F97J60.asm
             SSP1CON2bits   0x000fc5       data     extern C:\MCC18\src\traditional\proc\p18F97J60.asm
                  SSPCON1   0x000fc6       data     extern C:\MCC18\src\traditional\proc\p18F97J60.asm
              SSPCON1bits   0x000fc6       data     extern C:\MCC18\src\traditional\proc\p18F97J60.asm
             SSP1CON1bits   0x000fc6       data     extern C:\MCC18\src\traditional\proc\p18F97J60.asm
                 SSP1CON1   0x000fc6       data     extern C:\MCC18\src\traditional\proc\p18F97J60.asm
                  SSPSTAT   0x000fc7       data     extern C:\MCC18\src\traditional\proc\p18F97J60.asm
              SSPSTATbits   0x000fc7       data     extern C:\MCC18\src\traditional\proc\p18F97J60.asm
             SSP1STATbits   0x000fc7       data     extern C:\MCC18\src\traditional\proc\p18F97J60.asm
                 SSP1STAT   0x000fc7       data     extern C:\MCC18\src\traditional\proc\p18F97J60.asm
                   SSPADD   0x000fc8       data     extern C:\MCC18\src\traditional\proc\p18F97J60.asm
                  SSP1ADD   0x000fc8       data     extern C:\MCC18\src\traditional\proc\p18F97J60.asm
                   SSPBUF   0x000fc9       data     extern C:\MCC18\src\traditional\proc\p18F97J60.asm
                  SSP1BUF   0x000fc9       data     extern C:\MCC18\src\traditional\proc\p18F97J60.asm
                    T2CON   0x000fca       data     extern C:\MCC18\src\traditional\proc\p18F97J60.asm
                T2CONbits   0x000fca       data     extern C:\MCC18\src\traditional\proc\p18F97J60.asm
                      PR2   0x000fcb       data     extern C:\MCC18\src\traditional\proc\p18F97J60.asm
                     TMR2   0x000fcc       data     extern C:\MCC18\src\traditional\proc\p18F97J60.asm
                    T1CON   0x000fcd       data     extern C:\MCC18\src\traditional\proc\p18F97J60.asm
                T1CONbits   0x000fcd       data     extern C:\MCC18\src\traditional\proc\p18F97J60.asm
                    TMR1L   0x000fce       data     extern C:\MCC18\src\traditional\proc\p18F97J60.asm
                    TMR1H   0x000fcf       data     extern C:\MCC18\src\traditional\proc\p18F97J60.asm
                     RCON   0x000fd0       data     extern C:\MCC18\src\traditional\proc\p18F97J60.asm
                 RCONbits   0x000fd0       data     extern C:\MCC18\src\traditional\proc\p18F97J60.asm
                   WDTCON   0x000fd1       data     extern C:\MCC18\src\traditional\proc\p18F97J60.asm
               WDTCONbits   0x000fd1       data     extern C:\MCC18\src\traditional\proc\p18F97J60.asm
                    ECON1   0x000fd2       data     extern C:\MCC18\src\traditional\proc\p18F97J60.asm
                ECON1bits   0x000fd2       data     extern C:\MCC18\src\traditional\proc\p18F97J60.asm
                   OSCCON   0x000fd3       data     extern C:\MCC18\src\traditional\proc\p18F97J60.asm
               OSCCONbits   0x000fd3       data     extern C:\MCC18\src\traditional\proc\p18F97J60.asm
                    T0CON   0x000fd5       data     extern C:\MCC18\src\traditional\proc\p18F97J60.asm
                T0CONbits   0x000fd5       data     extern C:\MCC18\src\traditional\proc\p18F97J60.asm
                    TMR0L   0x000fd6       data     extern C:\MCC18\src\traditional\proc\p18F97J60.asm
                    TMR0H   0x000fd7       data     extern C:\MCC18\src\traditional\proc\p18F97J60.asm
               STATUSbits   0x000fd8       data     extern C:\MCC18\src\traditional\proc\p18F97J60.asm
                   STATUS   0x000fd8       data     extern C:\MCC18\src\traditional\proc\p18F97J60.asm
                    FSR2L   0x000fd9       data     extern C:\MCC18\src\traditional\proc\p18F97J60.asm
                     FSR2   0x000fd9       data     extern C:\MCC18\src\traditional\proc\p18F97J60.asm
                    FSR2H   0x000fda       data     extern C:\MCC18\src\traditional\proc\p18F97J60.asm
                   PLUSW2   0x000fdb       data     extern C:\MCC18\src\traditional\proc\p18F97J60.asm
                  PREINC2   0x000fdc       data     extern C:\MCC18\src\traditional\proc\p18F97J60.asm
                 POSTDEC2   0x000fdd       data     extern C:\MCC18\src\traditional\proc\p18F97J60.asm
                 POSTINC2   0x000fde       data     extern C:\MCC18\src\traditional\proc\p18F97J60.asm
                    INDF2   0x000fdf       data     extern C:\MCC18\src\traditional\proc\p18F97J60.asm
                      BSR   0x000fe0       data     extern C:\MCC18\src\traditional\proc\p18F97J60.asm
                    FSR1L   0x000fe1       data     extern C:\MCC18\src\traditional\proc\p18F97J60.asm
                     FSR1   0x000fe1       data     extern C:\MCC18\src\traditional\proc\p18F97J60.asm
                    FSR1H   0x000fe2       data     extern C:\MCC18\src\traditional\proc\p18F97J60.asm
                   PLUSW1   0x000fe3       data     extern C:\MCC18\src\traditional\proc\p18F97J60.asm
                  PREINC1   0x000fe4       data     extern C:\MCC18\src\traditional\proc\p18F97J60.asm
                 POSTDEC1   0x000fe5       data     extern C:\MCC18\src\traditional\proc\p18F97J60.asm
                 POSTINC1   0x000fe6       data     extern C:\MCC18\src\traditional\proc\p18F97J60.asm
                    INDF1   0x000fe7       data     extern C:\MCC18\src\traditional\proc\p18F97J60.asm
                     WREG   0x000fe8       data     extern C:\MCC18\src\traditional\proc\p18F97J60.asm
                    FSR0L   0x000fe9       data     extern C:\MCC18\src\traditional\proc\p18F97J60.asm
                     FSR0   0x000fe9       data     extern C:\MCC18\src\traditional\proc\p18F97J60.asm
                    FSR0H   0x000fea       data     extern C:\MCC18\src\traditional\proc\p18F97J60.asm
                   PLUSW0   0x000feb       data     extern C:\MCC18\src\traditional\proc\p18F97J60.asm
                  PREINC0   0x000fec       data     extern C:\MCC18\src\traditional\proc\p18F97J60.asm
                 POSTDEC0   0x000fed       data     extern C:\MCC18\src\traditional\proc\p18F97J60.asm
                 POSTINC0   0x000fee       data     extern C:\MCC18\src\traditional\proc\p18F97J60.asm
                    INDF0   0x000fef       data     extern C:\MCC18\src\traditional\proc\p18F97J60.asm
                  INTCON3   0x000ff0       data     extern C:\MCC18\src\traditional\proc\p18F97J60.asm
              INTCON3bits   0x000ff0       data     extern C:\MCC18\src\traditional\proc\p18F97J60.asm
                  INTCON2   0x000ff1       data     extern C:\MCC18\src\traditional\proc\p18F97J60.asm
              INTCON2bits   0x000ff1       data     extern C:\MCC18\src\traditional\proc\p18F97J60.asm
                   INTCON   0x000ff2       data     extern C:\MCC18\src\traditional\proc\p18F97J60.asm
               INTCONbits   0x000ff2       data     extern C:\MCC18\src\traditional\proc\p18F97J60.asm
                     PROD   0x000ff3       data     extern C:\MCC18\src\traditional\proc\p18F97J60.asm
                    PRODL   0x000ff3       data     extern C:\MCC18\src\traditional\proc\p18F97J60.asm
                    PRODH   0x000ff4       data     extern C:\MCC18\src\traditional\proc\p18F97J60.asm
                   TABLAT   0x000ff5       data     extern C:\MCC18\src\traditional\proc\p18F97J60.asm
                  TBLPTRL   0x000ff6       data     extern C:\MCC18\src\traditional\proc\p18F97J60.asm
                   TBLPTR   0x000ff6       data     extern C:\MCC18\src\traditional\proc\p18F97J60.asm
                  TBLPTRH   0x000ff7       data     extern C:\MCC18\src\traditional\proc\p18F97J60.asm
                  TBLPTRU   0x000ff8       data     extern C:\MCC18\src\traditional\proc\p18F97J60.asm
                      PCL   0x000ff9       data     extern C:\MCC18\src\traditional\proc\p18F97J60.asm
                       PC   0x000ff9       data     extern C:\MCC18\src\traditional\proc\p18F97J60.asm
                   PCLATH   0x000ffa       data     extern C:\MCC18\src\traditional\proc\p18F97J60.asm
                   PCLATU   0x000ffb       data     extern C:\MCC18\src\traditional\proc\p18F97J60.asm
               STKPTRbits   0x000ffc       data     extern C:\MCC18\src\traditional\proc\p18F97J60.asm
                   STKPTR   0x000ffc       data     extern C:\MCC18\src\traditional\proc\p18F97J60.asm
                      TOS   0x000ffd       data     extern C:\MCC18\src\traditional\proc\p18F97J60.asm
                     TOSL   0x000ffd       data     extern C:\MCC18\src\traditional\proc\p18F97J60.asm
                     TOSH   0x000ffe       data     extern C:\MCC18\src\traditional\proc\p18F97J60.asm
                     TOSU   0x000fff       data     extern C:\MCC18\src\traditional\proc\p18F97J60.asm


